
EEE3096S_2022_Prac_3_ADCs_Interrupts_and_PWM_Student_Version.elf:     file format elf32-littlearm

Sections:
Idx Name          Size      VMA       LMA       File off  Algn
  0 .isr_vector   000000c0  08000000  08000000  00010000  2**0
                  CONTENTS, ALLOC, LOAD, READONLY, DATA
  1 .text         00004ed8  080000c0  080000c0  000100c0  2**2
                  CONTENTS, ALLOC, LOAD, READONLY, CODE
  2 .rodata       00000094  08004f98  08004f98  00014f98  2**2
                  CONTENTS, ALLOC, LOAD, READONLY, DATA
  3 .ARM.extab    00000000  0800502c  0800502c  00020074  2**0
                  CONTENTS
  4 .ARM          00000000  0800502c  0800502c  00020074  2**0
                  CONTENTS
  5 .preinit_array 00000000  0800502c  0800502c  00020074  2**0
                  CONTENTS, ALLOC, LOAD, DATA
  6 .init_array   00000004  0800502c  0800502c  0001502c  2**2
                  CONTENTS, ALLOC, LOAD, DATA
  7 .fini_array   00000004  08005030  08005030  00015030  2**2
                  CONTENTS, ALLOC, LOAD, DATA
  8 .data         00000074  20000000  08005034  00020000  2**2
                  CONTENTS, ALLOC, LOAD, DATA
  9 .bss          00000218  20000074  080050a8  00020074  2**2
                  ALLOC
 10 ._user_heap_stack 00000604  2000028c  080050a8  0002028c  2**0
                  ALLOC
 11 .ARM.attributes 00000028  00000000  00000000  00020074  2**0
                  CONTENTS, READONLY
 12 .debug_info   0000f136  00000000  00000000  0002009c  2**0
                  CONTENTS, READONLY, DEBUGGING, OCTETS
 13 .debug_abbrev 0000202d  00000000  00000000  0002f1d2  2**0
                  CONTENTS, READONLY, DEBUGGING, OCTETS
 14 .debug_aranges 00000d48  00000000  00000000  00031200  2**3
                  CONTENTS, READONLY, DEBUGGING, OCTETS
 15 .debug_ranges 00000c80  00000000  00000000  00031f48  2**3
                  CONTENTS, READONLY, DEBUGGING, OCTETS
 16 .debug_macro  00012f8a  00000000  00000000  00032bc8  2**0
                  CONTENTS, READONLY, DEBUGGING, OCTETS
 17 .debug_line   0000fb3f  00000000  00000000  00045b52  2**0
                  CONTENTS, READONLY, DEBUGGING, OCTETS
 18 .debug_str    000741ca  00000000  00000000  00055691  2**0
                  CONTENTS, READONLY, DEBUGGING, OCTETS
 19 .comment      00000050  00000000  00000000  000c985b  2**0
                  CONTENTS, READONLY
 20 .debug_frame  000033a4  00000000  00000000  000c98ac  2**2
                  CONTENTS, READONLY, DEBUGGING, OCTETS

Disassembly of section .text:

080000c0 <__do_global_dtors_aux>:
 80000c0:	b510      	push	{r4, lr}
 80000c2:	4c06      	ldr	r4, [pc, #24]	; (80000dc <__do_global_dtors_aux+0x1c>)
 80000c4:	7823      	ldrb	r3, [r4, #0]
 80000c6:	2b00      	cmp	r3, #0
 80000c8:	d107      	bne.n	80000da <__do_global_dtors_aux+0x1a>
 80000ca:	4b05      	ldr	r3, [pc, #20]	; (80000e0 <__do_global_dtors_aux+0x20>)
 80000cc:	2b00      	cmp	r3, #0
 80000ce:	d002      	beq.n	80000d6 <__do_global_dtors_aux+0x16>
 80000d0:	4804      	ldr	r0, [pc, #16]	; (80000e4 <__do_global_dtors_aux+0x24>)
 80000d2:	e000      	b.n	80000d6 <__do_global_dtors_aux+0x16>
 80000d4:	bf00      	nop
 80000d6:	2301      	movs	r3, #1
 80000d8:	7023      	strb	r3, [r4, #0]
 80000da:	bd10      	pop	{r4, pc}
 80000dc:	20000074 	.word	0x20000074
 80000e0:	00000000 	.word	0x00000000
 80000e4:	08004f80 	.word	0x08004f80

080000e8 <frame_dummy>:
 80000e8:	4b04      	ldr	r3, [pc, #16]	; (80000fc <frame_dummy+0x14>)
 80000ea:	b510      	push	{r4, lr}
 80000ec:	2b00      	cmp	r3, #0
 80000ee:	d003      	beq.n	80000f8 <frame_dummy+0x10>
 80000f0:	4903      	ldr	r1, [pc, #12]	; (8000100 <frame_dummy+0x18>)
 80000f2:	4804      	ldr	r0, [pc, #16]	; (8000104 <frame_dummy+0x1c>)
 80000f4:	e000      	b.n	80000f8 <frame_dummy+0x10>
 80000f6:	bf00      	nop
 80000f8:	bd10      	pop	{r4, pc}
 80000fa:	46c0      	nop			; (mov r8, r8)
 80000fc:	00000000 	.word	0x00000000
 8000100:	20000078 	.word	0x20000078
 8000104:	08004f80 	.word	0x08004f80

08000108 <__gnu_thumb1_case_shi>:
 8000108:	b403      	push	{r0, r1}
 800010a:	4671      	mov	r1, lr
 800010c:	0849      	lsrs	r1, r1, #1
 800010e:	0040      	lsls	r0, r0, #1
 8000110:	0049      	lsls	r1, r1, #1
 8000112:	5e09      	ldrsh	r1, [r1, r0]
 8000114:	0049      	lsls	r1, r1, #1
 8000116:	448e      	add	lr, r1
 8000118:	bc03      	pop	{r0, r1}
 800011a:	4770      	bx	lr

0800011c <__udivsi3>:
 800011c:	2200      	movs	r2, #0
 800011e:	0843      	lsrs	r3, r0, #1
 8000120:	428b      	cmp	r3, r1
 8000122:	d374      	bcc.n	800020e <__udivsi3+0xf2>
 8000124:	0903      	lsrs	r3, r0, #4
 8000126:	428b      	cmp	r3, r1
 8000128:	d35f      	bcc.n	80001ea <__udivsi3+0xce>
 800012a:	0a03      	lsrs	r3, r0, #8
 800012c:	428b      	cmp	r3, r1
 800012e:	d344      	bcc.n	80001ba <__udivsi3+0x9e>
 8000130:	0b03      	lsrs	r3, r0, #12
 8000132:	428b      	cmp	r3, r1
 8000134:	d328      	bcc.n	8000188 <__udivsi3+0x6c>
 8000136:	0c03      	lsrs	r3, r0, #16
 8000138:	428b      	cmp	r3, r1
 800013a:	d30d      	bcc.n	8000158 <__udivsi3+0x3c>
 800013c:	22ff      	movs	r2, #255	; 0xff
 800013e:	0209      	lsls	r1, r1, #8
 8000140:	ba12      	rev	r2, r2
 8000142:	0c03      	lsrs	r3, r0, #16
 8000144:	428b      	cmp	r3, r1
 8000146:	d302      	bcc.n	800014e <__udivsi3+0x32>
 8000148:	1212      	asrs	r2, r2, #8
 800014a:	0209      	lsls	r1, r1, #8
 800014c:	d065      	beq.n	800021a <__udivsi3+0xfe>
 800014e:	0b03      	lsrs	r3, r0, #12
 8000150:	428b      	cmp	r3, r1
 8000152:	d319      	bcc.n	8000188 <__udivsi3+0x6c>
 8000154:	e000      	b.n	8000158 <__udivsi3+0x3c>
 8000156:	0a09      	lsrs	r1, r1, #8
 8000158:	0bc3      	lsrs	r3, r0, #15
 800015a:	428b      	cmp	r3, r1
 800015c:	d301      	bcc.n	8000162 <__udivsi3+0x46>
 800015e:	03cb      	lsls	r3, r1, #15
 8000160:	1ac0      	subs	r0, r0, r3
 8000162:	4152      	adcs	r2, r2
 8000164:	0b83      	lsrs	r3, r0, #14
 8000166:	428b      	cmp	r3, r1
 8000168:	d301      	bcc.n	800016e <__udivsi3+0x52>
 800016a:	038b      	lsls	r3, r1, #14
 800016c:	1ac0      	subs	r0, r0, r3
 800016e:	4152      	adcs	r2, r2
 8000170:	0b43      	lsrs	r3, r0, #13
 8000172:	428b      	cmp	r3, r1
 8000174:	d301      	bcc.n	800017a <__udivsi3+0x5e>
 8000176:	034b      	lsls	r3, r1, #13
 8000178:	1ac0      	subs	r0, r0, r3
 800017a:	4152      	adcs	r2, r2
 800017c:	0b03      	lsrs	r3, r0, #12
 800017e:	428b      	cmp	r3, r1
 8000180:	d301      	bcc.n	8000186 <__udivsi3+0x6a>
 8000182:	030b      	lsls	r3, r1, #12
 8000184:	1ac0      	subs	r0, r0, r3
 8000186:	4152      	adcs	r2, r2
 8000188:	0ac3      	lsrs	r3, r0, #11
 800018a:	428b      	cmp	r3, r1
 800018c:	d301      	bcc.n	8000192 <__udivsi3+0x76>
 800018e:	02cb      	lsls	r3, r1, #11
 8000190:	1ac0      	subs	r0, r0, r3
 8000192:	4152      	adcs	r2, r2
 8000194:	0a83      	lsrs	r3, r0, #10
 8000196:	428b      	cmp	r3, r1
 8000198:	d301      	bcc.n	800019e <__udivsi3+0x82>
 800019a:	028b      	lsls	r3, r1, #10
 800019c:	1ac0      	subs	r0, r0, r3
 800019e:	4152      	adcs	r2, r2
 80001a0:	0a43      	lsrs	r3, r0, #9
 80001a2:	428b      	cmp	r3, r1
 80001a4:	d301      	bcc.n	80001aa <__udivsi3+0x8e>
 80001a6:	024b      	lsls	r3, r1, #9
 80001a8:	1ac0      	subs	r0, r0, r3
 80001aa:	4152      	adcs	r2, r2
 80001ac:	0a03      	lsrs	r3, r0, #8
 80001ae:	428b      	cmp	r3, r1
 80001b0:	d301      	bcc.n	80001b6 <__udivsi3+0x9a>
 80001b2:	020b      	lsls	r3, r1, #8
 80001b4:	1ac0      	subs	r0, r0, r3
 80001b6:	4152      	adcs	r2, r2
 80001b8:	d2cd      	bcs.n	8000156 <__udivsi3+0x3a>
 80001ba:	09c3      	lsrs	r3, r0, #7
 80001bc:	428b      	cmp	r3, r1
 80001be:	d301      	bcc.n	80001c4 <__udivsi3+0xa8>
 80001c0:	01cb      	lsls	r3, r1, #7
 80001c2:	1ac0      	subs	r0, r0, r3
 80001c4:	4152      	adcs	r2, r2
 80001c6:	0983      	lsrs	r3, r0, #6
 80001c8:	428b      	cmp	r3, r1
 80001ca:	d301      	bcc.n	80001d0 <__udivsi3+0xb4>
 80001cc:	018b      	lsls	r3, r1, #6
 80001ce:	1ac0      	subs	r0, r0, r3
 80001d0:	4152      	adcs	r2, r2
 80001d2:	0943      	lsrs	r3, r0, #5
 80001d4:	428b      	cmp	r3, r1
 80001d6:	d301      	bcc.n	80001dc <__udivsi3+0xc0>
 80001d8:	014b      	lsls	r3, r1, #5
 80001da:	1ac0      	subs	r0, r0, r3
 80001dc:	4152      	adcs	r2, r2
 80001de:	0903      	lsrs	r3, r0, #4
 80001e0:	428b      	cmp	r3, r1
 80001e2:	d301      	bcc.n	80001e8 <__udivsi3+0xcc>
 80001e4:	010b      	lsls	r3, r1, #4
 80001e6:	1ac0      	subs	r0, r0, r3
 80001e8:	4152      	adcs	r2, r2
 80001ea:	08c3      	lsrs	r3, r0, #3
 80001ec:	428b      	cmp	r3, r1
 80001ee:	d301      	bcc.n	80001f4 <__udivsi3+0xd8>
 80001f0:	00cb      	lsls	r3, r1, #3
 80001f2:	1ac0      	subs	r0, r0, r3
 80001f4:	4152      	adcs	r2, r2
 80001f6:	0883      	lsrs	r3, r0, #2
 80001f8:	428b      	cmp	r3, r1
 80001fa:	d301      	bcc.n	8000200 <__udivsi3+0xe4>
 80001fc:	008b      	lsls	r3, r1, #2
 80001fe:	1ac0      	subs	r0, r0, r3
 8000200:	4152      	adcs	r2, r2
 8000202:	0843      	lsrs	r3, r0, #1
 8000204:	428b      	cmp	r3, r1
 8000206:	d301      	bcc.n	800020c <__udivsi3+0xf0>
 8000208:	004b      	lsls	r3, r1, #1
 800020a:	1ac0      	subs	r0, r0, r3
 800020c:	4152      	adcs	r2, r2
 800020e:	1a41      	subs	r1, r0, r1
 8000210:	d200      	bcs.n	8000214 <__udivsi3+0xf8>
 8000212:	4601      	mov	r1, r0
 8000214:	4152      	adcs	r2, r2
 8000216:	4610      	mov	r0, r2
 8000218:	4770      	bx	lr
 800021a:	e7ff      	b.n	800021c <__udivsi3+0x100>
 800021c:	b501      	push	{r0, lr}
 800021e:	2000      	movs	r0, #0
 8000220:	f000 f806 	bl	8000230 <__aeabi_idiv0>
 8000224:	bd02      	pop	{r1, pc}
 8000226:	46c0      	nop			; (mov r8, r8)

08000228 <__aeabi_uidivmod>:
 8000228:	2900      	cmp	r1, #0
 800022a:	d0f7      	beq.n	800021c <__udivsi3+0x100>
 800022c:	e776      	b.n	800011c <__udivsi3>
 800022e:	4770      	bx	lr

08000230 <__aeabi_idiv0>:
 8000230:	4770      	bx	lr
 8000232:	46c0      	nop			; (mov r8, r8)

08000234 <main>:
/**
  * @brief  The application entry point.
  * @retval int
  */
int main(void)
{
 8000234:	b580      	push	{r7, lr}
 8000236:	b082      	sub	sp, #8
 8000238:	af00      	add	r7, sp, #0
  /* USER CODE END 1 */

  /* MCU Configuration--------------------------------------------------------*/

  /* Reset of all peripherals, Initializes the Flash interface and the Systick. */
  HAL_Init();
 800023a:	f000 fd19 	bl	8000c70 <HAL_Init>
  /* USER CODE BEGIN Init */

  /* USER CODE END Init */

  /* Configure the system clock */
  SystemClock_Config();
 800023e:	f000 f877 	bl	8000330 <SystemClock_Config>
  /* USER CODE BEGIN SysInit */

  /* USER CODE END SysInit */

  /* Initialize all configured peripherals */
  MX_GPIO_Init();
 8000242:	f000 f9f7 	bl	8000634 <MX_GPIO_Init>
  MX_DMA_Init();
 8000246:	f000 f9cf 	bl	80005e8 <MX_DMA_Init>
  MX_USART2_UART_Init();
 800024a:	f000 f99d 	bl	8000588 <MX_USART2_UART_Init>
  MX_ADC_Init();
 800024e:	f000 f8bf 	bl	80003d0 <MX_ADC_Init>
  MX_TIM3_Init();
 8000252:	f000 f919 	bl	8000488 <MX_TIM3_Init>
  /* USER CODE BEGIN 2 */

  //TO DO:
  //Create variables needed in while loop

  HAL_TIM_PWM_Start(&htim3, TIM_CHANNEL_4); //Start the PWM on TIM3 Channel 4 (Green LED)
 8000256:	4b2a      	ldr	r3, [pc, #168]	; (8000300 <main+0xcc>)
 8000258:	210c      	movs	r1, #12
 800025a:	0018      	movs	r0, r3
 800025c:	f002 fc6c 	bl	8002b38 <HAL_TIM_PWM_Start>

  /* Infinite loop */
  /* USER CODE BEGIN WHILE */
  while (1)
  {
	  HAL_GPIO_TogglePin(GPIOC, GPIO_PIN_8); // Toggle blue LED
 8000260:	2380      	movs	r3, #128	; 0x80
 8000262:	005b      	lsls	r3, r3, #1
 8000264:	4a27      	ldr	r2, [pc, #156]	; (8000304 <main+0xd0>)
 8000266:	0019      	movs	r1, r3
 8000268:	0010      	movs	r0, r2
 800026a:	f001 ff10 	bl	800208e <HAL_GPIO_TogglePin>
	  //TO DO:
	  //TASK 2
	  //Test your pollADC function and display via UART
	  adc_val = pollADC();
 800026e:	f000 faa3 	bl	80007b8 <pollADC>
 8000272:	0002      	movs	r2, r0
 8000274:	4b24      	ldr	r3, [pc, #144]	; (8000308 <main+0xd4>)
 8000276:	601a      	str	r2, [r3, #0]
	  sprintf(buffer,"ADC value: %d \r\n",adc_val);
 8000278:	4b23      	ldr	r3, [pc, #140]	; (8000308 <main+0xd4>)
 800027a:	681a      	ldr	r2, [r3, #0]
 800027c:	4923      	ldr	r1, [pc, #140]	; (800030c <main+0xd8>)
 800027e:	4b24      	ldr	r3, [pc, #144]	; (8000310 <main+0xdc>)
 8000280:	0018      	movs	r0, r3
 8000282:	f004 fa13 	bl	80046ac <siprintf>
	  HAL_UART_Transmit(&huart2, (uint8_t *)buffer, sizeof (buffer), 1000);
 8000286:	23fa      	movs	r3, #250	; 0xfa
 8000288:	009b      	lsls	r3, r3, #2
 800028a:	4921      	ldr	r1, [pc, #132]	; (8000310 <main+0xdc>)
 800028c:	4821      	ldr	r0, [pc, #132]	; (8000314 <main+0xe0>)
 800028e:	2240      	movs	r2, #64	; 0x40
 8000290:	f003 fa90 	bl	80037b4 <HAL_UART_Transmit>
	  char newline[2] = "\r\n";
 8000294:	1d3b      	adds	r3, r7, #4
 8000296:	4a20      	ldr	r2, [pc, #128]	; (8000318 <main+0xe4>)
 8000298:	801a      	strh	r2, [r3, #0]
	  //HAL_UART_Transmit(&huart2, (uint8_t *)newline, 2, 10);

	  //TASK 3
	  //Test your ADCtoCRR function. Display CRR value via UART
	  crr_val = ADCtoCRR(adc_val);
 800029a:	4b1b      	ldr	r3, [pc, #108]	; (8000308 <main+0xd4>)
 800029c:	681b      	ldr	r3, [r3, #0]
 800029e:	0018      	movs	r0, r3
 80002a0:	f000 faa8 	bl	80007f4 <ADCtoCRR>
 80002a4:	0002      	movs	r2, r0
 80002a6:	4b1d      	ldr	r3, [pc, #116]	; (800031c <main+0xe8>)
 80002a8:	601a      	str	r2, [r3, #0]
	  // Test ADCtoCRR
	  //sprintf(buffer,"CRR value: %d \r\n",crr_val);
	  //HAL_UART_Transmit(&huart2, (uint8_t *)buffer, sizeof (buffer), 1000);

	  duty_Cycle = (crr_val*100)/47999;
 80002aa:	4b1c      	ldr	r3, [pc, #112]	; (800031c <main+0xe8>)
 80002ac:	681b      	ldr	r3, [r3, #0]
 80002ae:	2264      	movs	r2, #100	; 0x64
 80002b0:	4353      	muls	r3, r2
 80002b2:	491b      	ldr	r1, [pc, #108]	; (8000320 <main+0xec>)
 80002b4:	0018      	movs	r0, r3
 80002b6:	f7ff ff31 	bl	800011c <__udivsi3>
 80002ba:	0003      	movs	r3, r0
 80002bc:	001a      	movs	r2, r3
 80002be:	4b19      	ldr	r3, [pc, #100]	; (8000324 <main+0xf0>)
 80002c0:	601a      	str	r2, [r3, #0]
	  __HAL_TIM_SET_COMPARE(&htim3,TIM_CHANNEL_4,crr_val);
 80002c2:	4b0f      	ldr	r3, [pc, #60]	; (8000300 <main+0xcc>)
 80002c4:	681b      	ldr	r3, [r3, #0]
 80002c6:	4a15      	ldr	r2, [pc, #84]	; (800031c <main+0xe8>)
 80002c8:	6812      	ldr	r2, [r2, #0]
 80002ca:	641a      	str	r2, [r3, #64]	; 0x40

	  //TASK 4
	  //Complete rest of implementation
	  sprintf(buffer,"Duty Cycle: %d \r\n",duty_Cycle);
 80002cc:	4b15      	ldr	r3, [pc, #84]	; (8000324 <main+0xf0>)
 80002ce:	681a      	ldr	r2, [r3, #0]
 80002d0:	4915      	ldr	r1, [pc, #84]	; (8000328 <main+0xf4>)
 80002d2:	4b0f      	ldr	r3, [pc, #60]	; (8000310 <main+0xdc>)
 80002d4:	0018      	movs	r0, r3
 80002d6:	f004 f9e9 	bl	80046ac <siprintf>
	  HAL_UART_Transmit(&huart2, (uint8_t *)buffer, sizeof (buffer), 1000);
 80002da:	23fa      	movs	r3, #250	; 0xfa
 80002dc:	009b      	lsls	r3, r3, #2
 80002de:	490c      	ldr	r1, [pc, #48]	; (8000310 <main+0xdc>)
 80002e0:	480c      	ldr	r0, [pc, #48]	; (8000314 <main+0xe0>)
 80002e2:	2240      	movs	r2, #64	; 0x40
 80002e4:	f003 fa66 	bl	80037b4 <HAL_UART_Transmit>
	  HAL_UART_Transmit(&huart2, (uint8_t *)newline, 2, 10);
 80002e8:	1d39      	adds	r1, r7, #4
 80002ea:	480a      	ldr	r0, [pc, #40]	; (8000314 <main+0xe0>)
 80002ec:	230a      	movs	r3, #10
 80002ee:	2202      	movs	r2, #2
 80002f0:	f003 fa60 	bl	80037b4 <HAL_UART_Transmit>

	  HAL_Delay (delay); // wait for 500 ms
 80002f4:	4b0d      	ldr	r3, [pc, #52]	; (800032c <main+0xf8>)
 80002f6:	881b      	ldrh	r3, [r3, #0]
 80002f8:	0018      	movs	r0, r3
 80002fa:	f000 fd1d 	bl	8000d38 <HAL_Delay>
  {
 80002fe:	e7af      	b.n	8000260 <main+0x2c>
 8000300:	20000114 	.word	0x20000114
 8000304:	48000800 	.word	0x48000800
 8000308:	20000268 	.word	0x20000268
 800030c:	08004f98 	.word	0x08004f98
 8000310:	20000224 	.word	0x20000224
 8000314:	2000015c 	.word	0x2000015c
 8000318:	00000a0d 	.word	0x00000a0d
 800031c:	2000026c 	.word	0x2000026c
 8000320:	0000bb7f 	.word	0x0000bb7f
 8000324:	20000270 	.word	0x20000270
 8000328:	08004fac 	.word	0x08004fac
 800032c:	20000000 	.word	0x20000000

08000330 <SystemClock_Config>:
/**
  * @brief System Clock Configuration
  * @retval None
  */
void SystemClock_Config(void)
{
 8000330:	b590      	push	{r4, r7, lr}
 8000332:	b091      	sub	sp, #68	; 0x44
 8000334:	af00      	add	r7, sp, #0
  RCC_OscInitTypeDef RCC_OscInitStruct = {0};
 8000336:	2410      	movs	r4, #16
 8000338:	193b      	adds	r3, r7, r4
 800033a:	0018      	movs	r0, r3
 800033c:	2330      	movs	r3, #48	; 0x30
 800033e:	001a      	movs	r2, r3
 8000340:	2100      	movs	r1, #0
 8000342:	f004 f9ab 	bl	800469c <memset>
  RCC_ClkInitTypeDef RCC_ClkInitStruct = {0};
 8000346:	003b      	movs	r3, r7
 8000348:	0018      	movs	r0, r3
 800034a:	2310      	movs	r3, #16
 800034c:	001a      	movs	r2, r3
 800034e:	2100      	movs	r1, #0
 8000350:	f004 f9a4 	bl	800469c <memset>

  /** Initializes the RCC Oscillators according to the specified parameters
  * in the RCC_OscInitTypeDef structure.
  */
  RCC_OscInitStruct.OscillatorType = RCC_OSCILLATORTYPE_HSI|RCC_OSCILLATORTYPE_HSI14;
 8000354:	0021      	movs	r1, r4
 8000356:	187b      	adds	r3, r7, r1
 8000358:	2212      	movs	r2, #18
 800035a:	601a      	str	r2, [r3, #0]
  RCC_OscInitStruct.HSIState = RCC_HSI_ON;
 800035c:	187b      	adds	r3, r7, r1
 800035e:	2201      	movs	r2, #1
 8000360:	60da      	str	r2, [r3, #12]
  RCC_OscInitStruct.HSI14State = RCC_HSI14_ON;
 8000362:	187b      	adds	r3, r7, r1
 8000364:	2201      	movs	r2, #1
 8000366:	615a      	str	r2, [r3, #20]
  RCC_OscInitStruct.HSICalibrationValue = RCC_HSICALIBRATION_DEFAULT;
 8000368:	187b      	adds	r3, r7, r1
 800036a:	2210      	movs	r2, #16
 800036c:	611a      	str	r2, [r3, #16]
  RCC_OscInitStruct.HSI14CalibrationValue = 16;
 800036e:	187b      	adds	r3, r7, r1
 8000370:	2210      	movs	r2, #16
 8000372:	619a      	str	r2, [r3, #24]
  RCC_OscInitStruct.PLL.PLLState = RCC_PLL_ON;
 8000374:	187b      	adds	r3, r7, r1
 8000376:	2202      	movs	r2, #2
 8000378:	621a      	str	r2, [r3, #32]
  RCC_OscInitStruct.PLL.PLLSource = RCC_PLLSOURCE_HSI;
 800037a:	187b      	adds	r3, r7, r1
 800037c:	2200      	movs	r2, #0
 800037e:	625a      	str	r2, [r3, #36]	; 0x24
  RCC_OscInitStruct.PLL.PLLMUL = RCC_PLL_MUL12;
 8000380:	187b      	adds	r3, r7, r1
 8000382:	22a0      	movs	r2, #160	; 0xa0
 8000384:	0392      	lsls	r2, r2, #14
 8000386:	629a      	str	r2, [r3, #40]	; 0x28
  RCC_OscInitStruct.PLL.PREDIV = RCC_PREDIV_DIV1;
 8000388:	187b      	adds	r3, r7, r1
 800038a:	2200      	movs	r2, #0
 800038c:	62da      	str	r2, [r3, #44]	; 0x2c
  if (HAL_RCC_OscConfig(&RCC_OscInitStruct) != HAL_OK)
 800038e:	187b      	adds	r3, r7, r1
 8000390:	0018      	movs	r0, r3
 8000392:	f001 febd 	bl	8002110 <HAL_RCC_OscConfig>
 8000396:	1e03      	subs	r3, r0, #0
 8000398:	d001      	beq.n	800039e <SystemClock_Config+0x6e>
  {
    Error_Handler();
 800039a:	f000 fa3b 	bl	8000814 <Error_Handler>
  }

  /** Initializes the CPU, AHB and APB buses clocks
  */
  RCC_ClkInitStruct.ClockType = RCC_CLOCKTYPE_HCLK|RCC_CLOCKTYPE_SYSCLK
 800039e:	003b      	movs	r3, r7
 80003a0:	2207      	movs	r2, #7
 80003a2:	601a      	str	r2, [r3, #0]
                              |RCC_CLOCKTYPE_PCLK1;
  RCC_ClkInitStruct.SYSCLKSource = RCC_SYSCLKSOURCE_PLLCLK;
 80003a4:	003b      	movs	r3, r7
 80003a6:	2202      	movs	r2, #2
 80003a8:	605a      	str	r2, [r3, #4]
  RCC_ClkInitStruct.AHBCLKDivider = RCC_SYSCLK_DIV1;
 80003aa:	003b      	movs	r3, r7
 80003ac:	2200      	movs	r2, #0
 80003ae:	609a      	str	r2, [r3, #8]
  RCC_ClkInitStruct.APB1CLKDivider = RCC_HCLK_DIV1;
 80003b0:	003b      	movs	r3, r7
 80003b2:	2200      	movs	r2, #0
 80003b4:	60da      	str	r2, [r3, #12]

  if (HAL_RCC_ClockConfig(&RCC_ClkInitStruct, FLASH_LATENCY_1) != HAL_OK)
 80003b6:	003b      	movs	r3, r7
 80003b8:	2101      	movs	r1, #1
 80003ba:	0018      	movs	r0, r3
 80003bc:	f002 f9c2 	bl	8002744 <HAL_RCC_ClockConfig>
 80003c0:	1e03      	subs	r3, r0, #0
 80003c2:	d001      	beq.n	80003c8 <SystemClock_Config+0x98>
  {
    Error_Handler();
 80003c4:	f000 fa26 	bl	8000814 <Error_Handler>
  }
}
 80003c8:	46c0      	nop			; (mov r8, r8)
 80003ca:	46bd      	mov	sp, r7
 80003cc:	b011      	add	sp, #68	; 0x44
 80003ce:	bd90      	pop	{r4, r7, pc}

080003d0 <MX_ADC_Init>:
  * @brief ADC Initialization Function
  * @param None
  * @retval None
  */
static void MX_ADC_Init(void)
{
 80003d0:	b580      	push	{r7, lr}
 80003d2:	b084      	sub	sp, #16
 80003d4:	af00      	add	r7, sp, #0

  /* USER CODE BEGIN ADC_Init 0 */

  /* USER CODE END ADC_Init 0 */

  ADC_ChannelConfTypeDef sConfig = {0};
 80003d6:	1d3b      	adds	r3, r7, #4
 80003d8:	0018      	movs	r0, r3
 80003da:	230c      	movs	r3, #12
 80003dc:	001a      	movs	r2, r3
 80003de:	2100      	movs	r1, #0
 80003e0:	f004 f95c 	bl	800469c <memset>

  /* USER CODE END ADC_Init 1 */

  /** Configure the global features of the ADC (Clock, Resolution, Data Alignment and number of conversion)
  */
  hadc.Instance = ADC1;
 80003e4:	4b26      	ldr	r3, [pc, #152]	; (8000480 <MX_ADC_Init+0xb0>)
 80003e6:	4a27      	ldr	r2, [pc, #156]	; (8000484 <MX_ADC_Init+0xb4>)
 80003e8:	601a      	str	r2, [r3, #0]
  hadc.Init.ClockPrescaler = ADC_CLOCK_ASYNC_DIV1;
 80003ea:	4b25      	ldr	r3, [pc, #148]	; (8000480 <MX_ADC_Init+0xb0>)
 80003ec:	2200      	movs	r2, #0
 80003ee:	605a      	str	r2, [r3, #4]
  hadc.Init.Resolution = ADC_RESOLUTION_12B;
 80003f0:	4b23      	ldr	r3, [pc, #140]	; (8000480 <MX_ADC_Init+0xb0>)
 80003f2:	2200      	movs	r2, #0
 80003f4:	609a      	str	r2, [r3, #8]
  hadc.Init.DataAlign = ADC_DATAALIGN_RIGHT;
 80003f6:	4b22      	ldr	r3, [pc, #136]	; (8000480 <MX_ADC_Init+0xb0>)
 80003f8:	2200      	movs	r2, #0
 80003fa:	60da      	str	r2, [r3, #12]
  hadc.Init.ScanConvMode = ADC_SCAN_DIRECTION_FORWARD;
 80003fc:	4b20      	ldr	r3, [pc, #128]	; (8000480 <MX_ADC_Init+0xb0>)
 80003fe:	2201      	movs	r2, #1
 8000400:	611a      	str	r2, [r3, #16]
  hadc.Init.EOCSelection = ADC_EOC_SINGLE_CONV;
 8000402:	4b1f      	ldr	r3, [pc, #124]	; (8000480 <MX_ADC_Init+0xb0>)
 8000404:	2204      	movs	r2, #4
 8000406:	615a      	str	r2, [r3, #20]
  hadc.Init.LowPowerAutoWait = DISABLE;
 8000408:	4b1d      	ldr	r3, [pc, #116]	; (8000480 <MX_ADC_Init+0xb0>)
 800040a:	2200      	movs	r2, #0
 800040c:	761a      	strb	r2, [r3, #24]
  hadc.Init.LowPowerAutoPowerOff = DISABLE;
 800040e:	4b1c      	ldr	r3, [pc, #112]	; (8000480 <MX_ADC_Init+0xb0>)
 8000410:	2200      	movs	r2, #0
 8000412:	765a      	strb	r2, [r3, #25]
  hadc.Init.ContinuousConvMode = DISABLE;
 8000414:	4b1a      	ldr	r3, [pc, #104]	; (8000480 <MX_ADC_Init+0xb0>)
 8000416:	2200      	movs	r2, #0
 8000418:	769a      	strb	r2, [r3, #26]
  hadc.Init.DiscontinuousConvMode = DISABLE;
 800041a:	4b19      	ldr	r3, [pc, #100]	; (8000480 <MX_ADC_Init+0xb0>)
 800041c:	2200      	movs	r2, #0
 800041e:	76da      	strb	r2, [r3, #27]
  hadc.Init.ExternalTrigConv = ADC_SOFTWARE_START;
 8000420:	4b17      	ldr	r3, [pc, #92]	; (8000480 <MX_ADC_Init+0xb0>)
 8000422:	22c2      	movs	r2, #194	; 0xc2
 8000424:	32ff      	adds	r2, #255	; 0xff
 8000426:	61da      	str	r2, [r3, #28]
  hadc.Init.ExternalTrigConvEdge = ADC_EXTERNALTRIGCONVEDGE_NONE;
 8000428:	4b15      	ldr	r3, [pc, #84]	; (8000480 <MX_ADC_Init+0xb0>)
 800042a:	2200      	movs	r2, #0
 800042c:	621a      	str	r2, [r3, #32]
  hadc.Init.DMAContinuousRequests = DISABLE;
 800042e:	4b14      	ldr	r3, [pc, #80]	; (8000480 <MX_ADC_Init+0xb0>)
 8000430:	2224      	movs	r2, #36	; 0x24
 8000432:	2100      	movs	r1, #0
 8000434:	5499      	strb	r1, [r3, r2]
  hadc.Init.Overrun = ADC_OVR_DATA_PRESERVED;
 8000436:	4b12      	ldr	r3, [pc, #72]	; (8000480 <MX_ADC_Init+0xb0>)
 8000438:	2201      	movs	r2, #1
 800043a:	629a      	str	r2, [r3, #40]	; 0x28
  if (HAL_ADC_Init(&hadc) != HAL_OK)
 800043c:	4b10      	ldr	r3, [pc, #64]	; (8000480 <MX_ADC_Init+0xb0>)
 800043e:	0018      	movs	r0, r3
 8000440:	f000 fc9e 	bl	8000d80 <HAL_ADC_Init>
 8000444:	1e03      	subs	r3, r0, #0
 8000446:	d001      	beq.n	800044c <MX_ADC_Init+0x7c>
  {
    Error_Handler();
 8000448:	f000 f9e4 	bl	8000814 <Error_Handler>
  }

  /** Configure for the selected ADC regular channel to be converted.
  */
  sConfig.Channel = ADC_CHANNEL_7;
 800044c:	1d3b      	adds	r3, r7, #4
 800044e:	2207      	movs	r2, #7
 8000450:	601a      	str	r2, [r3, #0]
  sConfig.Rank = ADC_RANK_CHANNEL_NUMBER;
 8000452:	1d3b      	adds	r3, r7, #4
 8000454:	2280      	movs	r2, #128	; 0x80
 8000456:	0152      	lsls	r2, r2, #5
 8000458:	605a      	str	r2, [r3, #4]
  sConfig.SamplingTime = ADC_SAMPLETIME_1CYCLE_5;
 800045a:	1d3b      	adds	r3, r7, #4
 800045c:	2280      	movs	r2, #128	; 0x80
 800045e:	0552      	lsls	r2, r2, #21
 8000460:	609a      	str	r2, [r3, #8]
  if (HAL_ADC_ConfigChannel(&hadc, &sConfig) != HAL_OK)
 8000462:	1d3a      	adds	r2, r7, #4
 8000464:	4b06      	ldr	r3, [pc, #24]	; (8000480 <MX_ADC_Init+0xb0>)
 8000466:	0011      	movs	r1, r2
 8000468:	0018      	movs	r0, r3
 800046a:	f000 ffd1 	bl	8001410 <HAL_ADC_ConfigChannel>
 800046e:	1e03      	subs	r3, r0, #0
 8000470:	d001      	beq.n	8000476 <MX_ADC_Init+0xa6>
  {
    Error_Handler();
 8000472:	f000 f9cf 	bl	8000814 <Error_Handler>
  }
  /* USER CODE BEGIN ADC_Init 2 */

  /* USER CODE END ADC_Init 2 */

}
 8000476:	46c0      	nop			; (mov r8, r8)
 8000478:	46bd      	mov	sp, r7
 800047a:	b004      	add	sp, #16
 800047c:	bd80      	pop	{r7, pc}
 800047e:	46c0      	nop			; (mov r8, r8)
 8000480:	20000090 	.word	0x20000090
 8000484:	40012400 	.word	0x40012400

08000488 <MX_TIM3_Init>:
  * @brief TIM3 Initialization Function
  * @param None
  * @retval None
  */
static void MX_TIM3_Init(void)
{
 8000488:	b580      	push	{r7, lr}
 800048a:	b08e      	sub	sp, #56	; 0x38
 800048c:	af00      	add	r7, sp, #0

  /* USER CODE BEGIN TIM3_Init 0 */

  /* USER CODE END TIM3_Init 0 */

  TIM_ClockConfigTypeDef sClockSourceConfig = {0};
 800048e:	2328      	movs	r3, #40	; 0x28
 8000490:	18fb      	adds	r3, r7, r3
 8000492:	0018      	movs	r0, r3
 8000494:	2310      	movs	r3, #16
 8000496:	001a      	movs	r2, r3
 8000498:	2100      	movs	r1, #0
 800049a:	f004 f8ff 	bl	800469c <memset>
  TIM_MasterConfigTypeDef sMasterConfig = {0};
 800049e:	2320      	movs	r3, #32
 80004a0:	18fb      	adds	r3, r7, r3
 80004a2:	0018      	movs	r0, r3
 80004a4:	2308      	movs	r3, #8
 80004a6:	001a      	movs	r2, r3
 80004a8:	2100      	movs	r1, #0
 80004aa:	f004 f8f7 	bl	800469c <memset>
  TIM_OC_InitTypeDef sConfigOC = {0};
 80004ae:	1d3b      	adds	r3, r7, #4
 80004b0:	0018      	movs	r0, r3
 80004b2:	231c      	movs	r3, #28
 80004b4:	001a      	movs	r2, r3
 80004b6:	2100      	movs	r1, #0
 80004b8:	f004 f8f0 	bl	800469c <memset>

  /* USER CODE BEGIN TIM3_Init 1 */

  /* USER CODE END TIM3_Init 1 */
  htim3.Instance = TIM3;
 80004bc:	4b2f      	ldr	r3, [pc, #188]	; (800057c <MX_TIM3_Init+0xf4>)
 80004be:	4a30      	ldr	r2, [pc, #192]	; (8000580 <MX_TIM3_Init+0xf8>)
 80004c0:	601a      	str	r2, [r3, #0]
  htim3.Init.Prescaler = 0;
 80004c2:	4b2e      	ldr	r3, [pc, #184]	; (800057c <MX_TIM3_Init+0xf4>)
 80004c4:	2200      	movs	r2, #0
 80004c6:	605a      	str	r2, [r3, #4]
  htim3.Init.CounterMode = TIM_COUNTERMODE_UP;
 80004c8:	4b2c      	ldr	r3, [pc, #176]	; (800057c <MX_TIM3_Init+0xf4>)
 80004ca:	2200      	movs	r2, #0
 80004cc:	609a      	str	r2, [r3, #8]
  htim3.Init.Period = 47999;
 80004ce:	4b2b      	ldr	r3, [pc, #172]	; (800057c <MX_TIM3_Init+0xf4>)
 80004d0:	4a2c      	ldr	r2, [pc, #176]	; (8000584 <MX_TIM3_Init+0xfc>)
 80004d2:	60da      	str	r2, [r3, #12]
  htim3.Init.ClockDivision = TIM_CLOCKDIVISION_DIV1;
 80004d4:	4b29      	ldr	r3, [pc, #164]	; (800057c <MX_TIM3_Init+0xf4>)
 80004d6:	2200      	movs	r2, #0
 80004d8:	611a      	str	r2, [r3, #16]
  htim3.Init.AutoReloadPreload = TIM_AUTORELOAD_PRELOAD_ENABLE;
 80004da:	4b28      	ldr	r3, [pc, #160]	; (800057c <MX_TIM3_Init+0xf4>)
 80004dc:	2280      	movs	r2, #128	; 0x80
 80004de:	619a      	str	r2, [r3, #24]
  if (HAL_TIM_Base_Init(&htim3) != HAL_OK)
 80004e0:	4b26      	ldr	r3, [pc, #152]	; (800057c <MX_TIM3_Init+0xf4>)
 80004e2:	0018      	movs	r0, r3
 80004e4:	f002 fa80 	bl	80029e8 <HAL_TIM_Base_Init>
 80004e8:	1e03      	subs	r3, r0, #0
 80004ea:	d001      	beq.n	80004f0 <MX_TIM3_Init+0x68>
  {
    Error_Handler();
 80004ec:	f000 f992 	bl	8000814 <Error_Handler>
  }
  sClockSourceConfig.ClockSource = TIM_CLOCKSOURCE_INTERNAL;
 80004f0:	2128      	movs	r1, #40	; 0x28
 80004f2:	187b      	adds	r3, r7, r1
 80004f4:	2280      	movs	r2, #128	; 0x80
 80004f6:	0152      	lsls	r2, r2, #5
 80004f8:	601a      	str	r2, [r3, #0]
  if (HAL_TIM_ConfigClockSource(&htim3, &sClockSourceConfig) != HAL_OK)
 80004fa:	187a      	adds	r2, r7, r1
 80004fc:	4b1f      	ldr	r3, [pc, #124]	; (800057c <MX_TIM3_Init+0xf4>)
 80004fe:	0011      	movs	r1, r2
 8000500:	0018      	movs	r0, r3
 8000502:	f002 fc97 	bl	8002e34 <HAL_TIM_ConfigClockSource>
 8000506:	1e03      	subs	r3, r0, #0
 8000508:	d001      	beq.n	800050e <MX_TIM3_Init+0x86>
  {
    Error_Handler();
 800050a:	f000 f983 	bl	8000814 <Error_Handler>
  }
  if (HAL_TIM_PWM_Init(&htim3) != HAL_OK)
 800050e:	4b1b      	ldr	r3, [pc, #108]	; (800057c <MX_TIM3_Init+0xf4>)
 8000510:	0018      	movs	r0, r3
 8000512:	f002 fab9 	bl	8002a88 <HAL_TIM_PWM_Init>
 8000516:	1e03      	subs	r3, r0, #0
 8000518:	d001      	beq.n	800051e <MX_TIM3_Init+0x96>
  {
    Error_Handler();
 800051a:	f000 f97b 	bl	8000814 <Error_Handler>
  }
  sMasterConfig.MasterOutputTrigger = TIM_TRGO_RESET;
 800051e:	2120      	movs	r1, #32
 8000520:	187b      	adds	r3, r7, r1
 8000522:	2200      	movs	r2, #0
 8000524:	601a      	str	r2, [r3, #0]
  sMasterConfig.MasterSlaveMode = TIM_MASTERSLAVEMODE_DISABLE;
 8000526:	187b      	adds	r3, r7, r1
 8000528:	2200      	movs	r2, #0
 800052a:	605a      	str	r2, [r3, #4]
  if (HAL_TIMEx_MasterConfigSynchronization(&htim3, &sMasterConfig) != HAL_OK)
 800052c:	187a      	adds	r2, r7, r1
 800052e:	4b13      	ldr	r3, [pc, #76]	; (800057c <MX_TIM3_Init+0xf4>)
 8000530:	0011      	movs	r1, r2
 8000532:	0018      	movs	r0, r3
 8000534:	f003 f88c 	bl	8003650 <HAL_TIMEx_MasterConfigSynchronization>
 8000538:	1e03      	subs	r3, r0, #0
 800053a:	d001      	beq.n	8000540 <MX_TIM3_Init+0xb8>
  {
    Error_Handler();
 800053c:	f000 f96a 	bl	8000814 <Error_Handler>
  }
  sConfigOC.OCMode = TIM_OCMODE_PWM1;
 8000540:	1d3b      	adds	r3, r7, #4
 8000542:	2260      	movs	r2, #96	; 0x60
 8000544:	601a      	str	r2, [r3, #0]
  sConfigOC.Pulse = 0;
 8000546:	1d3b      	adds	r3, r7, #4
 8000548:	2200      	movs	r2, #0
 800054a:	605a      	str	r2, [r3, #4]
  sConfigOC.OCPolarity = TIM_OCPOLARITY_HIGH;
 800054c:	1d3b      	adds	r3, r7, #4
 800054e:	2200      	movs	r2, #0
 8000550:	609a      	str	r2, [r3, #8]
  sConfigOC.OCFastMode = TIM_OCFAST_DISABLE;
 8000552:	1d3b      	adds	r3, r7, #4
 8000554:	2200      	movs	r2, #0
 8000556:	611a      	str	r2, [r3, #16]
  if (HAL_TIM_PWM_ConfigChannel(&htim3, &sConfigOC, TIM_CHANNEL_4) != HAL_OK)
 8000558:	1d39      	adds	r1, r7, #4
 800055a:	4b08      	ldr	r3, [pc, #32]	; (800057c <MX_TIM3_Init+0xf4>)
 800055c:	220c      	movs	r2, #12
 800055e:	0018      	movs	r0, r3
 8000560:	f002 fba2 	bl	8002ca8 <HAL_TIM_PWM_ConfigChannel>
 8000564:	1e03      	subs	r3, r0, #0
 8000566:	d001      	beq.n	800056c <MX_TIM3_Init+0xe4>
  {
    Error_Handler();
 8000568:	f000 f954 	bl	8000814 <Error_Handler>
  }
  /* USER CODE BEGIN TIM3_Init 2 */

  /* USER CODE END TIM3_Init 2 */
  HAL_TIM_MspPostInit(&htim3);
 800056c:	4b03      	ldr	r3, [pc, #12]	; (800057c <MX_TIM3_Init+0xf4>)
 800056e:	0018      	movs	r0, r3
 8000570:	f000 fa12 	bl	8000998 <HAL_TIM_MspPostInit>

}
 8000574:	46c0      	nop			; (mov r8, r8)
 8000576:	46bd      	mov	sp, r7
 8000578:	b00e      	add	sp, #56	; 0x38
 800057a:	bd80      	pop	{r7, pc}
 800057c:	20000114 	.word	0x20000114
 8000580:	40000400 	.word	0x40000400
 8000584:	0000bb7f 	.word	0x0000bb7f

08000588 <MX_USART2_UART_Init>:
  * @brief USART2 Initialization Function
  * @param None
  * @retval None
  */
static void MX_USART2_UART_Init(void)
{
 8000588:	b580      	push	{r7, lr}
 800058a:	af00      	add	r7, sp, #0
  /* USER CODE END USART2_Init 0 */

  /* USER CODE BEGIN USART2_Init 1 */

  /* USER CODE END USART2_Init 1 */
  huart2.Instance = USART2;
 800058c:	4b14      	ldr	r3, [pc, #80]	; (80005e0 <MX_USART2_UART_Init+0x58>)
 800058e:	4a15      	ldr	r2, [pc, #84]	; (80005e4 <MX_USART2_UART_Init+0x5c>)
 8000590:	601a      	str	r2, [r3, #0]
  huart2.Init.BaudRate = 9600;
 8000592:	4b13      	ldr	r3, [pc, #76]	; (80005e0 <MX_USART2_UART_Init+0x58>)
 8000594:	2296      	movs	r2, #150	; 0x96
 8000596:	0192      	lsls	r2, r2, #6
 8000598:	605a      	str	r2, [r3, #4]
  huart2.Init.WordLength = UART_WORDLENGTH_8B;
 800059a:	4b11      	ldr	r3, [pc, #68]	; (80005e0 <MX_USART2_UART_Init+0x58>)
 800059c:	2200      	movs	r2, #0
 800059e:	609a      	str	r2, [r3, #8]
  huart2.Init.StopBits = UART_STOPBITS_1;
 80005a0:	4b0f      	ldr	r3, [pc, #60]	; (80005e0 <MX_USART2_UART_Init+0x58>)
 80005a2:	2200      	movs	r2, #0
 80005a4:	60da      	str	r2, [r3, #12]
  huart2.Init.Parity = UART_PARITY_NONE;
 80005a6:	4b0e      	ldr	r3, [pc, #56]	; (80005e0 <MX_USART2_UART_Init+0x58>)
 80005a8:	2200      	movs	r2, #0
 80005aa:	611a      	str	r2, [r3, #16]
  huart2.Init.Mode = UART_MODE_TX_RX;
 80005ac:	4b0c      	ldr	r3, [pc, #48]	; (80005e0 <MX_USART2_UART_Init+0x58>)
 80005ae:	220c      	movs	r2, #12
 80005b0:	615a      	str	r2, [r3, #20]
  huart2.Init.HwFlowCtl = UART_HWCONTROL_NONE;
 80005b2:	4b0b      	ldr	r3, [pc, #44]	; (80005e0 <MX_USART2_UART_Init+0x58>)
 80005b4:	2200      	movs	r2, #0
 80005b6:	619a      	str	r2, [r3, #24]
  huart2.Init.OverSampling = UART_OVERSAMPLING_16;
 80005b8:	4b09      	ldr	r3, [pc, #36]	; (80005e0 <MX_USART2_UART_Init+0x58>)
 80005ba:	2200      	movs	r2, #0
 80005bc:	61da      	str	r2, [r3, #28]
  huart2.Init.OneBitSampling = UART_ONE_BIT_SAMPLE_DISABLE;
 80005be:	4b08      	ldr	r3, [pc, #32]	; (80005e0 <MX_USART2_UART_Init+0x58>)
 80005c0:	2200      	movs	r2, #0
 80005c2:	621a      	str	r2, [r3, #32]
  huart2.AdvancedInit.AdvFeatureInit = UART_ADVFEATURE_NO_INIT;
 80005c4:	4b06      	ldr	r3, [pc, #24]	; (80005e0 <MX_USART2_UART_Init+0x58>)
 80005c6:	2200      	movs	r2, #0
 80005c8:	625a      	str	r2, [r3, #36]	; 0x24
  if (HAL_UART_Init(&huart2) != HAL_OK)
 80005ca:	4b05      	ldr	r3, [pc, #20]	; (80005e0 <MX_USART2_UART_Init+0x58>)
 80005cc:	0018      	movs	r0, r3
 80005ce:	f003 f89d 	bl	800370c <HAL_UART_Init>
 80005d2:	1e03      	subs	r3, r0, #0
 80005d4:	d001      	beq.n	80005da <MX_USART2_UART_Init+0x52>
  {
    Error_Handler();
 80005d6:	f000 f91d 	bl	8000814 <Error_Handler>
  }
  /* USER CODE BEGIN USART2_Init 2 */

  /* USER CODE END USART2_Init 2 */

}
 80005da:	46c0      	nop			; (mov r8, r8)
 80005dc:	46bd      	mov	sp, r7
 80005de:	bd80      	pop	{r7, pc}
 80005e0:	2000015c 	.word	0x2000015c
 80005e4:	40004400 	.word	0x40004400

080005e8 <MX_DMA_Init>:

/**
  * Enable DMA controller clock
  */
static void MX_DMA_Init(void)
{
 80005e8:	b580      	push	{r7, lr}
 80005ea:	b082      	sub	sp, #8
 80005ec:	af00      	add	r7, sp, #0

  /* DMA controller clock enable */
  __HAL_RCC_DMA1_CLK_ENABLE();
 80005ee:	4b10      	ldr	r3, [pc, #64]	; (8000630 <MX_DMA_Init+0x48>)
 80005f0:	695a      	ldr	r2, [r3, #20]
 80005f2:	4b0f      	ldr	r3, [pc, #60]	; (8000630 <MX_DMA_Init+0x48>)
 80005f4:	2101      	movs	r1, #1
 80005f6:	430a      	orrs	r2, r1
 80005f8:	615a      	str	r2, [r3, #20]
 80005fa:	4b0d      	ldr	r3, [pc, #52]	; (8000630 <MX_DMA_Init+0x48>)
 80005fc:	695b      	ldr	r3, [r3, #20]
 80005fe:	2201      	movs	r2, #1
 8000600:	4013      	ands	r3, r2
 8000602:	607b      	str	r3, [r7, #4]
 8000604:	687b      	ldr	r3, [r7, #4]

  /* DMA interrupt init */
  /* DMA1_Channel1_IRQn interrupt configuration */
  HAL_NVIC_SetPriority(DMA1_Channel1_IRQn, 0, 0);
 8000606:	2200      	movs	r2, #0
 8000608:	2100      	movs	r1, #0
 800060a:	2009      	movs	r0, #9
 800060c:	f001 f9fc 	bl	8001a08 <HAL_NVIC_SetPriority>
  HAL_NVIC_EnableIRQ(DMA1_Channel1_IRQn);
 8000610:	2009      	movs	r0, #9
 8000612:	f001 fa0e 	bl	8001a32 <HAL_NVIC_EnableIRQ>
  /* DMA1_Channel4_5_IRQn interrupt configuration */
  HAL_NVIC_SetPriority(DMA1_Channel4_5_IRQn, 0, 0);
 8000616:	2200      	movs	r2, #0
 8000618:	2100      	movs	r1, #0
 800061a:	200b      	movs	r0, #11
 800061c:	f001 f9f4 	bl	8001a08 <HAL_NVIC_SetPriority>
  HAL_NVIC_EnableIRQ(DMA1_Channel4_5_IRQn);
 8000620:	200b      	movs	r0, #11
 8000622:	f001 fa06 	bl	8001a32 <HAL_NVIC_EnableIRQ>

}
 8000626:	46c0      	nop			; (mov r8, r8)
 8000628:	46bd      	mov	sp, r7
 800062a:	b002      	add	sp, #8
 800062c:	bd80      	pop	{r7, pc}
 800062e:	46c0      	nop			; (mov r8, r8)
 8000630:	40021000 	.word	0x40021000

08000634 <MX_GPIO_Init>:
  * @brief GPIO Initialization Function
  * @param None
  * @retval None
  */
static void MX_GPIO_Init(void)
{
 8000634:	b590      	push	{r4, r7, lr}
 8000636:	b08b      	sub	sp, #44	; 0x2c
 8000638:	af00      	add	r7, sp, #0
  GPIO_InitTypeDef GPIO_InitStruct = {0};
 800063a:	2414      	movs	r4, #20
 800063c:	193b      	adds	r3, r7, r4
 800063e:	0018      	movs	r0, r3
 8000640:	2314      	movs	r3, #20
 8000642:	001a      	movs	r2, r3
 8000644:	2100      	movs	r1, #0
 8000646:	f004 f829 	bl	800469c <memset>

  /* GPIO Ports Clock Enable */
  __HAL_RCC_GPIOF_CLK_ENABLE();
 800064a:	4b43      	ldr	r3, [pc, #268]	; (8000758 <MX_GPIO_Init+0x124>)
 800064c:	695a      	ldr	r2, [r3, #20]
 800064e:	4b42      	ldr	r3, [pc, #264]	; (8000758 <MX_GPIO_Init+0x124>)
 8000650:	2180      	movs	r1, #128	; 0x80
 8000652:	03c9      	lsls	r1, r1, #15
 8000654:	430a      	orrs	r2, r1
 8000656:	615a      	str	r2, [r3, #20]
 8000658:	4b3f      	ldr	r3, [pc, #252]	; (8000758 <MX_GPIO_Init+0x124>)
 800065a:	695a      	ldr	r2, [r3, #20]
 800065c:	2380      	movs	r3, #128	; 0x80
 800065e:	03db      	lsls	r3, r3, #15
 8000660:	4013      	ands	r3, r2
 8000662:	613b      	str	r3, [r7, #16]
 8000664:	693b      	ldr	r3, [r7, #16]
  __HAL_RCC_GPIOA_CLK_ENABLE();
 8000666:	4b3c      	ldr	r3, [pc, #240]	; (8000758 <MX_GPIO_Init+0x124>)
 8000668:	695a      	ldr	r2, [r3, #20]
 800066a:	4b3b      	ldr	r3, [pc, #236]	; (8000758 <MX_GPIO_Init+0x124>)
 800066c:	2180      	movs	r1, #128	; 0x80
 800066e:	0289      	lsls	r1, r1, #10
 8000670:	430a      	orrs	r2, r1
 8000672:	615a      	str	r2, [r3, #20]
 8000674:	4b38      	ldr	r3, [pc, #224]	; (8000758 <MX_GPIO_Init+0x124>)
 8000676:	695a      	ldr	r2, [r3, #20]
 8000678:	2380      	movs	r3, #128	; 0x80
 800067a:	029b      	lsls	r3, r3, #10
 800067c:	4013      	ands	r3, r2
 800067e:	60fb      	str	r3, [r7, #12]
 8000680:	68fb      	ldr	r3, [r7, #12]
  __HAL_RCC_GPIOC_CLK_ENABLE();
 8000682:	4b35      	ldr	r3, [pc, #212]	; (8000758 <MX_GPIO_Init+0x124>)
 8000684:	695a      	ldr	r2, [r3, #20]
 8000686:	4b34      	ldr	r3, [pc, #208]	; (8000758 <MX_GPIO_Init+0x124>)
 8000688:	2180      	movs	r1, #128	; 0x80
 800068a:	0309      	lsls	r1, r1, #12
 800068c:	430a      	orrs	r2, r1
 800068e:	615a      	str	r2, [r3, #20]
 8000690:	4b31      	ldr	r3, [pc, #196]	; (8000758 <MX_GPIO_Init+0x124>)
 8000692:	695a      	ldr	r2, [r3, #20]
 8000694:	2380      	movs	r3, #128	; 0x80
 8000696:	031b      	lsls	r3, r3, #12
 8000698:	4013      	ands	r3, r2
 800069a:	60bb      	str	r3, [r7, #8]
 800069c:	68bb      	ldr	r3, [r7, #8]
  __HAL_RCC_GPIOB_CLK_ENABLE();
 800069e:	4b2e      	ldr	r3, [pc, #184]	; (8000758 <MX_GPIO_Init+0x124>)
 80006a0:	695a      	ldr	r2, [r3, #20]
 80006a2:	4b2d      	ldr	r3, [pc, #180]	; (8000758 <MX_GPIO_Init+0x124>)
 80006a4:	2180      	movs	r1, #128	; 0x80
 80006a6:	02c9      	lsls	r1, r1, #11
 80006a8:	430a      	orrs	r2, r1
 80006aa:	615a      	str	r2, [r3, #20]
 80006ac:	4b2a      	ldr	r3, [pc, #168]	; (8000758 <MX_GPIO_Init+0x124>)
 80006ae:	695a      	ldr	r2, [r3, #20]
 80006b0:	2380      	movs	r3, #128	; 0x80
 80006b2:	02db      	lsls	r3, r3, #11
 80006b4:	4013      	ands	r3, r2
 80006b6:	607b      	str	r3, [r7, #4]
 80006b8:	687b      	ldr	r3, [r7, #4]

  /*Configure GPIO pin Output Level */
  HAL_GPIO_WritePin(LD4_GPIO_Port, LD4_Pin, GPIO_PIN_RESET);
 80006ba:	2380      	movs	r3, #128	; 0x80
 80006bc:	005b      	lsls	r3, r3, #1
 80006be:	4827      	ldr	r0, [pc, #156]	; (800075c <MX_GPIO_Init+0x128>)
 80006c0:	2200      	movs	r2, #0
 80006c2:	0019      	movs	r1, r3
 80006c4:	f001 fcc6 	bl	8002054 <HAL_GPIO_WritePin>

  /*Configure GPIO pin : B1_Pin */
  GPIO_InitStruct.Pin = B1_Pin;
 80006c8:	193b      	adds	r3, r7, r4
 80006ca:	2201      	movs	r2, #1
 80006cc:	601a      	str	r2, [r3, #0]
  GPIO_InitStruct.Mode = GPIO_MODE_IT_FALLING;
 80006ce:	193b      	adds	r3, r7, r4
 80006d0:	2284      	movs	r2, #132	; 0x84
 80006d2:	0392      	lsls	r2, r2, #14
 80006d4:	605a      	str	r2, [r3, #4]
  GPIO_InitStruct.Pull = GPIO_NOPULL;
 80006d6:	193b      	adds	r3, r7, r4
 80006d8:	2200      	movs	r2, #0
 80006da:	609a      	str	r2, [r3, #8]
  HAL_GPIO_Init(B1_GPIO_Port, &GPIO_InitStruct);
 80006dc:	193a      	adds	r2, r7, r4
 80006de:	2390      	movs	r3, #144	; 0x90
 80006e0:	05db      	lsls	r3, r3, #23
 80006e2:	0011      	movs	r1, r2
 80006e4:	0018      	movs	r0, r3
 80006e6:	f001 fb45 	bl	8001d74 <HAL_GPIO_Init>

  /*Configure GPIO pin : LD4_Pin */
  GPIO_InitStruct.Pin = LD4_Pin;
 80006ea:	0021      	movs	r1, r4
 80006ec:	187b      	adds	r3, r7, r1
 80006ee:	2280      	movs	r2, #128	; 0x80
 80006f0:	0052      	lsls	r2, r2, #1
 80006f2:	601a      	str	r2, [r3, #0]
  GPIO_InitStruct.Mode = GPIO_MODE_OUTPUT_PP;
 80006f4:	000c      	movs	r4, r1
 80006f6:	193b      	adds	r3, r7, r4
 80006f8:	2201      	movs	r2, #1
 80006fa:	605a      	str	r2, [r3, #4]
  GPIO_InitStruct.Pull = GPIO_NOPULL;
 80006fc:	193b      	adds	r3, r7, r4
 80006fe:	2200      	movs	r2, #0
 8000700:	609a      	str	r2, [r3, #8]
  GPIO_InitStruct.Speed = GPIO_SPEED_FREQ_LOW;
 8000702:	193b      	adds	r3, r7, r4
 8000704:	2200      	movs	r2, #0
 8000706:	60da      	str	r2, [r3, #12]
  HAL_GPIO_Init(LD4_GPIO_Port, &GPIO_InitStruct);
 8000708:	193b      	adds	r3, r7, r4
 800070a:	4a14      	ldr	r2, [pc, #80]	; (800075c <MX_GPIO_Init+0x128>)
 800070c:	0019      	movs	r1, r3
 800070e:	0010      	movs	r0, r2
 8000710:	f001 fb30 	bl	8001d74 <HAL_GPIO_Init>

  /*Configure GPIO pins : PB6 PB7 */
  GPIO_InitStruct.Pin = GPIO_PIN_6|GPIO_PIN_7;
 8000714:	0021      	movs	r1, r4
 8000716:	187b      	adds	r3, r7, r1
 8000718:	22c0      	movs	r2, #192	; 0xc0
 800071a:	601a      	str	r2, [r3, #0]
  GPIO_InitStruct.Mode = GPIO_MODE_AF_OD;
 800071c:	187b      	adds	r3, r7, r1
 800071e:	2212      	movs	r2, #18
 8000720:	605a      	str	r2, [r3, #4]
  GPIO_InitStruct.Pull = GPIO_NOPULL;
 8000722:	187b      	adds	r3, r7, r1
 8000724:	2200      	movs	r2, #0
 8000726:	609a      	str	r2, [r3, #8]
  GPIO_InitStruct.Speed = GPIO_SPEED_FREQ_HIGH;
 8000728:	187b      	adds	r3, r7, r1
 800072a:	2203      	movs	r2, #3
 800072c:	60da      	str	r2, [r3, #12]
  GPIO_InitStruct.Alternate = GPIO_AF1_I2C1;
 800072e:	187b      	adds	r3, r7, r1
 8000730:	2201      	movs	r2, #1
 8000732:	611a      	str	r2, [r3, #16]
  HAL_GPIO_Init(GPIOB, &GPIO_InitStruct);
 8000734:	187b      	adds	r3, r7, r1
 8000736:	4a0a      	ldr	r2, [pc, #40]	; (8000760 <MX_GPIO_Init+0x12c>)
 8000738:	0019      	movs	r1, r3
 800073a:	0010      	movs	r0, r2
 800073c:	f001 fb1a 	bl	8001d74 <HAL_GPIO_Init>

  /* EXTI interrupt init*/
  HAL_NVIC_SetPriority(EXTI0_1_IRQn, 0, 0);
 8000740:	2200      	movs	r2, #0
 8000742:	2100      	movs	r1, #0
 8000744:	2005      	movs	r0, #5
 8000746:	f001 f95f 	bl	8001a08 <HAL_NVIC_SetPriority>
  HAL_NVIC_EnableIRQ(EXTI0_1_IRQn);
 800074a:	2005      	movs	r0, #5
 800074c:	f001 f971 	bl	8001a32 <HAL_NVIC_EnableIRQ>

}
 8000750:	46c0      	nop			; (mov r8, r8)
 8000752:	46bd      	mov	sp, r7
 8000754:	b00b      	add	sp, #44	; 0x2c
 8000756:	bd90      	pop	{r4, r7, pc}
 8000758:	40021000 	.word	0x40021000
 800075c:	48000800 	.word	0x48000800
 8000760:	48000400 	.word	0x48000400

08000764 <EXTI0_1_IRQHandler>:

/* USER CODE BEGIN 4 */
void EXTI0_1_IRQHandler(void)
{
 8000764:	b580      	push	{r7, lr}
 8000766:	b082      	sub	sp, #8
 8000768:	af00      	add	r7, sp, #0
	//TO DO:
	//TASK 1
	//Switch delay frequency
	uint32_t tick_number =  HAL_GetTick(); //get number of ticks in milliseconds
 800076a:	f000 fadb 	bl	8000d24 <HAL_GetTick>
 800076e:	0003      	movs	r3, r0
 8000770:	607b      	str	r3, [r7, #4]

	if(((tick_number - de_bounce) > 100) && (B1_Pin == 1)){
 8000772:	4b0f      	ldr	r3, [pc, #60]	; (80007b0 <EXTI0_1_IRQHandler+0x4c>)
 8000774:	681b      	ldr	r3, [r3, #0]
 8000776:	687a      	ldr	r2, [r7, #4]
 8000778:	1ad3      	subs	r3, r2, r3
 800077a:	2b64      	cmp	r3, #100	; 0x64
 800077c:	d911      	bls.n	80007a2 <EXTI0_1_IRQHandler+0x3e>
		if(delay == 500){
 800077e:	4b0d      	ldr	r3, [pc, #52]	; (80007b4 <EXTI0_1_IRQHandler+0x50>)
 8000780:	881a      	ldrh	r2, [r3, #0]
 8000782:	23fa      	movs	r3, #250	; 0xfa
 8000784:	005b      	lsls	r3, r3, #1
 8000786:	429a      	cmp	r2, r3
 8000788:	d104      	bne.n	8000794 <EXTI0_1_IRQHandler+0x30>
			delay = 1000; //change delay value to 1 Hz
 800078a:	4b0a      	ldr	r3, [pc, #40]	; (80007b4 <EXTI0_1_IRQHandler+0x50>)
 800078c:	22fa      	movs	r2, #250	; 0xfa
 800078e:	0092      	lsls	r2, r2, #2
 8000790:	801a      	strh	r2, [r3, #0]
 8000792:	e003      	b.n	800079c <EXTI0_1_IRQHandler+0x38>

		}
		else{
			delay = 500; //revert back to 2 Hz
 8000794:	4b07      	ldr	r3, [pc, #28]	; (80007b4 <EXTI0_1_IRQHandler+0x50>)
 8000796:	22fa      	movs	r2, #250	; 0xfa
 8000798:	0052      	lsls	r2, r2, #1
 800079a:	801a      	strh	r2, [r3, #0]
		}
		de_bounce = tick_number;
 800079c:	4b04      	ldr	r3, [pc, #16]	; (80007b0 <EXTI0_1_IRQHandler+0x4c>)
 800079e:	687a      	ldr	r2, [r7, #4]
 80007a0:	601a      	str	r2, [r3, #0]
	}
	HAL_GPIO_EXTI_IRQHandler(B1_Pin); // Clear interrupt flags
 80007a2:	2001      	movs	r0, #1
 80007a4:	f001 fc8e 	bl	80020c4 <HAL_GPIO_EXTI_IRQHandler>
}
 80007a8:	46c0      	nop			; (mov r8, r8)
 80007aa:	46bd      	mov	sp, r7
 80007ac:	b002      	add	sp, #8
 80007ae:	bd80      	pop	{r7, pc}
 80007b0:	20000264 	.word	0x20000264
 80007b4:	20000000 	.word	0x20000000

080007b8 <pollADC>:

uint32_t pollADC(void){
 80007b8:	b580      	push	{r7, lr}
 80007ba:	b082      	sub	sp, #8
 80007bc:	af00      	add	r7, sp, #0
	//TO DO:
	//TASK 2
	// Complete the function body

	HAL_ADC_Start(&hadc); // Activate ADC and start conversion
 80007be:	4b0c      	ldr	r3, [pc, #48]	; (80007f0 <pollADC+0x38>)
 80007c0:	0018      	movs	r0, r3
 80007c2:	f000 fc1d 	bl	8001000 <HAL_ADC_Start>
	HAL_ADC_PollForConversion(&hadc, 100); // Wait for ADC conversion completion
 80007c6:	4b0a      	ldr	r3, [pc, #40]	; (80007f0 <pollADC+0x38>)
 80007c8:	2164      	movs	r1, #100	; 0x64
 80007ca:	0018      	movs	r0, r3
 80007cc:	f000 fcac 	bl	8001128 <HAL_ADC_PollForConversion>
	uint32_t val = HAL_ADC_GetValue(&hadc); // Retrieve result
 80007d0:	4b07      	ldr	r3, [pc, #28]	; (80007f0 <pollADC+0x38>)
 80007d2:	0018      	movs	r0, r3
 80007d4:	f000 fd40 	bl	8001258 <HAL_ADC_GetValue>
 80007d8:	0003      	movs	r3, r0
 80007da:	607b      	str	r3, [r7, #4]
	HAL_ADC_Stop(&hadc); // Stop and disable ADC
 80007dc:	4b04      	ldr	r3, [pc, #16]	; (80007f0 <pollADC+0x38>)
 80007de:	0018      	movs	r0, r3
 80007e0:	f000 fc62 	bl	80010a8 <HAL_ADC_Stop>

	return val;
 80007e4:	687b      	ldr	r3, [r7, #4]
}
 80007e6:	0018      	movs	r0, r3
 80007e8:	46bd      	mov	sp, r7
 80007ea:	b002      	add	sp, #8
 80007ec:	bd80      	pop	{r7, pc}
 80007ee:	46c0      	nop			; (mov r8, r8)
 80007f0:	20000090 	.word	0x20000090

080007f4 <ADCtoCRR>:

uint32_t ADCtoCRR(uint32_t adc_val){
 80007f4:	b580      	push	{r7, lr}
 80007f6:	b084      	sub	sp, #16
 80007f8:	af00      	add	r7, sp, #0
 80007fa:	6078      	str	r0, [r7, #4]
	//TASK 2
	// Complete the function body
	//HINT: The CRR value for 100% DC is 47999 (DC = CRR/ARR = CRR/47999)
	//HINT: The ADC range is approx 0 - 4095
	//HINT: Scale number from 0-4096 to 0 - 47999
	uint32_t val = (47999/4096) * adc_val;
 80007fc:	687a      	ldr	r2, [r7, #4]
 80007fe:	0013      	movs	r3, r2
 8000800:	009b      	lsls	r3, r3, #2
 8000802:	189b      	adds	r3, r3, r2
 8000804:	005b      	lsls	r3, r3, #1
 8000806:	189b      	adds	r3, r3, r2
 8000808:	60fb      	str	r3, [r7, #12]

	return val;
 800080a:	68fb      	ldr	r3, [r7, #12]
}
 800080c:	0018      	movs	r0, r3
 800080e:	46bd      	mov	sp, r7
 8000810:	b004      	add	sp, #16
 8000812:	bd80      	pop	{r7, pc}

08000814 <Error_Handler>:
/**
  * @brief  This function is executed in case of error occurrence.
  * @retval None
  */
void Error_Handler(void)
{
 8000814:	b580      	push	{r7, lr}
 8000816:	af00      	add	r7, sp, #0
  \details Disables IRQ interrupts by setting the I-bit in the CPSR.
           Can only be executed in Privileged modes.
 */
__STATIC_FORCEINLINE void __disable_irq(void)
{
  __ASM volatile ("cpsid i" : : : "memory");
 8000818:	b672      	cpsid	i
}
 800081a:	46c0      	nop			; (mov r8, r8)
  /* USER CODE BEGIN Error_Handler_Debug */
  /* User can add his own implementation to report the HAL error return state */
  __disable_irq();
  while (1)
 800081c:	e7fe      	b.n	800081c <Error_Handler+0x8>
	...

08000820 <HAL_MspInit>:
void HAL_TIM_MspPostInit(TIM_HandleTypeDef *htim);
                    /**
  * Initializes the Global MSP.
  */
void HAL_MspInit(void)
{
 8000820:	b580      	push	{r7, lr}
 8000822:	b082      	sub	sp, #8
 8000824:	af00      	add	r7, sp, #0
  /* USER CODE BEGIN MspInit 0 */

  /* USER CODE END MspInit 0 */

  __HAL_RCC_SYSCFG_CLK_ENABLE();
 8000826:	4b0f      	ldr	r3, [pc, #60]	; (8000864 <HAL_MspInit+0x44>)
 8000828:	699a      	ldr	r2, [r3, #24]
 800082a:	4b0e      	ldr	r3, [pc, #56]	; (8000864 <HAL_MspInit+0x44>)
 800082c:	2101      	movs	r1, #1
 800082e:	430a      	orrs	r2, r1
 8000830:	619a      	str	r2, [r3, #24]
 8000832:	4b0c      	ldr	r3, [pc, #48]	; (8000864 <HAL_MspInit+0x44>)
 8000834:	699b      	ldr	r3, [r3, #24]
 8000836:	2201      	movs	r2, #1
 8000838:	4013      	ands	r3, r2
 800083a:	607b      	str	r3, [r7, #4]
 800083c:	687b      	ldr	r3, [r7, #4]
  __HAL_RCC_PWR_CLK_ENABLE();
 800083e:	4b09      	ldr	r3, [pc, #36]	; (8000864 <HAL_MspInit+0x44>)
 8000840:	69da      	ldr	r2, [r3, #28]
 8000842:	4b08      	ldr	r3, [pc, #32]	; (8000864 <HAL_MspInit+0x44>)
 8000844:	2180      	movs	r1, #128	; 0x80
 8000846:	0549      	lsls	r1, r1, #21
 8000848:	430a      	orrs	r2, r1
 800084a:	61da      	str	r2, [r3, #28]
 800084c:	4b05      	ldr	r3, [pc, #20]	; (8000864 <HAL_MspInit+0x44>)
 800084e:	69da      	ldr	r2, [r3, #28]
 8000850:	2380      	movs	r3, #128	; 0x80
 8000852:	055b      	lsls	r3, r3, #21
 8000854:	4013      	ands	r3, r2
 8000856:	603b      	str	r3, [r7, #0]
 8000858:	683b      	ldr	r3, [r7, #0]
  /* System interrupt init*/

  /* USER CODE BEGIN MspInit 1 */

  /* USER CODE END MspInit 1 */
}
 800085a:	46c0      	nop			; (mov r8, r8)
 800085c:	46bd      	mov	sp, r7
 800085e:	b002      	add	sp, #8
 8000860:	bd80      	pop	{r7, pc}
 8000862:	46c0      	nop			; (mov r8, r8)
 8000864:	40021000 	.word	0x40021000

08000868 <HAL_ADC_MspInit>:
* This function configures the hardware resources used in this example
* @param hadc: ADC handle pointer
* @retval None
*/
void HAL_ADC_MspInit(ADC_HandleTypeDef* hadc)
{
 8000868:	b590      	push	{r4, r7, lr}
 800086a:	b08b      	sub	sp, #44	; 0x2c
 800086c:	af00      	add	r7, sp, #0
 800086e:	6078      	str	r0, [r7, #4]
  GPIO_InitTypeDef GPIO_InitStruct = {0};
 8000870:	2414      	movs	r4, #20
 8000872:	193b      	adds	r3, r7, r4
 8000874:	0018      	movs	r0, r3
 8000876:	2314      	movs	r3, #20
 8000878:	001a      	movs	r2, r3
 800087a:	2100      	movs	r1, #0
 800087c:	f003 ff0e 	bl	800469c <memset>
  if(hadc->Instance==ADC1)
 8000880:	687b      	ldr	r3, [r7, #4]
 8000882:	681b      	ldr	r3, [r3, #0]
 8000884:	4a31      	ldr	r2, [pc, #196]	; (800094c <HAL_ADC_MspInit+0xe4>)
 8000886:	4293      	cmp	r3, r2
 8000888:	d15b      	bne.n	8000942 <HAL_ADC_MspInit+0xda>
  {
  /* USER CODE BEGIN ADC1_MspInit 0 */

  /* USER CODE END ADC1_MspInit 0 */
    /* Peripheral clock enable */
    __HAL_RCC_ADC1_CLK_ENABLE();
 800088a:	4b31      	ldr	r3, [pc, #196]	; (8000950 <HAL_ADC_MspInit+0xe8>)
 800088c:	699a      	ldr	r2, [r3, #24]
 800088e:	4b30      	ldr	r3, [pc, #192]	; (8000950 <HAL_ADC_MspInit+0xe8>)
 8000890:	2180      	movs	r1, #128	; 0x80
 8000892:	0089      	lsls	r1, r1, #2
 8000894:	430a      	orrs	r2, r1
 8000896:	619a      	str	r2, [r3, #24]
 8000898:	4b2d      	ldr	r3, [pc, #180]	; (8000950 <HAL_ADC_MspInit+0xe8>)
 800089a:	699a      	ldr	r2, [r3, #24]
 800089c:	2380      	movs	r3, #128	; 0x80
 800089e:	009b      	lsls	r3, r3, #2
 80008a0:	4013      	ands	r3, r2
 80008a2:	613b      	str	r3, [r7, #16]
 80008a4:	693b      	ldr	r3, [r7, #16]

    __HAL_RCC_GPIOA_CLK_ENABLE();
 80008a6:	4b2a      	ldr	r3, [pc, #168]	; (8000950 <HAL_ADC_MspInit+0xe8>)
 80008a8:	695a      	ldr	r2, [r3, #20]
 80008aa:	4b29      	ldr	r3, [pc, #164]	; (8000950 <HAL_ADC_MspInit+0xe8>)
 80008ac:	2180      	movs	r1, #128	; 0x80
 80008ae:	0289      	lsls	r1, r1, #10
 80008b0:	430a      	orrs	r2, r1
 80008b2:	615a      	str	r2, [r3, #20]
 80008b4:	4b26      	ldr	r3, [pc, #152]	; (8000950 <HAL_ADC_MspInit+0xe8>)
 80008b6:	695a      	ldr	r2, [r3, #20]
 80008b8:	2380      	movs	r3, #128	; 0x80
 80008ba:	029b      	lsls	r3, r3, #10
 80008bc:	4013      	ands	r3, r2
 80008be:	60fb      	str	r3, [r7, #12]
 80008c0:	68fb      	ldr	r3, [r7, #12]
    /**ADC GPIO Configuration
    PA7     ------> ADC_IN7
    */
    GPIO_InitStruct.Pin = GPIO_PIN_7;
 80008c2:	193b      	adds	r3, r7, r4
 80008c4:	2280      	movs	r2, #128	; 0x80
 80008c6:	601a      	str	r2, [r3, #0]
    GPIO_InitStruct.Mode = GPIO_MODE_ANALOG;
 80008c8:	193b      	adds	r3, r7, r4
 80008ca:	2203      	movs	r2, #3
 80008cc:	605a      	str	r2, [r3, #4]
    GPIO_InitStruct.Pull = GPIO_NOPULL;
 80008ce:	193b      	adds	r3, r7, r4
 80008d0:	2200      	movs	r2, #0
 80008d2:	609a      	str	r2, [r3, #8]
    HAL_GPIO_Init(GPIOA, &GPIO_InitStruct);
 80008d4:	193a      	adds	r2, r7, r4
 80008d6:	2390      	movs	r3, #144	; 0x90
 80008d8:	05db      	lsls	r3, r3, #23
 80008da:	0011      	movs	r1, r2
 80008dc:	0018      	movs	r0, r3
 80008de:	f001 fa49 	bl	8001d74 <HAL_GPIO_Init>

    /* ADC1 DMA Init */
    /* ADC Init */
    hdma_adc.Instance = DMA1_Channel1;
 80008e2:	4b1c      	ldr	r3, [pc, #112]	; (8000954 <HAL_ADC_MspInit+0xec>)
 80008e4:	4a1c      	ldr	r2, [pc, #112]	; (8000958 <HAL_ADC_MspInit+0xf0>)
 80008e6:	601a      	str	r2, [r3, #0]
    hdma_adc.Init.Direction = DMA_PERIPH_TO_MEMORY;
 80008e8:	4b1a      	ldr	r3, [pc, #104]	; (8000954 <HAL_ADC_MspInit+0xec>)
 80008ea:	2200      	movs	r2, #0
 80008ec:	605a      	str	r2, [r3, #4]
    hdma_adc.Init.PeriphInc = DMA_PINC_DISABLE;
 80008ee:	4b19      	ldr	r3, [pc, #100]	; (8000954 <HAL_ADC_MspInit+0xec>)
 80008f0:	2200      	movs	r2, #0
 80008f2:	609a      	str	r2, [r3, #8]
    hdma_adc.Init.MemInc = DMA_MINC_ENABLE;
 80008f4:	4b17      	ldr	r3, [pc, #92]	; (8000954 <HAL_ADC_MspInit+0xec>)
 80008f6:	2280      	movs	r2, #128	; 0x80
 80008f8:	60da      	str	r2, [r3, #12]
    hdma_adc.Init.PeriphDataAlignment = DMA_PDATAALIGN_HALFWORD;
 80008fa:	4b16      	ldr	r3, [pc, #88]	; (8000954 <HAL_ADC_MspInit+0xec>)
 80008fc:	2280      	movs	r2, #128	; 0x80
 80008fe:	0052      	lsls	r2, r2, #1
 8000900:	611a      	str	r2, [r3, #16]
    hdma_adc.Init.MemDataAlignment = DMA_MDATAALIGN_HALFWORD;
 8000902:	4b14      	ldr	r3, [pc, #80]	; (8000954 <HAL_ADC_MspInit+0xec>)
 8000904:	2280      	movs	r2, #128	; 0x80
 8000906:	00d2      	lsls	r2, r2, #3
 8000908:	615a      	str	r2, [r3, #20]
    hdma_adc.Init.Mode = DMA_NORMAL;
 800090a:	4b12      	ldr	r3, [pc, #72]	; (8000954 <HAL_ADC_MspInit+0xec>)
 800090c:	2200      	movs	r2, #0
 800090e:	619a      	str	r2, [r3, #24]
    hdma_adc.Init.Priority = DMA_PRIORITY_LOW;
 8000910:	4b10      	ldr	r3, [pc, #64]	; (8000954 <HAL_ADC_MspInit+0xec>)
 8000912:	2200      	movs	r2, #0
 8000914:	61da      	str	r2, [r3, #28]
    if (HAL_DMA_Init(&hdma_adc) != HAL_OK)
 8000916:	4b0f      	ldr	r3, [pc, #60]	; (8000954 <HAL_ADC_MspInit+0xec>)
 8000918:	0018      	movs	r0, r3
 800091a:	f001 f8a7 	bl	8001a6c <HAL_DMA_Init>
 800091e:	1e03      	subs	r3, r0, #0
 8000920:	d001      	beq.n	8000926 <HAL_ADC_MspInit+0xbe>
    {
      Error_Handler();
 8000922:	f7ff ff77 	bl	8000814 <Error_Handler>
    }

    __HAL_LINKDMA(hadc,DMA_Handle,hdma_adc);
 8000926:	687b      	ldr	r3, [r7, #4]
 8000928:	4a0a      	ldr	r2, [pc, #40]	; (8000954 <HAL_ADC_MspInit+0xec>)
 800092a:	631a      	str	r2, [r3, #48]	; 0x30
 800092c:	4b09      	ldr	r3, [pc, #36]	; (8000954 <HAL_ADC_MspInit+0xec>)
 800092e:	687a      	ldr	r2, [r7, #4]
 8000930:	625a      	str	r2, [r3, #36]	; 0x24

    /* ADC1 interrupt Init */
    HAL_NVIC_SetPriority(ADC1_COMP_IRQn, 0, 0);
 8000932:	2200      	movs	r2, #0
 8000934:	2100      	movs	r1, #0
 8000936:	200c      	movs	r0, #12
 8000938:	f001 f866 	bl	8001a08 <HAL_NVIC_SetPriority>
    HAL_NVIC_EnableIRQ(ADC1_COMP_IRQn);
 800093c:	200c      	movs	r0, #12
 800093e:	f001 f878 	bl	8001a32 <HAL_NVIC_EnableIRQ>
  /* USER CODE BEGIN ADC1_MspInit 1 */

  /* USER CODE END ADC1_MspInit 1 */
  }

}
 8000942:	46c0      	nop			; (mov r8, r8)
 8000944:	46bd      	mov	sp, r7
 8000946:	b00b      	add	sp, #44	; 0x2c
 8000948:	bd90      	pop	{r4, r7, pc}
 800094a:	46c0      	nop			; (mov r8, r8)
 800094c:	40012400 	.word	0x40012400
 8000950:	40021000 	.word	0x40021000
 8000954:	200000d0 	.word	0x200000d0
 8000958:	40020008 	.word	0x40020008

0800095c <HAL_TIM_Base_MspInit>:
* This function configures the hardware resources used in this example
* @param htim_base: TIM_Base handle pointer
* @retval None
*/
void HAL_TIM_Base_MspInit(TIM_HandleTypeDef* htim_base)
{
 800095c:	b580      	push	{r7, lr}
 800095e:	b084      	sub	sp, #16
 8000960:	af00      	add	r7, sp, #0
 8000962:	6078      	str	r0, [r7, #4]
  if(htim_base->Instance==TIM3)
 8000964:	687b      	ldr	r3, [r7, #4]
 8000966:	681b      	ldr	r3, [r3, #0]
 8000968:	4a09      	ldr	r2, [pc, #36]	; (8000990 <HAL_TIM_Base_MspInit+0x34>)
 800096a:	4293      	cmp	r3, r2
 800096c:	d10b      	bne.n	8000986 <HAL_TIM_Base_MspInit+0x2a>
  {
  /* USER CODE BEGIN TIM3_MspInit 0 */

  /* USER CODE END TIM3_MspInit 0 */
    /* Peripheral clock enable */
    __HAL_RCC_TIM3_CLK_ENABLE();
 800096e:	4b09      	ldr	r3, [pc, #36]	; (8000994 <HAL_TIM_Base_MspInit+0x38>)
 8000970:	69da      	ldr	r2, [r3, #28]
 8000972:	4b08      	ldr	r3, [pc, #32]	; (8000994 <HAL_TIM_Base_MspInit+0x38>)
 8000974:	2102      	movs	r1, #2
 8000976:	430a      	orrs	r2, r1
 8000978:	61da      	str	r2, [r3, #28]
 800097a:	4b06      	ldr	r3, [pc, #24]	; (8000994 <HAL_TIM_Base_MspInit+0x38>)
 800097c:	69db      	ldr	r3, [r3, #28]
 800097e:	2202      	movs	r2, #2
 8000980:	4013      	ands	r3, r2
 8000982:	60fb      	str	r3, [r7, #12]
 8000984:	68fb      	ldr	r3, [r7, #12]
  /* USER CODE BEGIN TIM3_MspInit 1 */

  /* USER CODE END TIM3_MspInit 1 */
  }

}
 8000986:	46c0      	nop			; (mov r8, r8)
 8000988:	46bd      	mov	sp, r7
 800098a:	b004      	add	sp, #16
 800098c:	bd80      	pop	{r7, pc}
 800098e:	46c0      	nop			; (mov r8, r8)
 8000990:	40000400 	.word	0x40000400
 8000994:	40021000 	.word	0x40021000

08000998 <HAL_TIM_MspPostInit>:

void HAL_TIM_MspPostInit(TIM_HandleTypeDef* htim)
{
 8000998:	b590      	push	{r4, r7, lr}
 800099a:	b089      	sub	sp, #36	; 0x24
 800099c:	af00      	add	r7, sp, #0
 800099e:	6078      	str	r0, [r7, #4]
  GPIO_InitTypeDef GPIO_InitStruct = {0};
 80009a0:	240c      	movs	r4, #12
 80009a2:	193b      	adds	r3, r7, r4
 80009a4:	0018      	movs	r0, r3
 80009a6:	2314      	movs	r3, #20
 80009a8:	001a      	movs	r2, r3
 80009aa:	2100      	movs	r1, #0
 80009ac:	f003 fe76 	bl	800469c <memset>
  if(htim->Instance==TIM3)
 80009b0:	687b      	ldr	r3, [r7, #4]
 80009b2:	681b      	ldr	r3, [r3, #0]
 80009b4:	4a15      	ldr	r2, [pc, #84]	; (8000a0c <HAL_TIM_MspPostInit+0x74>)
 80009b6:	4293      	cmp	r3, r2
 80009b8:	d124      	bne.n	8000a04 <HAL_TIM_MspPostInit+0x6c>
  {
  /* USER CODE BEGIN TIM3_MspPostInit 0 */

  /* USER CODE END TIM3_MspPostInit 0 */

    __HAL_RCC_GPIOC_CLK_ENABLE();
 80009ba:	4b15      	ldr	r3, [pc, #84]	; (8000a10 <HAL_TIM_MspPostInit+0x78>)
 80009bc:	695a      	ldr	r2, [r3, #20]
 80009be:	4b14      	ldr	r3, [pc, #80]	; (8000a10 <HAL_TIM_MspPostInit+0x78>)
 80009c0:	2180      	movs	r1, #128	; 0x80
 80009c2:	0309      	lsls	r1, r1, #12
 80009c4:	430a      	orrs	r2, r1
 80009c6:	615a      	str	r2, [r3, #20]
 80009c8:	4b11      	ldr	r3, [pc, #68]	; (8000a10 <HAL_TIM_MspPostInit+0x78>)
 80009ca:	695a      	ldr	r2, [r3, #20]
 80009cc:	2380      	movs	r3, #128	; 0x80
 80009ce:	031b      	lsls	r3, r3, #12
 80009d0:	4013      	ands	r3, r2
 80009d2:	60bb      	str	r3, [r7, #8]
 80009d4:	68bb      	ldr	r3, [r7, #8]
    /**TIM3 GPIO Configuration
    PC9     ------> TIM3_CH4
    */
    GPIO_InitStruct.Pin = GPIO_PIN_9;
 80009d6:	193b      	adds	r3, r7, r4
 80009d8:	2280      	movs	r2, #128	; 0x80
 80009da:	0092      	lsls	r2, r2, #2
 80009dc:	601a      	str	r2, [r3, #0]
    GPIO_InitStruct.Mode = GPIO_MODE_AF_PP;
 80009de:	0021      	movs	r1, r4
 80009e0:	187b      	adds	r3, r7, r1
 80009e2:	2202      	movs	r2, #2
 80009e4:	605a      	str	r2, [r3, #4]
    GPIO_InitStruct.Pull = GPIO_NOPULL;
 80009e6:	187b      	adds	r3, r7, r1
 80009e8:	2200      	movs	r2, #0
 80009ea:	609a      	str	r2, [r3, #8]
    GPIO_InitStruct.Speed = GPIO_SPEED_FREQ_LOW;
 80009ec:	187b      	adds	r3, r7, r1
 80009ee:	2200      	movs	r2, #0
 80009f0:	60da      	str	r2, [r3, #12]
    GPIO_InitStruct.Alternate = GPIO_AF0_MCO;
 80009f2:	187b      	adds	r3, r7, r1
 80009f4:	2200      	movs	r2, #0
 80009f6:	611a      	str	r2, [r3, #16]
    HAL_GPIO_Init(GPIOC, &GPIO_InitStruct);
 80009f8:	187b      	adds	r3, r7, r1
 80009fa:	4a06      	ldr	r2, [pc, #24]	; (8000a14 <HAL_TIM_MspPostInit+0x7c>)
 80009fc:	0019      	movs	r1, r3
 80009fe:	0010      	movs	r0, r2
 8000a00:	f001 f9b8 	bl	8001d74 <HAL_GPIO_Init>
  /* USER CODE BEGIN TIM3_MspPostInit 1 */

  /* USER CODE END TIM3_MspPostInit 1 */
  }

}
 8000a04:	46c0      	nop			; (mov r8, r8)
 8000a06:	46bd      	mov	sp, r7
 8000a08:	b009      	add	sp, #36	; 0x24
 8000a0a:	bd90      	pop	{r4, r7, pc}
 8000a0c:	40000400 	.word	0x40000400
 8000a10:	40021000 	.word	0x40021000
 8000a14:	48000800 	.word	0x48000800

08000a18 <HAL_UART_MspInit>:
* This function configures the hardware resources used in this example
* @param huart: UART handle pointer
* @retval None
*/
void HAL_UART_MspInit(UART_HandleTypeDef* huart)
{
 8000a18:	b590      	push	{r4, r7, lr}
 8000a1a:	b08b      	sub	sp, #44	; 0x2c
 8000a1c:	af00      	add	r7, sp, #0
 8000a1e:	6078      	str	r0, [r7, #4]
  GPIO_InitTypeDef GPIO_InitStruct = {0};
 8000a20:	2414      	movs	r4, #20
 8000a22:	193b      	adds	r3, r7, r4
 8000a24:	0018      	movs	r0, r3
 8000a26:	2314      	movs	r3, #20
 8000a28:	001a      	movs	r2, r3
 8000a2a:	2100      	movs	r1, #0
 8000a2c:	f003 fe36 	bl	800469c <memset>
  if(huart->Instance==USART2)
 8000a30:	687b      	ldr	r3, [r7, #4]
 8000a32:	681b      	ldr	r3, [r3, #0]
 8000a34:	4a33      	ldr	r2, [pc, #204]	; (8000b04 <HAL_UART_MspInit+0xec>)
 8000a36:	4293      	cmp	r3, r2
 8000a38:	d160      	bne.n	8000afc <HAL_UART_MspInit+0xe4>
  {
  /* USER CODE BEGIN USART2_MspInit 0 */

  /* USER CODE END USART2_MspInit 0 */
    /* Peripheral clock enable */
    __HAL_RCC_USART2_CLK_ENABLE();
 8000a3a:	4b33      	ldr	r3, [pc, #204]	; (8000b08 <HAL_UART_MspInit+0xf0>)
 8000a3c:	69da      	ldr	r2, [r3, #28]
 8000a3e:	4b32      	ldr	r3, [pc, #200]	; (8000b08 <HAL_UART_MspInit+0xf0>)
 8000a40:	2180      	movs	r1, #128	; 0x80
 8000a42:	0289      	lsls	r1, r1, #10
 8000a44:	430a      	orrs	r2, r1
 8000a46:	61da      	str	r2, [r3, #28]
 8000a48:	4b2f      	ldr	r3, [pc, #188]	; (8000b08 <HAL_UART_MspInit+0xf0>)
 8000a4a:	69da      	ldr	r2, [r3, #28]
 8000a4c:	2380      	movs	r3, #128	; 0x80
 8000a4e:	029b      	lsls	r3, r3, #10
 8000a50:	4013      	ands	r3, r2
 8000a52:	613b      	str	r3, [r7, #16]
 8000a54:	693b      	ldr	r3, [r7, #16]

    __HAL_RCC_GPIOA_CLK_ENABLE();
 8000a56:	4b2c      	ldr	r3, [pc, #176]	; (8000b08 <HAL_UART_MspInit+0xf0>)
 8000a58:	695a      	ldr	r2, [r3, #20]
 8000a5a:	4b2b      	ldr	r3, [pc, #172]	; (8000b08 <HAL_UART_MspInit+0xf0>)
 8000a5c:	2180      	movs	r1, #128	; 0x80
 8000a5e:	0289      	lsls	r1, r1, #10
 8000a60:	430a      	orrs	r2, r1
 8000a62:	615a      	str	r2, [r3, #20]
 8000a64:	4b28      	ldr	r3, [pc, #160]	; (8000b08 <HAL_UART_MspInit+0xf0>)
 8000a66:	695a      	ldr	r2, [r3, #20]
 8000a68:	2380      	movs	r3, #128	; 0x80
 8000a6a:	029b      	lsls	r3, r3, #10
 8000a6c:	4013      	ands	r3, r2
 8000a6e:	60fb      	str	r3, [r7, #12]
 8000a70:	68fb      	ldr	r3, [r7, #12]
    /**USART2 GPIO Configuration
    PA2     ------> USART2_TX
    PA3     ------> USART2_RX
    */
    GPIO_InitStruct.Pin = GPIO_PIN_2|GPIO_PIN_3;
 8000a72:	0021      	movs	r1, r4
 8000a74:	187b      	adds	r3, r7, r1
 8000a76:	220c      	movs	r2, #12
 8000a78:	601a      	str	r2, [r3, #0]
    GPIO_InitStruct.Mode = GPIO_MODE_AF_PP;
 8000a7a:	187b      	adds	r3, r7, r1
 8000a7c:	2202      	movs	r2, #2
 8000a7e:	605a      	str	r2, [r3, #4]
    GPIO_InitStruct.Pull = GPIO_NOPULL;
 8000a80:	187b      	adds	r3, r7, r1
 8000a82:	2200      	movs	r2, #0
 8000a84:	609a      	str	r2, [r3, #8]
    GPIO_InitStruct.Speed = GPIO_SPEED_FREQ_HIGH;
 8000a86:	187b      	adds	r3, r7, r1
 8000a88:	2203      	movs	r2, #3
 8000a8a:	60da      	str	r2, [r3, #12]
    GPIO_InitStruct.Alternate = GPIO_AF1_USART2;
 8000a8c:	187b      	adds	r3, r7, r1
 8000a8e:	2201      	movs	r2, #1
 8000a90:	611a      	str	r2, [r3, #16]
    HAL_GPIO_Init(GPIOA, &GPIO_InitStruct);
 8000a92:	187a      	adds	r2, r7, r1
 8000a94:	2390      	movs	r3, #144	; 0x90
 8000a96:	05db      	lsls	r3, r3, #23
 8000a98:	0011      	movs	r1, r2
 8000a9a:	0018      	movs	r0, r3
 8000a9c:	f001 f96a 	bl	8001d74 <HAL_GPIO_Init>

    /* USART2 DMA Init */
    /* USART2_TX Init */
    hdma_usart2_tx.Instance = DMA1_Channel4;
 8000aa0:	4b1a      	ldr	r3, [pc, #104]	; (8000b0c <HAL_UART_MspInit+0xf4>)
 8000aa2:	4a1b      	ldr	r2, [pc, #108]	; (8000b10 <HAL_UART_MspInit+0xf8>)
 8000aa4:	601a      	str	r2, [r3, #0]
    hdma_usart2_tx.Init.Direction = DMA_MEMORY_TO_PERIPH;
 8000aa6:	4b19      	ldr	r3, [pc, #100]	; (8000b0c <HAL_UART_MspInit+0xf4>)
 8000aa8:	2210      	movs	r2, #16
 8000aaa:	605a      	str	r2, [r3, #4]
    hdma_usart2_tx.Init.PeriphInc = DMA_PINC_DISABLE;
 8000aac:	4b17      	ldr	r3, [pc, #92]	; (8000b0c <HAL_UART_MspInit+0xf4>)
 8000aae:	2200      	movs	r2, #0
 8000ab0:	609a      	str	r2, [r3, #8]
    hdma_usart2_tx.Init.MemInc = DMA_MINC_ENABLE;
 8000ab2:	4b16      	ldr	r3, [pc, #88]	; (8000b0c <HAL_UART_MspInit+0xf4>)
 8000ab4:	2280      	movs	r2, #128	; 0x80
 8000ab6:	60da      	str	r2, [r3, #12]
    hdma_usart2_tx.Init.PeriphDataAlignment = DMA_PDATAALIGN_BYTE;
 8000ab8:	4b14      	ldr	r3, [pc, #80]	; (8000b0c <HAL_UART_MspInit+0xf4>)
 8000aba:	2200      	movs	r2, #0
 8000abc:	611a      	str	r2, [r3, #16]
    hdma_usart2_tx.Init.MemDataAlignment = DMA_MDATAALIGN_BYTE;
 8000abe:	4b13      	ldr	r3, [pc, #76]	; (8000b0c <HAL_UART_MspInit+0xf4>)
 8000ac0:	2200      	movs	r2, #0
 8000ac2:	615a      	str	r2, [r3, #20]
    hdma_usart2_tx.Init.Mode = DMA_NORMAL;
 8000ac4:	4b11      	ldr	r3, [pc, #68]	; (8000b0c <HAL_UART_MspInit+0xf4>)
 8000ac6:	2200      	movs	r2, #0
 8000ac8:	619a      	str	r2, [r3, #24]
    hdma_usart2_tx.Init.Priority = DMA_PRIORITY_LOW;
 8000aca:	4b10      	ldr	r3, [pc, #64]	; (8000b0c <HAL_UART_MspInit+0xf4>)
 8000acc:	2200      	movs	r2, #0
 8000ace:	61da      	str	r2, [r3, #28]
    if (HAL_DMA_Init(&hdma_usart2_tx) != HAL_OK)
 8000ad0:	4b0e      	ldr	r3, [pc, #56]	; (8000b0c <HAL_UART_MspInit+0xf4>)
 8000ad2:	0018      	movs	r0, r3
 8000ad4:	f000 ffca 	bl	8001a6c <HAL_DMA_Init>
 8000ad8:	1e03      	subs	r3, r0, #0
 8000ada:	d001      	beq.n	8000ae0 <HAL_UART_MspInit+0xc8>
    {
      Error_Handler();
 8000adc:	f7ff fe9a 	bl	8000814 <Error_Handler>
    }

    __HAL_LINKDMA(huart,hdmatx,hdma_usart2_tx);
 8000ae0:	687b      	ldr	r3, [r7, #4]
 8000ae2:	4a0a      	ldr	r2, [pc, #40]	; (8000b0c <HAL_UART_MspInit+0xf4>)
 8000ae4:	66da      	str	r2, [r3, #108]	; 0x6c
 8000ae6:	4b09      	ldr	r3, [pc, #36]	; (8000b0c <HAL_UART_MspInit+0xf4>)
 8000ae8:	687a      	ldr	r2, [r7, #4]
 8000aea:	625a      	str	r2, [r3, #36]	; 0x24

    /* USART2 interrupt Init */
    HAL_NVIC_SetPriority(USART2_IRQn, 0, 0);
 8000aec:	2200      	movs	r2, #0
 8000aee:	2100      	movs	r1, #0
 8000af0:	201c      	movs	r0, #28
 8000af2:	f000 ff89 	bl	8001a08 <HAL_NVIC_SetPriority>
    HAL_NVIC_EnableIRQ(USART2_IRQn);
 8000af6:	201c      	movs	r0, #28
 8000af8:	f000 ff9b 	bl	8001a32 <HAL_NVIC_EnableIRQ>
  /* USER CODE BEGIN USART2_MspInit 1 */

  /* USER CODE END USART2_MspInit 1 */
  }

}
 8000afc:	46c0      	nop			; (mov r8, r8)
 8000afe:	46bd      	mov	sp, r7
 8000b00:	b00b      	add	sp, #44	; 0x2c
 8000b02:	bd90      	pop	{r4, r7, pc}
 8000b04:	40004400 	.word	0x40004400
 8000b08:	40021000 	.word	0x40021000
 8000b0c:	200001e0 	.word	0x200001e0
 8000b10:	40020044 	.word	0x40020044

08000b14 <NMI_Handler>:
/******************************************************************************/
/**
  * @brief This function handles Non maskable interrupt.
  */
void NMI_Handler(void)
{
 8000b14:	b580      	push	{r7, lr}
 8000b16:	af00      	add	r7, sp, #0
  /* USER CODE BEGIN NonMaskableInt_IRQn 0 */

  /* USER CODE END NonMaskableInt_IRQn 0 */
  /* USER CODE BEGIN NonMaskableInt_IRQn 1 */
  while (1)
 8000b18:	e7fe      	b.n	8000b18 <NMI_Handler+0x4>

08000b1a <HardFault_Handler>:

/**
  * @brief This function handles Hard fault interrupt.
  */
void HardFault_Handler(void)
{
 8000b1a:	b580      	push	{r7, lr}
 8000b1c:	af00      	add	r7, sp, #0
  /* USER CODE BEGIN HardFault_IRQn 0 */

  /* USER CODE END HardFault_IRQn 0 */
  while (1)
 8000b1e:	e7fe      	b.n	8000b1e <HardFault_Handler+0x4>

08000b20 <SVC_Handler>:

/**
  * @brief This function handles System service call via SWI instruction.
  */
void SVC_Handler(void)
{
 8000b20:	b580      	push	{r7, lr}
 8000b22:	af00      	add	r7, sp, #0

  /* USER CODE END SVC_IRQn 0 */
  /* USER CODE BEGIN SVC_IRQn 1 */

  /* USER CODE END SVC_IRQn 1 */
}
 8000b24:	46c0      	nop			; (mov r8, r8)
 8000b26:	46bd      	mov	sp, r7
 8000b28:	bd80      	pop	{r7, pc}

08000b2a <PendSV_Handler>:

/**
  * @brief This function handles Pendable request for system service.
  */
void PendSV_Handler(void)
{
 8000b2a:	b580      	push	{r7, lr}
 8000b2c:	af00      	add	r7, sp, #0

  /* USER CODE END PendSV_IRQn 0 */
  /* USER CODE BEGIN PendSV_IRQn 1 */

  /* USER CODE END PendSV_IRQn 1 */
}
 8000b2e:	46c0      	nop			; (mov r8, r8)
 8000b30:	46bd      	mov	sp, r7
 8000b32:	bd80      	pop	{r7, pc}

08000b34 <SysTick_Handler>:

/**
  * @brief This function handles System tick timer.
  */
void SysTick_Handler(void)
{
 8000b34:	b580      	push	{r7, lr}
 8000b36:	af00      	add	r7, sp, #0
  /* USER CODE BEGIN SysTick_IRQn 0 */

  /* USER CODE END SysTick_IRQn 0 */
  HAL_IncTick();
 8000b38:	f000 f8e2 	bl	8000d00 <HAL_IncTick>
  /* USER CODE BEGIN SysTick_IRQn 1 */

  /* USER CODE END SysTick_IRQn 1 */
}
 8000b3c:	46c0      	nop			; (mov r8, r8)
 8000b3e:	46bd      	mov	sp, r7
 8000b40:	bd80      	pop	{r7, pc}
	...

08000b44 <DMA1_Channel1_IRQHandler>:

/**
  * @brief This function handles DMA1 channel 1 interrupt.
  */
void DMA1_Channel1_IRQHandler(void)
{
 8000b44:	b580      	push	{r7, lr}
 8000b46:	af00      	add	r7, sp, #0
  /* USER CODE BEGIN DMA1_Channel1_IRQn 0 */

  /* USER CODE END DMA1_Channel1_IRQn 0 */
  HAL_DMA_IRQHandler(&hdma_adc);
 8000b48:	4b03      	ldr	r3, [pc, #12]	; (8000b58 <DMA1_Channel1_IRQHandler+0x14>)
 8000b4a:	0018      	movs	r0, r3
 8000b4c:	f001 f853 	bl	8001bf6 <HAL_DMA_IRQHandler>
  /* USER CODE BEGIN DMA1_Channel1_IRQn 1 */

  /* USER CODE END DMA1_Channel1_IRQn 1 */
}
 8000b50:	46c0      	nop			; (mov r8, r8)
 8000b52:	46bd      	mov	sp, r7
 8000b54:	bd80      	pop	{r7, pc}
 8000b56:	46c0      	nop			; (mov r8, r8)
 8000b58:	200000d0 	.word	0x200000d0

08000b5c <DMA1_Channel4_5_IRQHandler>:

/**
  * @brief This function handles DMA1 channel 4 and 5 interrupts.
  */
void DMA1_Channel4_5_IRQHandler(void)
{
 8000b5c:	b580      	push	{r7, lr}
 8000b5e:	af00      	add	r7, sp, #0
  /* USER CODE BEGIN DMA1_Channel4_5_IRQn 0 */

  /* USER CODE END DMA1_Channel4_5_IRQn 0 */
  HAL_DMA_IRQHandler(&hdma_usart2_tx);
 8000b60:	4b03      	ldr	r3, [pc, #12]	; (8000b70 <DMA1_Channel4_5_IRQHandler+0x14>)
 8000b62:	0018      	movs	r0, r3
 8000b64:	f001 f847 	bl	8001bf6 <HAL_DMA_IRQHandler>
  /* USER CODE BEGIN DMA1_Channel4_5_IRQn 1 */

  /* USER CODE END DMA1_Channel4_5_IRQn 1 */
}
 8000b68:	46c0      	nop			; (mov r8, r8)
 8000b6a:	46bd      	mov	sp, r7
 8000b6c:	bd80      	pop	{r7, pc}
 8000b6e:	46c0      	nop			; (mov r8, r8)
 8000b70:	200001e0 	.word	0x200001e0

08000b74 <ADC1_COMP_IRQHandler>:

/**
  * @brief This function handles ADC and COMP interrupts (COMP interrupts through EXTI lines 21 and 22).
  */
void ADC1_COMP_IRQHandler(void)
{
 8000b74:	b580      	push	{r7, lr}
 8000b76:	af00      	add	r7, sp, #0
  /* USER CODE BEGIN ADC1_COMP_IRQn 0 */

  /* USER CODE END ADC1_COMP_IRQn 0 */
  HAL_ADC_IRQHandler(&hadc);
 8000b78:	4b03      	ldr	r3, [pc, #12]	; (8000b88 <ADC1_COMP_IRQHandler+0x14>)
 8000b7a:	0018      	movs	r0, r3
 8000b7c:	f000 fb78 	bl	8001270 <HAL_ADC_IRQHandler>
  /* USER CODE BEGIN ADC1_COMP_IRQn 1 */

  /* USER CODE END ADC1_COMP_IRQn 1 */
}
 8000b80:	46c0      	nop			; (mov r8, r8)
 8000b82:	46bd      	mov	sp, r7
 8000b84:	bd80      	pop	{r7, pc}
 8000b86:	46c0      	nop			; (mov r8, r8)
 8000b88:	20000090 	.word	0x20000090

08000b8c <USART2_IRQHandler>:

/**
  * @brief This function handles USART2 global interrupt.
  */
void USART2_IRQHandler(void)
{
 8000b8c:	b580      	push	{r7, lr}
 8000b8e:	af00      	add	r7, sp, #0
  /* USER CODE BEGIN USART2_IRQn 0 */

  /* USER CODE END USART2_IRQn 0 */
  HAL_UART_IRQHandler(&huart2);
 8000b90:	4b03      	ldr	r3, [pc, #12]	; (8000ba0 <USART2_IRQHandler+0x14>)
 8000b92:	0018      	movs	r0, r3
 8000b94:	f002 feb8 	bl	8003908 <HAL_UART_IRQHandler>
  /* USER CODE BEGIN USART2_IRQn 1 */

  /* USER CODE END USART2_IRQn 1 */
}
 8000b98:	46c0      	nop			; (mov r8, r8)
 8000b9a:	46bd      	mov	sp, r7
 8000b9c:	bd80      	pop	{r7, pc}
 8000b9e:	46c0      	nop			; (mov r8, r8)
 8000ba0:	2000015c 	.word	0x2000015c

08000ba4 <_sbrk>:
 *
 * @param incr Memory size
 * @return Pointer to allocated memory
 */
void *_sbrk(ptrdiff_t incr)
{
 8000ba4:	b580      	push	{r7, lr}
 8000ba6:	b086      	sub	sp, #24
 8000ba8:	af00      	add	r7, sp, #0
 8000baa:	6078      	str	r0, [r7, #4]
  extern uint8_t _end; /* Symbol defined in the linker script */
  extern uint8_t _estack; /* Symbol defined in the linker script */
  extern uint32_t _Min_Stack_Size; /* Symbol defined in the linker script */
  const uint32_t stack_limit = (uint32_t)&_estack - (uint32_t)&_Min_Stack_Size;
 8000bac:	4a14      	ldr	r2, [pc, #80]	; (8000c00 <_sbrk+0x5c>)
 8000bae:	4b15      	ldr	r3, [pc, #84]	; (8000c04 <_sbrk+0x60>)
 8000bb0:	1ad3      	subs	r3, r2, r3
 8000bb2:	617b      	str	r3, [r7, #20]
  const uint8_t *max_heap = (uint8_t *)stack_limit;
 8000bb4:	697b      	ldr	r3, [r7, #20]
 8000bb6:	613b      	str	r3, [r7, #16]
  uint8_t *prev_heap_end;

  /* Initialize heap end at first call */
  if (NULL == __sbrk_heap_end)
 8000bb8:	4b13      	ldr	r3, [pc, #76]	; (8000c08 <_sbrk+0x64>)
 8000bba:	681b      	ldr	r3, [r3, #0]
 8000bbc:	2b00      	cmp	r3, #0
 8000bbe:	d102      	bne.n	8000bc6 <_sbrk+0x22>
  {
    __sbrk_heap_end = &_end;
 8000bc0:	4b11      	ldr	r3, [pc, #68]	; (8000c08 <_sbrk+0x64>)
 8000bc2:	4a12      	ldr	r2, [pc, #72]	; (8000c0c <_sbrk+0x68>)
 8000bc4:	601a      	str	r2, [r3, #0]
  }

  /* Protect heap from growing into the reserved MSP stack */
  if (__sbrk_heap_end + incr > max_heap)
 8000bc6:	4b10      	ldr	r3, [pc, #64]	; (8000c08 <_sbrk+0x64>)
 8000bc8:	681a      	ldr	r2, [r3, #0]
 8000bca:	687b      	ldr	r3, [r7, #4]
 8000bcc:	18d3      	adds	r3, r2, r3
 8000bce:	693a      	ldr	r2, [r7, #16]
 8000bd0:	429a      	cmp	r2, r3
 8000bd2:	d207      	bcs.n	8000be4 <_sbrk+0x40>
  {
    errno = ENOMEM;
 8000bd4:	f003 fd38 	bl	8004648 <__errno>
 8000bd8:	0003      	movs	r3, r0
 8000bda:	220c      	movs	r2, #12
 8000bdc:	601a      	str	r2, [r3, #0]
    return (void *)-1;
 8000bde:	2301      	movs	r3, #1
 8000be0:	425b      	negs	r3, r3
 8000be2:	e009      	b.n	8000bf8 <_sbrk+0x54>
  }

  prev_heap_end = __sbrk_heap_end;
 8000be4:	4b08      	ldr	r3, [pc, #32]	; (8000c08 <_sbrk+0x64>)
 8000be6:	681b      	ldr	r3, [r3, #0]
 8000be8:	60fb      	str	r3, [r7, #12]
  __sbrk_heap_end += incr;
 8000bea:	4b07      	ldr	r3, [pc, #28]	; (8000c08 <_sbrk+0x64>)
 8000bec:	681a      	ldr	r2, [r3, #0]
 8000bee:	687b      	ldr	r3, [r7, #4]
 8000bf0:	18d2      	adds	r2, r2, r3
 8000bf2:	4b05      	ldr	r3, [pc, #20]	; (8000c08 <_sbrk+0x64>)
 8000bf4:	601a      	str	r2, [r3, #0]

  return (void *)prev_heap_end;
 8000bf6:	68fb      	ldr	r3, [r7, #12]
}
 8000bf8:	0018      	movs	r0, r3
 8000bfa:	46bd      	mov	sp, r7
 8000bfc:	b006      	add	sp, #24
 8000bfe:	bd80      	pop	{r7, pc}
 8000c00:	20002000 	.word	0x20002000
 8000c04:	00000400 	.word	0x00000400
 8000c08:	20000274 	.word	0x20000274
 8000c0c:	20000290 	.word	0x20000290

08000c10 <SystemInit>:
  * @brief  Setup the microcontroller system
  * @param  None
  * @retval None
  */
void SystemInit(void)
{
 8000c10:	b580      	push	{r7, lr}
 8000c12:	af00      	add	r7, sp, #0
                         before branch to main program. This call is made inside
                         the "startup_stm32f0xx.s" file.
                         User can setups the default system clock (System clock source, PLL Multiplier
                         and Divider factors, AHB/APBx prescalers and Flash settings).
   */
}
 8000c14:	46c0      	nop			; (mov r8, r8)
 8000c16:	46bd      	mov	sp, r7
 8000c18:	bd80      	pop	{r7, pc}
	...

08000c1c <Reset_Handler>:

  .section .text.Reset_Handler
  .weak Reset_Handler
  .type Reset_Handler, %function
Reset_Handler:
  ldr   r0, =_estack
 8000c1c:	480d      	ldr	r0, [pc, #52]	; (8000c54 <LoopForever+0x2>)
  mov   sp, r0          /* set stack pointer */
 8000c1e:	4685      	mov	sp, r0

/* Copy the data segment initializers from flash to SRAM */
  ldr r0, =_sdata
 8000c20:	480d      	ldr	r0, [pc, #52]	; (8000c58 <LoopForever+0x6>)
  ldr r1, =_edata
 8000c22:	490e      	ldr	r1, [pc, #56]	; (8000c5c <LoopForever+0xa>)
  ldr r2, =_sidata
 8000c24:	4a0e      	ldr	r2, [pc, #56]	; (8000c60 <LoopForever+0xe>)
  movs r3, #0
 8000c26:	2300      	movs	r3, #0
  b LoopCopyDataInit
 8000c28:	e002      	b.n	8000c30 <LoopCopyDataInit>

08000c2a <CopyDataInit>:

CopyDataInit:
  ldr r4, [r2, r3]
 8000c2a:	58d4      	ldr	r4, [r2, r3]
  str r4, [r0, r3]
 8000c2c:	50c4      	str	r4, [r0, r3]
  adds r3, r3, #4
 8000c2e:	3304      	adds	r3, #4

08000c30 <LoopCopyDataInit>:

LoopCopyDataInit:
  adds r4, r0, r3
 8000c30:	18c4      	adds	r4, r0, r3
  cmp r4, r1
 8000c32:	428c      	cmp	r4, r1
  bcc CopyDataInit
 8000c34:	d3f9      	bcc.n	8000c2a <CopyDataInit>
  
/* Zero fill the bss segment. */
  ldr r2, =_sbss
 8000c36:	4a0b      	ldr	r2, [pc, #44]	; (8000c64 <LoopForever+0x12>)
  ldr r4, =_ebss
 8000c38:	4c0b      	ldr	r4, [pc, #44]	; (8000c68 <LoopForever+0x16>)
  movs r3, #0
 8000c3a:	2300      	movs	r3, #0
  b LoopFillZerobss
 8000c3c:	e001      	b.n	8000c42 <LoopFillZerobss>

08000c3e <FillZerobss>:

FillZerobss:
  str  r3, [r2]
 8000c3e:	6013      	str	r3, [r2, #0]
  adds r2, r2, #4
 8000c40:	3204      	adds	r2, #4

08000c42 <LoopFillZerobss>:

LoopFillZerobss:
  cmp r2, r4
 8000c42:	42a2      	cmp	r2, r4
  bcc FillZerobss
 8000c44:	d3fb      	bcc.n	8000c3e <FillZerobss>

/* Call the clock system intitialization function.*/
  bl  SystemInit
 8000c46:	f7ff ffe3 	bl	8000c10 <SystemInit>
/* Call static constructors */
  bl __libc_init_array
 8000c4a:	f003 fd03 	bl	8004654 <__libc_init_array>
/* Call the application's entry point.*/
  bl main
 8000c4e:	f7ff faf1 	bl	8000234 <main>

08000c52 <LoopForever>:

LoopForever:
    b LoopForever
 8000c52:	e7fe      	b.n	8000c52 <LoopForever>
  ldr   r0, =_estack
 8000c54:	20002000 	.word	0x20002000
  ldr r0, =_sdata
 8000c58:	20000000 	.word	0x20000000
  ldr r1, =_edata
 8000c5c:	20000074 	.word	0x20000074
  ldr r2, =_sidata
 8000c60:	08005034 	.word	0x08005034
  ldr r2, =_sbss
 8000c64:	20000074 	.word	0x20000074
  ldr r4, =_ebss
 8000c68:	2000028c 	.word	0x2000028c

08000c6c <CEC_CAN_IRQHandler>:
 * @retval : None
*/
    .section .text.Default_Handler,"ax",%progbits
Default_Handler:
Infinite_Loop:
  b Infinite_Loop
 8000c6c:	e7fe      	b.n	8000c6c <CEC_CAN_IRQHandler>
	...

08000c70 <HAL_Init>:
  *       In the default implementation,Systick is used as source of time base.
  *       The tick variable is incremented each 1ms in its ISR.
  * @retval HAL status
  */
HAL_StatusTypeDef HAL_Init(void)
{
 8000c70:	b580      	push	{r7, lr}
 8000c72:	af00      	add	r7, sp, #0
  /* Configure Flash prefetch */ 
#if (PREFETCH_ENABLE != 0)
  __HAL_FLASH_PREFETCH_BUFFER_ENABLE();
 8000c74:	4b07      	ldr	r3, [pc, #28]	; (8000c94 <HAL_Init+0x24>)
 8000c76:	681a      	ldr	r2, [r3, #0]
 8000c78:	4b06      	ldr	r3, [pc, #24]	; (8000c94 <HAL_Init+0x24>)
 8000c7a:	2110      	movs	r1, #16
 8000c7c:	430a      	orrs	r2, r1
 8000c7e:	601a      	str	r2, [r3, #0]
#endif /* PREFETCH_ENABLE */

  /* Use systick as time base source and configure 1ms tick (default clock after Reset is HSI) */

  HAL_InitTick(TICK_INT_PRIORITY);
 8000c80:	2000      	movs	r0, #0
 8000c82:	f000 f809 	bl	8000c98 <HAL_InitTick>

  /* Init the low level hardware */
  HAL_MspInit();
 8000c86:	f7ff fdcb 	bl	8000820 <HAL_MspInit>

  /* Return function status */
  return HAL_OK;
 8000c8a:	2300      	movs	r3, #0
}
 8000c8c:	0018      	movs	r0, r3
 8000c8e:	46bd      	mov	sp, r7
 8000c90:	bd80      	pop	{r7, pc}
 8000c92:	46c0      	nop			; (mov r8, r8)
 8000c94:	40022000 	.word	0x40022000

08000c98 <HAL_InitTick>:
  *       implementation  in user file.
  * @param TickPriority Tick interrupt priority.
  * @retval HAL status
  */
__weak HAL_StatusTypeDef HAL_InitTick(uint32_t TickPriority)
{
 8000c98:	b590      	push	{r4, r7, lr}
 8000c9a:	b083      	sub	sp, #12
 8000c9c:	af00      	add	r7, sp, #0
 8000c9e:	6078      	str	r0, [r7, #4]
  /*Configure the SysTick to have interrupt in 1ms time basis*/
  if (HAL_SYSTICK_Config(SystemCoreClock / (1000U / uwTickFreq)) > 0U)
 8000ca0:	4b14      	ldr	r3, [pc, #80]	; (8000cf4 <HAL_InitTick+0x5c>)
 8000ca2:	681c      	ldr	r4, [r3, #0]
 8000ca4:	4b14      	ldr	r3, [pc, #80]	; (8000cf8 <HAL_InitTick+0x60>)
 8000ca6:	781b      	ldrb	r3, [r3, #0]
 8000ca8:	0019      	movs	r1, r3
 8000caa:	23fa      	movs	r3, #250	; 0xfa
 8000cac:	0098      	lsls	r0, r3, #2
 8000cae:	f7ff fa35 	bl	800011c <__udivsi3>
 8000cb2:	0003      	movs	r3, r0
 8000cb4:	0019      	movs	r1, r3
 8000cb6:	0020      	movs	r0, r4
 8000cb8:	f7ff fa30 	bl	800011c <__udivsi3>
 8000cbc:	0003      	movs	r3, r0
 8000cbe:	0018      	movs	r0, r3
 8000cc0:	f000 fec7 	bl	8001a52 <HAL_SYSTICK_Config>
 8000cc4:	1e03      	subs	r3, r0, #0
 8000cc6:	d001      	beq.n	8000ccc <HAL_InitTick+0x34>
  {
    return HAL_ERROR;
 8000cc8:	2301      	movs	r3, #1
 8000cca:	e00f      	b.n	8000cec <HAL_InitTick+0x54>
  }

  /* Configure the SysTick IRQ priority */
  if (TickPriority < (1UL << __NVIC_PRIO_BITS))
 8000ccc:	687b      	ldr	r3, [r7, #4]
 8000cce:	2b03      	cmp	r3, #3
 8000cd0:	d80b      	bhi.n	8000cea <HAL_InitTick+0x52>
  {
    HAL_NVIC_SetPriority(SysTick_IRQn, TickPriority, 0U);
 8000cd2:	6879      	ldr	r1, [r7, #4]
 8000cd4:	2301      	movs	r3, #1
 8000cd6:	425b      	negs	r3, r3
 8000cd8:	2200      	movs	r2, #0
 8000cda:	0018      	movs	r0, r3
 8000cdc:	f000 fe94 	bl	8001a08 <HAL_NVIC_SetPriority>
    uwTickPrio = TickPriority;
 8000ce0:	4b06      	ldr	r3, [pc, #24]	; (8000cfc <HAL_InitTick+0x64>)
 8000ce2:	687a      	ldr	r2, [r7, #4]
 8000ce4:	601a      	str	r2, [r3, #0]
  {
    return HAL_ERROR;
  }

   /* Return function status */
  return HAL_OK;
 8000ce6:	2300      	movs	r3, #0
 8000ce8:	e000      	b.n	8000cec <HAL_InitTick+0x54>
    return HAL_ERROR;
 8000cea:	2301      	movs	r3, #1
}
 8000cec:	0018      	movs	r0, r3
 8000cee:	46bd      	mov	sp, r7
 8000cf0:	b003      	add	sp, #12
 8000cf2:	bd90      	pop	{r4, r7, pc}
 8000cf4:	20000004 	.word	0x20000004
 8000cf8:	2000000c 	.word	0x2000000c
 8000cfc:	20000008 	.word	0x20000008

08000d00 <HAL_IncTick>:
  * @note This function is declared as __weak to be overwritten in case of other 
  *       implementations in user file.
  * @retval None
  */
__weak void HAL_IncTick(void)
{
 8000d00:	b580      	push	{r7, lr}
 8000d02:	af00      	add	r7, sp, #0
  uwTick += uwTickFreq;
 8000d04:	4b05      	ldr	r3, [pc, #20]	; (8000d1c <HAL_IncTick+0x1c>)
 8000d06:	781b      	ldrb	r3, [r3, #0]
 8000d08:	001a      	movs	r2, r3
 8000d0a:	4b05      	ldr	r3, [pc, #20]	; (8000d20 <HAL_IncTick+0x20>)
 8000d0c:	681b      	ldr	r3, [r3, #0]
 8000d0e:	18d2      	adds	r2, r2, r3
 8000d10:	4b03      	ldr	r3, [pc, #12]	; (8000d20 <HAL_IncTick+0x20>)
 8000d12:	601a      	str	r2, [r3, #0]
}
 8000d14:	46c0      	nop			; (mov r8, r8)
 8000d16:	46bd      	mov	sp, r7
 8000d18:	bd80      	pop	{r7, pc}
 8000d1a:	46c0      	nop			; (mov r8, r8)
 8000d1c:	2000000c 	.word	0x2000000c
 8000d20:	20000278 	.word	0x20000278

08000d24 <HAL_GetTick>:
  * @note   This function is declared as __weak  to be overwritten  in case of other 
  *       implementations in user file.
  * @retval tick value
  */
__weak uint32_t HAL_GetTick(void)
{
 8000d24:	b580      	push	{r7, lr}
 8000d26:	af00      	add	r7, sp, #0
  return uwTick;
 8000d28:	4b02      	ldr	r3, [pc, #8]	; (8000d34 <HAL_GetTick+0x10>)
 8000d2a:	681b      	ldr	r3, [r3, #0]
}
 8000d2c:	0018      	movs	r0, r3
 8000d2e:	46bd      	mov	sp, r7
 8000d30:	bd80      	pop	{r7, pc}
 8000d32:	46c0      	nop			; (mov r8, r8)
 8000d34:	20000278 	.word	0x20000278

08000d38 <HAL_Delay>:
  *       implementations in user file.
  * @param Delay specifies the delay time length, in milliseconds.
  * @retval None
  */
__weak void HAL_Delay(uint32_t Delay)
{
 8000d38:	b580      	push	{r7, lr}
 8000d3a:	b084      	sub	sp, #16
 8000d3c:	af00      	add	r7, sp, #0
 8000d3e:	6078      	str	r0, [r7, #4]
  uint32_t tickstart = HAL_GetTick();
 8000d40:	f7ff fff0 	bl	8000d24 <HAL_GetTick>
 8000d44:	0003      	movs	r3, r0
 8000d46:	60bb      	str	r3, [r7, #8]
  uint32_t wait = Delay;
 8000d48:	687b      	ldr	r3, [r7, #4]
 8000d4a:	60fb      	str	r3, [r7, #12]
  
  /* Add a freq to guarantee minimum wait */
  if (wait < HAL_MAX_DELAY)
 8000d4c:	68fb      	ldr	r3, [r7, #12]
 8000d4e:	3301      	adds	r3, #1
 8000d50:	d005      	beq.n	8000d5e <HAL_Delay+0x26>
  {
    wait += (uint32_t)(uwTickFreq);
 8000d52:	4b0a      	ldr	r3, [pc, #40]	; (8000d7c <HAL_Delay+0x44>)
 8000d54:	781b      	ldrb	r3, [r3, #0]
 8000d56:	001a      	movs	r2, r3
 8000d58:	68fb      	ldr	r3, [r7, #12]
 8000d5a:	189b      	adds	r3, r3, r2
 8000d5c:	60fb      	str	r3, [r7, #12]
  }
  
  while((HAL_GetTick() - tickstart) < wait)
 8000d5e:	46c0      	nop			; (mov r8, r8)
 8000d60:	f7ff ffe0 	bl	8000d24 <HAL_GetTick>
 8000d64:	0002      	movs	r2, r0
 8000d66:	68bb      	ldr	r3, [r7, #8]
 8000d68:	1ad3      	subs	r3, r2, r3
 8000d6a:	68fa      	ldr	r2, [r7, #12]
 8000d6c:	429a      	cmp	r2, r3
 8000d6e:	d8f7      	bhi.n	8000d60 <HAL_Delay+0x28>
  {
  }
}
 8000d70:	46c0      	nop			; (mov r8, r8)
 8000d72:	46c0      	nop			; (mov r8, r8)
 8000d74:	46bd      	mov	sp, r7
 8000d76:	b004      	add	sp, #16
 8000d78:	bd80      	pop	{r7, pc}
 8000d7a:	46c0      	nop			; (mov r8, r8)
 8000d7c:	2000000c 	.word	0x2000000c

08000d80 <HAL_ADC_Init>:
  *         of structure "ADC_InitTypeDef".
  * @param  hadc ADC handle
  * @retval HAL status
  */
HAL_StatusTypeDef HAL_ADC_Init(ADC_HandleTypeDef* hadc)
{
 8000d80:	b580      	push	{r7, lr}
 8000d82:	b084      	sub	sp, #16
 8000d84:	af00      	add	r7, sp, #0
 8000d86:	6078      	str	r0, [r7, #4]
  HAL_StatusTypeDef tmp_hal_status = HAL_OK;
 8000d88:	230f      	movs	r3, #15
 8000d8a:	18fb      	adds	r3, r7, r3
 8000d8c:	2200      	movs	r2, #0
 8000d8e:	701a      	strb	r2, [r3, #0]
  uint32_t tmpCFGR1 = 0U;
 8000d90:	2300      	movs	r3, #0
 8000d92:	60bb      	str	r3, [r7, #8]

  /* Check ADC handle */
  if(hadc == NULL)
 8000d94:	687b      	ldr	r3, [r7, #4]
 8000d96:	2b00      	cmp	r3, #0
 8000d98:	d101      	bne.n	8000d9e <HAL_ADC_Init+0x1e>
  {
    return HAL_ERROR;
 8000d9a:	2301      	movs	r3, #1
 8000d9c:	e125      	b.n	8000fea <HAL_ADC_Init+0x26a>
  /* Refer to header of this file for more details on clock enabling procedure*/
  
  /* Actions performed only if ADC is coming from state reset:                */
  /* - Initialization of ADC MSP                                              */
  /* - ADC voltage regulator enable                                           */
  if (hadc->State == HAL_ADC_STATE_RESET)
 8000d9e:	687b      	ldr	r3, [r7, #4]
 8000da0:	6b9b      	ldr	r3, [r3, #56]	; 0x38
 8000da2:	2b00      	cmp	r3, #0
 8000da4:	d10a      	bne.n	8000dbc <HAL_ADC_Init+0x3c>
  {
    /* Initialize ADC error code */
    ADC_CLEAR_ERRORCODE(hadc);
 8000da6:	687b      	ldr	r3, [r7, #4]
 8000da8:	2200      	movs	r2, #0
 8000daa:	63da      	str	r2, [r3, #60]	; 0x3c
    
    /* Allocate lock resource and initialize it */
    hadc->Lock = HAL_UNLOCKED;
 8000dac:	687b      	ldr	r3, [r7, #4]
 8000dae:	2234      	movs	r2, #52	; 0x34
 8000db0:	2100      	movs	r1, #0
 8000db2:	5499      	strb	r1, [r3, r2]
    
    /* Init the low level hardware */
    hadc->MspInitCallback(hadc);
#else
    /* Init the low level hardware */
    HAL_ADC_MspInit(hadc);
 8000db4:	687b      	ldr	r3, [r7, #4]
 8000db6:	0018      	movs	r0, r3
 8000db8:	f7ff fd56 	bl	8000868 <HAL_ADC_MspInit>
  /* Configuration of ADC parameters if previous preliminary actions are      */ 
  /* correctly completed.                                                     */
  /* and if there is no conversion on going on regular group (ADC can be      */ 
  /* enabled anyway, in case of call of this function to update a parameter   */
  /* on the fly).                                                             */
  if (HAL_IS_BIT_CLR(hadc->State, HAL_ADC_STATE_ERROR_INTERNAL) &&
 8000dbc:	687b      	ldr	r3, [r7, #4]
 8000dbe:	6b9b      	ldr	r3, [r3, #56]	; 0x38
 8000dc0:	2210      	movs	r2, #16
 8000dc2:	4013      	ands	r3, r2
 8000dc4:	d000      	beq.n	8000dc8 <HAL_ADC_Init+0x48>
 8000dc6:	e103      	b.n	8000fd0 <HAL_ADC_Init+0x250>
 8000dc8:	230f      	movs	r3, #15
 8000dca:	18fb      	adds	r3, r7, r3
 8000dcc:	781b      	ldrb	r3, [r3, #0]
 8000dce:	2b00      	cmp	r3, #0
 8000dd0:	d000      	beq.n	8000dd4 <HAL_ADC_Init+0x54>
 8000dd2:	e0fd      	b.n	8000fd0 <HAL_ADC_Init+0x250>
      (tmp_hal_status == HAL_OK)                                &&
      (ADC_IS_CONVERSION_ONGOING_REGULAR(hadc) == RESET)          )
 8000dd4:	687b      	ldr	r3, [r7, #4]
 8000dd6:	681b      	ldr	r3, [r3, #0]
 8000dd8:	689b      	ldr	r3, [r3, #8]
 8000dda:	2204      	movs	r2, #4
 8000ddc:	4013      	ands	r3, r2
      (tmp_hal_status == HAL_OK)                                &&
 8000dde:	d000      	beq.n	8000de2 <HAL_ADC_Init+0x62>
 8000de0:	e0f6      	b.n	8000fd0 <HAL_ADC_Init+0x250>
  {
    /* Set ADC state */
    ADC_STATE_CLR_SET(hadc->State,
 8000de2:	687b      	ldr	r3, [r7, #4]
 8000de4:	6b9b      	ldr	r3, [r3, #56]	; 0x38
 8000de6:	4a83      	ldr	r2, [pc, #524]	; (8000ff4 <HAL_ADC_Init+0x274>)
 8000de8:	4013      	ands	r3, r2
 8000dea:	2202      	movs	r2, #2
 8000dec:	431a      	orrs	r2, r3
 8000dee:	687b      	ldr	r3, [r7, #4]
 8000df0:	639a      	str	r2, [r3, #56]	; 0x38
    /* Parameters update conditioned to ADC state:                            */
    /* Parameters that can be updated only when ADC is disabled:              */
    /*  - ADC clock mode                                                      */
    /*  - ADC clock prescaler                                                 */
    /*  - ADC resolution                                                      */
    if (ADC_IS_ENABLE(hadc) == RESET)
 8000df2:	687b      	ldr	r3, [r7, #4]
 8000df4:	681b      	ldr	r3, [r3, #0]
 8000df6:	689b      	ldr	r3, [r3, #8]
 8000df8:	2203      	movs	r2, #3
 8000dfa:	4013      	ands	r3, r2
 8000dfc:	2b01      	cmp	r3, #1
 8000dfe:	d112      	bne.n	8000e26 <HAL_ADC_Init+0xa6>
 8000e00:	687b      	ldr	r3, [r7, #4]
 8000e02:	681b      	ldr	r3, [r3, #0]
 8000e04:	681b      	ldr	r3, [r3, #0]
 8000e06:	2201      	movs	r2, #1
 8000e08:	4013      	ands	r3, r2
 8000e0a:	2b01      	cmp	r3, #1
 8000e0c:	d009      	beq.n	8000e22 <HAL_ADC_Init+0xa2>
 8000e0e:	687b      	ldr	r3, [r7, #4]
 8000e10:	681b      	ldr	r3, [r3, #0]
 8000e12:	68da      	ldr	r2, [r3, #12]
 8000e14:	2380      	movs	r3, #128	; 0x80
 8000e16:	021b      	lsls	r3, r3, #8
 8000e18:	401a      	ands	r2, r3
 8000e1a:	2380      	movs	r3, #128	; 0x80
 8000e1c:	021b      	lsls	r3, r3, #8
 8000e1e:	429a      	cmp	r2, r3
 8000e20:	d101      	bne.n	8000e26 <HAL_ADC_Init+0xa6>
 8000e22:	2301      	movs	r3, #1
 8000e24:	e000      	b.n	8000e28 <HAL_ADC_Init+0xa8>
 8000e26:	2300      	movs	r3, #0
 8000e28:	2b00      	cmp	r3, #0
 8000e2a:	d116      	bne.n	8000e5a <HAL_ADC_Init+0xda>
      /* parameters):                                                         */
      /*   - internal measurement paths: Vbat, temperature sensor, Vref       */
      /*     (set into HAL_ADC_ConfigChannel() )                              */
     
      /* Configuration of ADC resolution                                      */
      MODIFY_REG(hadc->Instance->CFGR1,
 8000e2c:	687b      	ldr	r3, [r7, #4]
 8000e2e:	681b      	ldr	r3, [r3, #0]
 8000e30:	68db      	ldr	r3, [r3, #12]
 8000e32:	2218      	movs	r2, #24
 8000e34:	4393      	bics	r3, r2
 8000e36:	0019      	movs	r1, r3
 8000e38:	687b      	ldr	r3, [r7, #4]
 8000e3a:	689a      	ldr	r2, [r3, #8]
 8000e3c:	687b      	ldr	r3, [r7, #4]
 8000e3e:	681b      	ldr	r3, [r3, #0]
 8000e40:	430a      	orrs	r2, r1
 8000e42:	60da      	str	r2, [r3, #12]
                 ADC_CFGR1_RES        ,
                 hadc->Init.Resolution );
      
      /* Configuration of ADC clock mode: clock source AHB or HSI with        */
      /* selectable prescaler                                                 */
      MODIFY_REG(hadc->Instance->CFGR2    ,
 8000e44:	687b      	ldr	r3, [r7, #4]
 8000e46:	681b      	ldr	r3, [r3, #0]
 8000e48:	691b      	ldr	r3, [r3, #16]
 8000e4a:	009b      	lsls	r3, r3, #2
 8000e4c:	0899      	lsrs	r1, r3, #2
 8000e4e:	687b      	ldr	r3, [r7, #4]
 8000e50:	685a      	ldr	r2, [r3, #4]
 8000e52:	687b      	ldr	r3, [r7, #4]
 8000e54:	681b      	ldr	r3, [r3, #0]
 8000e56:	430a      	orrs	r2, r1
 8000e58:	611a      	str	r2, [r3, #16]
    /*  - external trigger polarity                                           */
    /*  - data alignment                                                      */
    /*  - resolution                                                          */
    /*  - scan direction                                                      */
    /*  - DMA continuous request                                              */
    hadc->Instance->CFGR1 &= ~( ADC_CFGR1_DISCEN  |
 8000e5a:	687b      	ldr	r3, [r7, #4]
 8000e5c:	681b      	ldr	r3, [r3, #0]
 8000e5e:	68da      	ldr	r2, [r3, #12]
 8000e60:	687b      	ldr	r3, [r7, #4]
 8000e62:	681b      	ldr	r3, [r3, #0]
 8000e64:	4964      	ldr	r1, [pc, #400]	; (8000ff8 <HAL_ADC_Init+0x278>)
 8000e66:	400a      	ands	r2, r1
 8000e68:	60da      	str	r2, [r3, #12]
                                ADC_CFGR1_EXTEN   |
                                ADC_CFGR1_ALIGN   |
                                ADC_CFGR1_SCANDIR |
                                ADC_CFGR1_DMACFG   );

    tmpCFGR1 |= (ADC_CFGR1_AUTOWAIT((uint32_t)hadc->Init.LowPowerAutoWait)        |
 8000e6a:	687b      	ldr	r3, [r7, #4]
 8000e6c:	7e1b      	ldrb	r3, [r3, #24]
 8000e6e:	039a      	lsls	r2, r3, #14
                 ADC_CFGR1_AUTOOFF((uint32_t)hadc->Init.LowPowerAutoPowerOff)     |
 8000e70:	687b      	ldr	r3, [r7, #4]
 8000e72:	7e5b      	ldrb	r3, [r3, #25]
 8000e74:	03db      	lsls	r3, r3, #15
    tmpCFGR1 |= (ADC_CFGR1_AUTOWAIT((uint32_t)hadc->Init.LowPowerAutoWait)        |
 8000e76:	431a      	orrs	r2, r3
                 ADC_CFGR1_CONTINUOUS((uint32_t)hadc->Init.ContinuousConvMode)    |
 8000e78:	687b      	ldr	r3, [r7, #4]
 8000e7a:	7e9b      	ldrb	r3, [r3, #26]
 8000e7c:	035b      	lsls	r3, r3, #13
                 ADC_CFGR1_AUTOOFF((uint32_t)hadc->Init.LowPowerAutoPowerOff)     |
 8000e7e:	431a      	orrs	r2, r3
                 ADC_CFGR1_OVERRUN(hadc->Init.Overrun)                            |
 8000e80:	687b      	ldr	r3, [r7, #4]
 8000e82:	6a9b      	ldr	r3, [r3, #40]	; 0x28
 8000e84:	2b01      	cmp	r3, #1
 8000e86:	d002      	beq.n	8000e8e <HAL_ADC_Init+0x10e>
 8000e88:	2380      	movs	r3, #128	; 0x80
 8000e8a:	015b      	lsls	r3, r3, #5
 8000e8c:	e000      	b.n	8000e90 <HAL_ADC_Init+0x110>
 8000e8e:	2300      	movs	r3, #0
                 ADC_CFGR1_CONTINUOUS((uint32_t)hadc->Init.ContinuousConvMode)    |
 8000e90:	431a      	orrs	r2, r3
                 hadc->Init.DataAlign                                             |
 8000e92:	687b      	ldr	r3, [r7, #4]
 8000e94:	68db      	ldr	r3, [r3, #12]
                 ADC_CFGR1_OVERRUN(hadc->Init.Overrun)                            |
 8000e96:	431a      	orrs	r2, r3
                 ADC_SCANDIR(hadc->Init.ScanConvMode)                             |
 8000e98:	687b      	ldr	r3, [r7, #4]
 8000e9a:	691b      	ldr	r3, [r3, #16]
 8000e9c:	2b02      	cmp	r3, #2
 8000e9e:	d101      	bne.n	8000ea4 <HAL_ADC_Init+0x124>
 8000ea0:	2304      	movs	r3, #4
 8000ea2:	e000      	b.n	8000ea6 <HAL_ADC_Init+0x126>
 8000ea4:	2300      	movs	r3, #0
                 hadc->Init.DataAlign                                             |
 8000ea6:	431a      	orrs	r2, r3
                 ADC_CFGR1_DMACONTREQ((uint32_t)hadc->Init.DMAContinuousRequests)  );
 8000ea8:	687b      	ldr	r3, [r7, #4]
 8000eaa:	2124      	movs	r1, #36	; 0x24
 8000eac:	5c5b      	ldrb	r3, [r3, r1]
 8000eae:	005b      	lsls	r3, r3, #1
                 ADC_SCANDIR(hadc->Init.ScanConvMode)                             |
 8000eb0:	4313      	orrs	r3, r2
    tmpCFGR1 |= (ADC_CFGR1_AUTOWAIT((uint32_t)hadc->Init.LowPowerAutoWait)        |
 8000eb2:	68ba      	ldr	r2, [r7, #8]
 8000eb4:	4313      	orrs	r3, r2
 8000eb6:	60bb      	str	r3, [r7, #8]
    
    /* Enable discontinuous mode only if continuous mode is disabled */
    if (hadc->Init.DiscontinuousConvMode == ENABLE)
 8000eb8:	687b      	ldr	r3, [r7, #4]
 8000eba:	7edb      	ldrb	r3, [r3, #27]
 8000ebc:	2b01      	cmp	r3, #1
 8000ebe:	d115      	bne.n	8000eec <HAL_ADC_Init+0x16c>
    {
      if (hadc->Init.ContinuousConvMode == DISABLE)
 8000ec0:	687b      	ldr	r3, [r7, #4]
 8000ec2:	7e9b      	ldrb	r3, [r3, #26]
 8000ec4:	2b00      	cmp	r3, #0
 8000ec6:	d105      	bne.n	8000ed4 <HAL_ADC_Init+0x154>
      {
        /* Enable the selected ADC group regular discontinuous mode */
        tmpCFGR1 |= ADC_CFGR1_DISCEN;
 8000ec8:	68bb      	ldr	r3, [r7, #8]
 8000eca:	2280      	movs	r2, #128	; 0x80
 8000ecc:	0252      	lsls	r2, r2, #9
 8000ece:	4313      	orrs	r3, r2
 8000ed0:	60bb      	str	r3, [r7, #8]
 8000ed2:	e00b      	b.n	8000eec <HAL_ADC_Init+0x16c>
        /* ADC regular group discontinuous was intended to be enabled,        */
        /* but ADC regular group modes continuous and sequencer discontinuous */
        /* cannot be enabled simultaneously.                                  */
        
        /* Update ADC state machine to error */
        SET_BIT(hadc->State, HAL_ADC_STATE_ERROR_CONFIG);
 8000ed4:	687b      	ldr	r3, [r7, #4]
 8000ed6:	6b9b      	ldr	r3, [r3, #56]	; 0x38
 8000ed8:	2220      	movs	r2, #32
 8000eda:	431a      	orrs	r2, r3
 8000edc:	687b      	ldr	r3, [r7, #4]
 8000ede:	639a      	str	r2, [r3, #56]	; 0x38
        
        /* Set ADC error code to ADC IP internal error */
        SET_BIT(hadc->ErrorCode, HAL_ADC_ERROR_INTERNAL);
 8000ee0:	687b      	ldr	r3, [r7, #4]
 8000ee2:	6bdb      	ldr	r3, [r3, #60]	; 0x3c
 8000ee4:	2201      	movs	r2, #1
 8000ee6:	431a      	orrs	r2, r3
 8000ee8:	687b      	ldr	r3, [r7, #4]
 8000eea:	63da      	str	r2, [r3, #60]	; 0x3c
    /* Enable external trigger if trigger selection is different of software  */
    /* start.                                                                 */
    /* Note: This configuration keeps the hardware feature of parameter       */
    /*       ExternalTrigConvEdge "trigger edge none" equivalent to           */
    /*       software start.                                                  */
    if (hadc->Init.ExternalTrigConv != ADC_SOFTWARE_START)
 8000eec:	687b      	ldr	r3, [r7, #4]
 8000eee:	69da      	ldr	r2, [r3, #28]
 8000ef0:	23c2      	movs	r3, #194	; 0xc2
 8000ef2:	33ff      	adds	r3, #255	; 0xff
 8000ef4:	429a      	cmp	r2, r3
 8000ef6:	d007      	beq.n	8000f08 <HAL_ADC_Init+0x188>
    {
      tmpCFGR1 |= ( hadc->Init.ExternalTrigConv    |
 8000ef8:	687b      	ldr	r3, [r7, #4]
 8000efa:	69da      	ldr	r2, [r3, #28]
                    hadc->Init.ExternalTrigConvEdge );
 8000efc:	687b      	ldr	r3, [r7, #4]
 8000efe:	6a1b      	ldr	r3, [r3, #32]
      tmpCFGR1 |= ( hadc->Init.ExternalTrigConv    |
 8000f00:	4313      	orrs	r3, r2
 8000f02:	68ba      	ldr	r2, [r7, #8]
 8000f04:	4313      	orrs	r3, r2
 8000f06:	60bb      	str	r3, [r7, #8]
    }
    
    /* Update ADC configuration register with previous settings */
    hadc->Instance->CFGR1 |= tmpCFGR1;
 8000f08:	687b      	ldr	r3, [r7, #4]
 8000f0a:	681b      	ldr	r3, [r3, #0]
 8000f0c:	68d9      	ldr	r1, [r3, #12]
 8000f0e:	687b      	ldr	r3, [r7, #4]
 8000f10:	681b      	ldr	r3, [r3, #0]
 8000f12:	68ba      	ldr	r2, [r7, #8]
 8000f14:	430a      	orrs	r2, r1
 8000f16:	60da      	str	r2, [r3, #12]
    /* Management of parameters "SamplingTimeCommon" and "SamplingTime"       */
    /* (obsolete): sampling time set in this function if parameter            */
    /*  "SamplingTimeCommon" has been set to a valid sampling time.           */
    /* Otherwise, sampling time is set into ADC channel initialization        */
    /* structure with parameter "SamplingTime" (obsolete).                    */
    if (IS_ADC_SAMPLE_TIME(hadc->Init.SamplingTimeCommon))
 8000f18:	687b      	ldr	r3, [r7, #4]
 8000f1a:	6ada      	ldr	r2, [r3, #44]	; 0x2c
 8000f1c:	2380      	movs	r3, #128	; 0x80
 8000f1e:	055b      	lsls	r3, r3, #21
 8000f20:	429a      	cmp	r2, r3
 8000f22:	d01b      	beq.n	8000f5c <HAL_ADC_Init+0x1dc>
 8000f24:	687b      	ldr	r3, [r7, #4]
 8000f26:	6adb      	ldr	r3, [r3, #44]	; 0x2c
 8000f28:	2b01      	cmp	r3, #1
 8000f2a:	d017      	beq.n	8000f5c <HAL_ADC_Init+0x1dc>
 8000f2c:	687b      	ldr	r3, [r7, #4]
 8000f2e:	6adb      	ldr	r3, [r3, #44]	; 0x2c
 8000f30:	2b02      	cmp	r3, #2
 8000f32:	d013      	beq.n	8000f5c <HAL_ADC_Init+0x1dc>
 8000f34:	687b      	ldr	r3, [r7, #4]
 8000f36:	6adb      	ldr	r3, [r3, #44]	; 0x2c
 8000f38:	2b03      	cmp	r3, #3
 8000f3a:	d00f      	beq.n	8000f5c <HAL_ADC_Init+0x1dc>
 8000f3c:	687b      	ldr	r3, [r7, #4]
 8000f3e:	6adb      	ldr	r3, [r3, #44]	; 0x2c
 8000f40:	2b04      	cmp	r3, #4
 8000f42:	d00b      	beq.n	8000f5c <HAL_ADC_Init+0x1dc>
 8000f44:	687b      	ldr	r3, [r7, #4]
 8000f46:	6adb      	ldr	r3, [r3, #44]	; 0x2c
 8000f48:	2b05      	cmp	r3, #5
 8000f4a:	d007      	beq.n	8000f5c <HAL_ADC_Init+0x1dc>
 8000f4c:	687b      	ldr	r3, [r7, #4]
 8000f4e:	6adb      	ldr	r3, [r3, #44]	; 0x2c
 8000f50:	2b06      	cmp	r3, #6
 8000f52:	d003      	beq.n	8000f5c <HAL_ADC_Init+0x1dc>
 8000f54:	687b      	ldr	r3, [r7, #4]
 8000f56:	6adb      	ldr	r3, [r3, #44]	; 0x2c
 8000f58:	2b07      	cmp	r3, #7
 8000f5a:	d112      	bne.n	8000f82 <HAL_ADC_Init+0x202>
    {
      /* Channel sampling time configuration */
      /* Clear the old sample time */
      hadc->Instance->SMPR &= ~(ADC_SMPR_SMP);
 8000f5c:	687b      	ldr	r3, [r7, #4]
 8000f5e:	681b      	ldr	r3, [r3, #0]
 8000f60:	695a      	ldr	r2, [r3, #20]
 8000f62:	687b      	ldr	r3, [r7, #4]
 8000f64:	681b      	ldr	r3, [r3, #0]
 8000f66:	2107      	movs	r1, #7
 8000f68:	438a      	bics	r2, r1
 8000f6a:	615a      	str	r2, [r3, #20]
      
      /* Set the new sample time */
      hadc->Instance->SMPR |= ADC_SMPR_SET(hadc->Init.SamplingTimeCommon);
 8000f6c:	687b      	ldr	r3, [r7, #4]
 8000f6e:	681b      	ldr	r3, [r3, #0]
 8000f70:	6959      	ldr	r1, [r3, #20]
 8000f72:	687b      	ldr	r3, [r7, #4]
 8000f74:	6adb      	ldr	r3, [r3, #44]	; 0x2c
 8000f76:	2207      	movs	r2, #7
 8000f78:	401a      	ands	r2, r3
 8000f7a:	687b      	ldr	r3, [r7, #4]
 8000f7c:	681b      	ldr	r3, [r3, #0]
 8000f7e:	430a      	orrs	r2, r1
 8000f80:	615a      	str	r2, [r3, #20]
    /* Check back that ADC registers have effectively been configured to      */
    /* ensure of no potential problem of ADC core IP clocking.                */
    /* Check through register CFGR1 (excluding analog watchdog configuration: */
    /* set into separate dedicated function, and bits of ADC resolution set   */
    /* out of temporary variable 'tmpCFGR1').                                 */
    if ((hadc->Instance->CFGR1 & ~(ADC_CFGR1_AWDCH | ADC_CFGR1_AWDEN | ADC_CFGR1_AWDSGL | ADC_CFGR1_RES))
 8000f82:	687b      	ldr	r3, [r7, #4]
 8000f84:	681b      	ldr	r3, [r3, #0]
 8000f86:	68db      	ldr	r3, [r3, #12]
 8000f88:	4a1c      	ldr	r2, [pc, #112]	; (8000ffc <HAL_ADC_Init+0x27c>)
 8000f8a:	4013      	ands	r3, r2
 8000f8c:	68ba      	ldr	r2, [r7, #8]
 8000f8e:	429a      	cmp	r2, r3
 8000f90:	d10b      	bne.n	8000faa <HAL_ADC_Init+0x22a>
         == tmpCFGR1)
    {
      /* Set ADC error code to none */
      ADC_CLEAR_ERRORCODE(hadc);
 8000f92:	687b      	ldr	r3, [r7, #4]
 8000f94:	2200      	movs	r2, #0
 8000f96:	63da      	str	r2, [r3, #60]	; 0x3c
      
      /* Set the ADC state */
      ADC_STATE_CLR_SET(hadc->State,
 8000f98:	687b      	ldr	r3, [r7, #4]
 8000f9a:	6b9b      	ldr	r3, [r3, #56]	; 0x38
 8000f9c:	2203      	movs	r2, #3
 8000f9e:	4393      	bics	r3, r2
 8000fa0:	2201      	movs	r2, #1
 8000fa2:	431a      	orrs	r2, r3
 8000fa4:	687b      	ldr	r3, [r7, #4]
 8000fa6:	639a      	str	r2, [r3, #56]	; 0x38
    if ((hadc->Instance->CFGR1 & ~(ADC_CFGR1_AWDCH | ADC_CFGR1_AWDEN | ADC_CFGR1_AWDSGL | ADC_CFGR1_RES))
 8000fa8:	e01c      	b.n	8000fe4 <HAL_ADC_Init+0x264>
                        HAL_ADC_STATE_READY);
    }
    else
    {
      /* Update ADC state machine to error */
      ADC_STATE_CLR_SET(hadc->State,
 8000faa:	687b      	ldr	r3, [r7, #4]
 8000fac:	6b9b      	ldr	r3, [r3, #56]	; 0x38
 8000fae:	2212      	movs	r2, #18
 8000fb0:	4393      	bics	r3, r2
 8000fb2:	2210      	movs	r2, #16
 8000fb4:	431a      	orrs	r2, r3
 8000fb6:	687b      	ldr	r3, [r7, #4]
 8000fb8:	639a      	str	r2, [r3, #56]	; 0x38
                        HAL_ADC_STATE_BUSY_INTERNAL,
                        HAL_ADC_STATE_ERROR_INTERNAL);
      
      /* Set ADC error code to ADC IP internal error */
      SET_BIT(hadc->ErrorCode, HAL_ADC_ERROR_INTERNAL);
 8000fba:	687b      	ldr	r3, [r7, #4]
 8000fbc:	6bdb      	ldr	r3, [r3, #60]	; 0x3c
 8000fbe:	2201      	movs	r2, #1
 8000fc0:	431a      	orrs	r2, r3
 8000fc2:	687b      	ldr	r3, [r7, #4]
 8000fc4:	63da      	str	r2, [r3, #60]	; 0x3c
      
      tmp_hal_status = HAL_ERROR;
 8000fc6:	230f      	movs	r3, #15
 8000fc8:	18fb      	adds	r3, r7, r3
 8000fca:	2201      	movs	r2, #1
 8000fcc:	701a      	strb	r2, [r3, #0]
    if ((hadc->Instance->CFGR1 & ~(ADC_CFGR1_AWDCH | ADC_CFGR1_AWDEN | ADC_CFGR1_AWDSGL | ADC_CFGR1_RES))
 8000fce:	e009      	b.n	8000fe4 <HAL_ADC_Init+0x264>
  
  }
  else
  {
    /* Update ADC state machine to error */
    SET_BIT(hadc->State, HAL_ADC_STATE_ERROR_INTERNAL);
 8000fd0:	687b      	ldr	r3, [r7, #4]
 8000fd2:	6b9b      	ldr	r3, [r3, #56]	; 0x38
 8000fd4:	2210      	movs	r2, #16
 8000fd6:	431a      	orrs	r2, r3
 8000fd8:	687b      	ldr	r3, [r7, #4]
 8000fda:	639a      	str	r2, [r3, #56]	; 0x38
        
    tmp_hal_status = HAL_ERROR;
 8000fdc:	230f      	movs	r3, #15
 8000fde:	18fb      	adds	r3, r7, r3
 8000fe0:	2201      	movs	r2, #1
 8000fe2:	701a      	strb	r2, [r3, #0]
  }
  
  /* Return function status */
  return tmp_hal_status;
 8000fe4:	230f      	movs	r3, #15
 8000fe6:	18fb      	adds	r3, r7, r3
 8000fe8:	781b      	ldrb	r3, [r3, #0]
}
 8000fea:	0018      	movs	r0, r3
 8000fec:	46bd      	mov	sp, r7
 8000fee:	b004      	add	sp, #16
 8000ff0:	bd80      	pop	{r7, pc}
 8000ff2:	46c0      	nop			; (mov r8, r8)
 8000ff4:	fffffefd 	.word	0xfffffefd
 8000ff8:	fffe0219 	.word	0xfffe0219
 8000ffc:	833fffe7 	.word	0x833fffe7

08001000 <HAL_ADC_Start>:
  *         Interruptions enabled in this function: None.
  * @param  hadc ADC handle
  * @retval HAL status
  */
HAL_StatusTypeDef HAL_ADC_Start(ADC_HandleTypeDef* hadc)
{
 8001000:	b590      	push	{r4, r7, lr}
 8001002:	b085      	sub	sp, #20
 8001004:	af00      	add	r7, sp, #0
 8001006:	6078      	str	r0, [r7, #4]
  HAL_StatusTypeDef tmp_hal_status = HAL_OK;
 8001008:	230f      	movs	r3, #15
 800100a:	18fb      	adds	r3, r7, r3
 800100c:	2200      	movs	r2, #0
 800100e:	701a      	strb	r2, [r3, #0]

  /* Check the parameters */
  assert_param(IS_ADC_ALL_INSTANCE(hadc->Instance));

  /* Perform ADC enable and conversion start if no conversion is on going */
  if (ADC_IS_CONVERSION_ONGOING_REGULAR(hadc) == RESET)
 8001010:	687b      	ldr	r3, [r7, #4]
 8001012:	681b      	ldr	r3, [r3, #0]
 8001014:	689b      	ldr	r3, [r3, #8]
 8001016:	2204      	movs	r2, #4
 8001018:	4013      	ands	r3, r2
 800101a:	d138      	bne.n	800108e <HAL_ADC_Start+0x8e>
  {
    /* Process locked */
    __HAL_LOCK(hadc);
 800101c:	687b      	ldr	r3, [r7, #4]
 800101e:	2234      	movs	r2, #52	; 0x34
 8001020:	5c9b      	ldrb	r3, [r3, r2]
 8001022:	2b01      	cmp	r3, #1
 8001024:	d101      	bne.n	800102a <HAL_ADC_Start+0x2a>
 8001026:	2302      	movs	r3, #2
 8001028:	e038      	b.n	800109c <HAL_ADC_Start+0x9c>
 800102a:	687b      	ldr	r3, [r7, #4]
 800102c:	2234      	movs	r2, #52	; 0x34
 800102e:	2101      	movs	r1, #1
 8001030:	5499      	strb	r1, [r3, r2]
      
    /* Enable the ADC peripheral */
    /* If low power mode AutoPowerOff is enabled, power-on/off phases are     */
    /* performed automatically by hardware.                                   */
    if (hadc->Init.LowPowerAutoPowerOff != ENABLE)
 8001032:	687b      	ldr	r3, [r7, #4]
 8001034:	7e5b      	ldrb	r3, [r3, #25]
 8001036:	2b01      	cmp	r3, #1
 8001038:	d007      	beq.n	800104a <HAL_ADC_Start+0x4a>
    {
      tmp_hal_status = ADC_Enable(hadc);
 800103a:	230f      	movs	r3, #15
 800103c:	18fc      	adds	r4, r7, r3
 800103e:	687b      	ldr	r3, [r7, #4]
 8001040:	0018      	movs	r0, r3
 8001042:	f000 faf3 	bl	800162c <ADC_Enable>
 8001046:	0003      	movs	r3, r0
 8001048:	7023      	strb	r3, [r4, #0]
    }
    
    /* Start conversion if ADC is effectively enabled */
    if (tmp_hal_status == HAL_OK)
 800104a:	230f      	movs	r3, #15
 800104c:	18fb      	adds	r3, r7, r3
 800104e:	781b      	ldrb	r3, [r3, #0]
 8001050:	2b00      	cmp	r3, #0
 8001052:	d120      	bne.n	8001096 <HAL_ADC_Start+0x96>
    {
      /* Set ADC state                                                        */
      /* - Clear state bitfield related to regular group conversion results   */
      /* - Set state bitfield related to regular operation                    */
      ADC_STATE_CLR_SET(hadc->State,
 8001054:	687b      	ldr	r3, [r7, #4]
 8001056:	6b9b      	ldr	r3, [r3, #56]	; 0x38
 8001058:	4a12      	ldr	r2, [pc, #72]	; (80010a4 <HAL_ADC_Start+0xa4>)
 800105a:	4013      	ands	r3, r2
 800105c:	2280      	movs	r2, #128	; 0x80
 800105e:	0052      	lsls	r2, r2, #1
 8001060:	431a      	orrs	r2, r3
 8001062:	687b      	ldr	r3, [r7, #4]
 8001064:	639a      	str	r2, [r3, #56]	; 0x38
                        HAL_ADC_STATE_READY | HAL_ADC_STATE_REG_EOC | HAL_ADC_STATE_REG_OVR | HAL_ADC_STATE_REG_EOSMP,
                        HAL_ADC_STATE_REG_BUSY);
      
      /* Reset ADC all error code fields */
      ADC_CLEAR_ERRORCODE(hadc);
 8001066:	687b      	ldr	r3, [r7, #4]
 8001068:	2200      	movs	r2, #0
 800106a:	63da      	str	r2, [r3, #60]	; 0x3c
      
      /* Process unlocked */
      /* Unlock before starting ADC conversions: in case of potential         */
      /* interruption, to let the process to ADC IRQ Handler.                 */
      __HAL_UNLOCK(hadc);
 800106c:	687b      	ldr	r3, [r7, #4]
 800106e:	2234      	movs	r2, #52	; 0x34
 8001070:	2100      	movs	r1, #0
 8001072:	5499      	strb	r1, [r3, r2]
      
      /* Clear regular group conversion flag and overrun flag */
      /* (To ensure of no unknown state from potential previous ADC           */
      /* operations)                                                          */
      __HAL_ADC_CLEAR_FLAG(hadc, (ADC_FLAG_EOC | ADC_FLAG_EOS | ADC_FLAG_OVR));
 8001074:	687b      	ldr	r3, [r7, #4]
 8001076:	681b      	ldr	r3, [r3, #0]
 8001078:	221c      	movs	r2, #28
 800107a:	601a      	str	r2, [r3, #0]
      
      /* Enable conversion of regular group.                                  */
      /* If software start has been selected, conversion starts immediately.  */
      /* If external trigger has been selected, conversion will start at next */
      /* trigger event.                                                       */
      hadc->Instance->CR |= ADC_CR_ADSTART;
 800107c:	687b      	ldr	r3, [r7, #4]
 800107e:	681b      	ldr	r3, [r3, #0]
 8001080:	689a      	ldr	r2, [r3, #8]
 8001082:	687b      	ldr	r3, [r7, #4]
 8001084:	681b      	ldr	r3, [r3, #0]
 8001086:	2104      	movs	r1, #4
 8001088:	430a      	orrs	r2, r1
 800108a:	609a      	str	r2, [r3, #8]
 800108c:	e003      	b.n	8001096 <HAL_ADC_Start+0x96>
    }
  }
  else
  {
    tmp_hal_status = HAL_BUSY;
 800108e:	230f      	movs	r3, #15
 8001090:	18fb      	adds	r3, r7, r3
 8001092:	2202      	movs	r2, #2
 8001094:	701a      	strb	r2, [r3, #0]
  }
  
  /* Return function status */
  return tmp_hal_status;
 8001096:	230f      	movs	r3, #15
 8001098:	18fb      	adds	r3, r7, r3
 800109a:	781b      	ldrb	r3, [r3, #0]
}
 800109c:	0018      	movs	r0, r3
 800109e:	46bd      	mov	sp, r7
 80010a0:	b005      	add	sp, #20
 80010a2:	bd90      	pop	{r4, r7, pc}
 80010a4:	fffff0fe 	.word	0xfffff0fe

080010a8 <HAL_ADC_Stop>:
  * @brief  Stop ADC conversion of regular group, disable ADC peripheral.
  * @param  hadc ADC handle
  * @retval HAL status.
  */
HAL_StatusTypeDef HAL_ADC_Stop(ADC_HandleTypeDef* hadc)
{ 
 80010a8:	b5b0      	push	{r4, r5, r7, lr}
 80010aa:	b084      	sub	sp, #16
 80010ac:	af00      	add	r7, sp, #0
 80010ae:	6078      	str	r0, [r7, #4]
  HAL_StatusTypeDef tmp_hal_status = HAL_OK;
 80010b0:	230f      	movs	r3, #15
 80010b2:	18fb      	adds	r3, r7, r3
 80010b4:	2200      	movs	r2, #0
 80010b6:	701a      	strb	r2, [r3, #0]
  
  /* Check the parameters */
  assert_param(IS_ADC_ALL_INSTANCE(hadc->Instance));
  
  /* Process locked */
  __HAL_LOCK(hadc);
 80010b8:	687b      	ldr	r3, [r7, #4]
 80010ba:	2234      	movs	r2, #52	; 0x34
 80010bc:	5c9b      	ldrb	r3, [r3, r2]
 80010be:	2b01      	cmp	r3, #1
 80010c0:	d101      	bne.n	80010c6 <HAL_ADC_Stop+0x1e>
 80010c2:	2302      	movs	r3, #2
 80010c4:	e029      	b.n	800111a <HAL_ADC_Stop+0x72>
 80010c6:	687b      	ldr	r3, [r7, #4]
 80010c8:	2234      	movs	r2, #52	; 0x34
 80010ca:	2101      	movs	r1, #1
 80010cc:	5499      	strb	r1, [r3, r2]
  
  /* 1. Stop potential conversion on going, on regular group */
  tmp_hal_status = ADC_ConversionStop(hadc);
 80010ce:	250f      	movs	r5, #15
 80010d0:	197c      	adds	r4, r7, r5
 80010d2:	687b      	ldr	r3, [r7, #4]
 80010d4:	0018      	movs	r0, r3
 80010d6:	f000 fb9e 	bl	8001816 <ADC_ConversionStop>
 80010da:	0003      	movs	r3, r0
 80010dc:	7023      	strb	r3, [r4, #0]
  
  /* Disable ADC peripheral if conversions are effectively stopped */
  if (tmp_hal_status == HAL_OK)
 80010de:	197b      	adds	r3, r7, r5
 80010e0:	781b      	ldrb	r3, [r3, #0]
 80010e2:	2b00      	cmp	r3, #0
 80010e4:	d112      	bne.n	800110c <HAL_ADC_Stop+0x64>
  {
    /* 2. Disable the ADC peripheral */
    tmp_hal_status = ADC_Disable(hadc);
 80010e6:	197c      	adds	r4, r7, r5
 80010e8:	687b      	ldr	r3, [r7, #4]
 80010ea:	0018      	movs	r0, r3
 80010ec:	f000 fb22 	bl	8001734 <ADC_Disable>
 80010f0:	0003      	movs	r3, r0
 80010f2:	7023      	strb	r3, [r4, #0]
    
    /* Check if ADC is effectively disabled */
    if (tmp_hal_status == HAL_OK)
 80010f4:	197b      	adds	r3, r7, r5
 80010f6:	781b      	ldrb	r3, [r3, #0]
 80010f8:	2b00      	cmp	r3, #0
 80010fa:	d107      	bne.n	800110c <HAL_ADC_Stop+0x64>
    {
      /* Set ADC state */
      ADC_STATE_CLR_SET(hadc->State,
 80010fc:	687b      	ldr	r3, [r7, #4]
 80010fe:	6b9b      	ldr	r3, [r3, #56]	; 0x38
 8001100:	4a08      	ldr	r2, [pc, #32]	; (8001124 <HAL_ADC_Stop+0x7c>)
 8001102:	4013      	ands	r3, r2
 8001104:	2201      	movs	r2, #1
 8001106:	431a      	orrs	r2, r3
 8001108:	687b      	ldr	r3, [r7, #4]
 800110a:	639a      	str	r2, [r3, #56]	; 0x38
                        HAL_ADC_STATE_READY);
    }
  }

  /* Process unlocked */
  __HAL_UNLOCK(hadc);
 800110c:	687b      	ldr	r3, [r7, #4]
 800110e:	2234      	movs	r2, #52	; 0x34
 8001110:	2100      	movs	r1, #0
 8001112:	5499      	strb	r1, [r3, r2]
  
  /* Return function status */
  return tmp_hal_status;
 8001114:	230f      	movs	r3, #15
 8001116:	18fb      	adds	r3, r7, r3
 8001118:	781b      	ldrb	r3, [r3, #0]
}
 800111a:	0018      	movs	r0, r3
 800111c:	46bd      	mov	sp, r7
 800111e:	b004      	add	sp, #16
 8001120:	bdb0      	pop	{r4, r5, r7, pc}
 8001122:	46c0      	nop			; (mov r8, r8)
 8001124:	fffffefe 	.word	0xfffffefe

08001128 <HAL_ADC_PollForConversion>:
  * @param  hadc ADC handle
  * @param  Timeout Timeout value in millisecond.
  * @retval HAL status
  */
HAL_StatusTypeDef HAL_ADC_PollForConversion(ADC_HandleTypeDef* hadc, uint32_t Timeout)
{
 8001128:	b580      	push	{r7, lr}
 800112a:	b084      	sub	sp, #16
 800112c:	af00      	add	r7, sp, #0
 800112e:	6078      	str	r0, [r7, #4]
 8001130:	6039      	str	r1, [r7, #0]
 
  /* Check the parameters */
  assert_param(IS_ADC_ALL_INSTANCE(hadc->Instance));

  /* If end of conversion selected to end of sequence */
  if (hadc->Init.EOCSelection == ADC_EOC_SEQ_CONV)
 8001132:	687b      	ldr	r3, [r7, #4]
 8001134:	695b      	ldr	r3, [r3, #20]
 8001136:	2b08      	cmp	r3, #8
 8001138:	d102      	bne.n	8001140 <HAL_ADC_PollForConversion+0x18>
  {
    tmp_Flag_EOC = ADC_FLAG_EOS;
 800113a:	2308      	movs	r3, #8
 800113c:	60fb      	str	r3, [r7, #12]
 800113e:	e014      	b.n	800116a <HAL_ADC_PollForConversion+0x42>
    /* each conversion:                                                       */
    /* Particular case is ADC configured in DMA mode and ADC sequencer with   */
    /* several ranks and polling for end of each conversion.                  */
    /* For code simplicity sake, this particular case is generalized to       */
    /* ADC configured in DMA mode and and polling for end of each conversion. */
    if (HAL_IS_BIT_SET(hadc->Instance->CFGR1, ADC_CFGR1_DMAEN))
 8001140:	687b      	ldr	r3, [r7, #4]
 8001142:	681b      	ldr	r3, [r3, #0]
 8001144:	68db      	ldr	r3, [r3, #12]
 8001146:	2201      	movs	r2, #1
 8001148:	4013      	ands	r3, r2
 800114a:	2b01      	cmp	r3, #1
 800114c:	d10b      	bne.n	8001166 <HAL_ADC_PollForConversion+0x3e>
    {
      /* Update ADC state machine to error */
      SET_BIT(hadc->State, HAL_ADC_STATE_ERROR_CONFIG);
 800114e:	687b      	ldr	r3, [r7, #4]
 8001150:	6b9b      	ldr	r3, [r3, #56]	; 0x38
 8001152:	2220      	movs	r2, #32
 8001154:	431a      	orrs	r2, r3
 8001156:	687b      	ldr	r3, [r7, #4]
 8001158:	639a      	str	r2, [r3, #56]	; 0x38
      
      /* Process unlocked */
      __HAL_UNLOCK(hadc);
 800115a:	687b      	ldr	r3, [r7, #4]
 800115c:	2234      	movs	r2, #52	; 0x34
 800115e:	2100      	movs	r1, #0
 8001160:	5499      	strb	r1, [r3, r2]
      
      return HAL_ERROR;
 8001162:	2301      	movs	r3, #1
 8001164:	e071      	b.n	800124a <HAL_ADC_PollForConversion+0x122>
    }
    else
    {
      tmp_Flag_EOC = (ADC_FLAG_EOC | ADC_FLAG_EOS);
 8001166:	230c      	movs	r3, #12
 8001168:	60fb      	str	r3, [r7, #12]
    }
  }
  
  /* Get tick count */
  tickstart = HAL_GetTick();
 800116a:	f7ff fddb 	bl	8000d24 <HAL_GetTick>
 800116e:	0003      	movs	r3, r0
 8001170:	60bb      	str	r3, [r7, #8]
  
  /* Wait until End of Conversion flag is raised */
  while(HAL_IS_BIT_CLR(hadc->Instance->ISR, tmp_Flag_EOC))
 8001172:	e01f      	b.n	80011b4 <HAL_ADC_PollForConversion+0x8c>
  {
    /* Check if timeout is disabled (set to infinite wait) */
    if(Timeout != HAL_MAX_DELAY)
 8001174:	683b      	ldr	r3, [r7, #0]
 8001176:	3301      	adds	r3, #1
 8001178:	d01c      	beq.n	80011b4 <HAL_ADC_PollForConversion+0x8c>
    {
      if((Timeout == 0) || ((HAL_GetTick()-tickstart) > Timeout))
 800117a:	683b      	ldr	r3, [r7, #0]
 800117c:	2b00      	cmp	r3, #0
 800117e:	d007      	beq.n	8001190 <HAL_ADC_PollForConversion+0x68>
 8001180:	f7ff fdd0 	bl	8000d24 <HAL_GetTick>
 8001184:	0002      	movs	r2, r0
 8001186:	68bb      	ldr	r3, [r7, #8]
 8001188:	1ad3      	subs	r3, r2, r3
 800118a:	683a      	ldr	r2, [r7, #0]
 800118c:	429a      	cmp	r2, r3
 800118e:	d211      	bcs.n	80011b4 <HAL_ADC_PollForConversion+0x8c>
      {
        /* New check to avoid false timeout detection in case of preemption */
        if(HAL_IS_BIT_CLR(hadc->Instance->ISR, tmp_Flag_EOC))
 8001190:	687b      	ldr	r3, [r7, #4]
 8001192:	681b      	ldr	r3, [r3, #0]
 8001194:	681b      	ldr	r3, [r3, #0]
 8001196:	68fa      	ldr	r2, [r7, #12]
 8001198:	4013      	ands	r3, r2
 800119a:	d10b      	bne.n	80011b4 <HAL_ADC_PollForConversion+0x8c>
        {
          /* Update ADC state machine to timeout */
          SET_BIT(hadc->State, HAL_ADC_STATE_TIMEOUT);
 800119c:	687b      	ldr	r3, [r7, #4]
 800119e:	6b9b      	ldr	r3, [r3, #56]	; 0x38
 80011a0:	2204      	movs	r2, #4
 80011a2:	431a      	orrs	r2, r3
 80011a4:	687b      	ldr	r3, [r7, #4]
 80011a6:	639a      	str	r2, [r3, #56]	; 0x38

          /* Process unlocked */
          __HAL_UNLOCK(hadc);
 80011a8:	687b      	ldr	r3, [r7, #4]
 80011aa:	2234      	movs	r2, #52	; 0x34
 80011ac:	2100      	movs	r1, #0
 80011ae:	5499      	strb	r1, [r3, r2]

          return HAL_TIMEOUT;
 80011b0:	2303      	movs	r3, #3
 80011b2:	e04a      	b.n	800124a <HAL_ADC_PollForConversion+0x122>
  while(HAL_IS_BIT_CLR(hadc->Instance->ISR, tmp_Flag_EOC))
 80011b4:	687b      	ldr	r3, [r7, #4]
 80011b6:	681b      	ldr	r3, [r3, #0]
 80011b8:	681b      	ldr	r3, [r3, #0]
 80011ba:	68fa      	ldr	r2, [r7, #12]
 80011bc:	4013      	ands	r3, r2
 80011be:	d0d9      	beq.n	8001174 <HAL_ADC_PollForConversion+0x4c>
      }
    }
  }
    
  /* Update ADC state machine */
  SET_BIT(hadc->State, HAL_ADC_STATE_REG_EOC);
 80011c0:	687b      	ldr	r3, [r7, #4]
 80011c2:	6b9b      	ldr	r3, [r3, #56]	; 0x38
 80011c4:	2280      	movs	r2, #128	; 0x80
 80011c6:	0092      	lsls	r2, r2, #2
 80011c8:	431a      	orrs	r2, r3
 80011ca:	687b      	ldr	r3, [r7, #4]
 80011cc:	639a      	str	r2, [r3, #56]	; 0x38
  
  /* Determine whether any further conversion upcoming on group regular       */
  /* by external trigger, continuous mode or scan sequence on going.          */
  if(ADC_IS_SOFTWARE_START_REGULAR(hadc)        && 
 80011ce:	687b      	ldr	r3, [r7, #4]
 80011d0:	681b      	ldr	r3, [r3, #0]
 80011d2:	68da      	ldr	r2, [r3, #12]
 80011d4:	23c0      	movs	r3, #192	; 0xc0
 80011d6:	011b      	lsls	r3, r3, #4
 80011d8:	4013      	ands	r3, r2
 80011da:	d12d      	bne.n	8001238 <HAL_ADC_PollForConversion+0x110>
     (hadc->Init.ContinuousConvMode == DISABLE)   )
 80011dc:	687b      	ldr	r3, [r7, #4]
 80011de:	7e9b      	ldrb	r3, [r3, #26]
  if(ADC_IS_SOFTWARE_START_REGULAR(hadc)        && 
 80011e0:	2b00      	cmp	r3, #0
 80011e2:	d129      	bne.n	8001238 <HAL_ADC_PollForConversion+0x110>
  {
    /* If End of Sequence is reached, disable interrupts */
    if( __HAL_ADC_GET_FLAG(hadc, ADC_FLAG_EOS) )
 80011e4:	687b      	ldr	r3, [r7, #4]
 80011e6:	681b      	ldr	r3, [r3, #0]
 80011e8:	681b      	ldr	r3, [r3, #0]
 80011ea:	2208      	movs	r2, #8
 80011ec:	4013      	ands	r3, r2
 80011ee:	2b08      	cmp	r3, #8
 80011f0:	d122      	bne.n	8001238 <HAL_ADC_PollForConversion+0x110>
    {
      /* Allowed to modify bits ADC_IT_EOC/ADC_IT_EOS only if bit             */
      /* ADSTART==0 (no conversion on going)                                  */
      if (ADC_IS_CONVERSION_ONGOING_REGULAR(hadc) == RESET)
 80011f2:	687b      	ldr	r3, [r7, #4]
 80011f4:	681b      	ldr	r3, [r3, #0]
 80011f6:	689b      	ldr	r3, [r3, #8]
 80011f8:	2204      	movs	r2, #4
 80011fa:	4013      	ands	r3, r2
 80011fc:	d110      	bne.n	8001220 <HAL_ADC_PollForConversion+0xf8>
      {
        /* Disable ADC end of single conversion interrupt on group regular */
        /* Note: Overrun interrupt was enabled with EOC interrupt in          */
        /* HAL_Start_IT(), but is not disabled here because can be used       */
        /* by overrun IRQ process below.                                      */
        __HAL_ADC_DISABLE_IT(hadc, ADC_IT_EOC | ADC_IT_EOS);
 80011fe:	687b      	ldr	r3, [r7, #4]
 8001200:	681b      	ldr	r3, [r3, #0]
 8001202:	685a      	ldr	r2, [r3, #4]
 8001204:	687b      	ldr	r3, [r7, #4]
 8001206:	681b      	ldr	r3, [r3, #0]
 8001208:	210c      	movs	r1, #12
 800120a:	438a      	bics	r2, r1
 800120c:	605a      	str	r2, [r3, #4]
        
        /* Set ADC state */
        ADC_STATE_CLR_SET(hadc->State,
 800120e:	687b      	ldr	r3, [r7, #4]
 8001210:	6b9b      	ldr	r3, [r3, #56]	; 0x38
 8001212:	4a10      	ldr	r2, [pc, #64]	; (8001254 <HAL_ADC_PollForConversion+0x12c>)
 8001214:	4013      	ands	r3, r2
 8001216:	2201      	movs	r2, #1
 8001218:	431a      	orrs	r2, r3
 800121a:	687b      	ldr	r3, [r7, #4]
 800121c:	639a      	str	r2, [r3, #56]	; 0x38
 800121e:	e00b      	b.n	8001238 <HAL_ADC_PollForConversion+0x110>
                          HAL_ADC_STATE_READY);
      }
      else
      {
        /* Change ADC state to error state */
        SET_BIT(hadc->State, HAL_ADC_STATE_ERROR_CONFIG);
 8001220:	687b      	ldr	r3, [r7, #4]
 8001222:	6b9b      	ldr	r3, [r3, #56]	; 0x38
 8001224:	2220      	movs	r2, #32
 8001226:	431a      	orrs	r2, r3
 8001228:	687b      	ldr	r3, [r7, #4]
 800122a:	639a      	str	r2, [r3, #56]	; 0x38
        
        /* Set ADC error code to ADC IP internal error */
        SET_BIT(hadc->ErrorCode, HAL_ADC_ERROR_INTERNAL);
 800122c:	687b      	ldr	r3, [r7, #4]
 800122e:	6bdb      	ldr	r3, [r3, #60]	; 0x3c
 8001230:	2201      	movs	r2, #1
 8001232:	431a      	orrs	r2, r3
 8001234:	687b      	ldr	r3, [r7, #4]
 8001236:	63da      	str	r2, [r3, #60]	; 0x3c
  }
  
  /* Clear end of conversion flag of regular group if low power feature       */
  /* "LowPowerAutoWait " is disabled, to not interfere with this feature      */
  /* until data register is read using function HAL_ADC_GetValue().           */
  if (hadc->Init.LowPowerAutoWait == DISABLE)
 8001238:	687b      	ldr	r3, [r7, #4]
 800123a:	7e1b      	ldrb	r3, [r3, #24]
 800123c:	2b00      	cmp	r3, #0
 800123e:	d103      	bne.n	8001248 <HAL_ADC_PollForConversion+0x120>
  {
    /* Clear regular group conversion flag */
    __HAL_ADC_CLEAR_FLAG(hadc, (ADC_FLAG_EOC | ADC_FLAG_EOS));
 8001240:	687b      	ldr	r3, [r7, #4]
 8001242:	681b      	ldr	r3, [r3, #0]
 8001244:	220c      	movs	r2, #12
 8001246:	601a      	str	r2, [r3, #0]
  }
  
  /* Return ADC state */
  return HAL_OK;
 8001248:	2300      	movs	r3, #0
}
 800124a:	0018      	movs	r0, r3
 800124c:	46bd      	mov	sp, r7
 800124e:	b004      	add	sp, #16
 8001250:	bd80      	pop	{r7, pc}
 8001252:	46c0      	nop			; (mov r8, r8)
 8001254:	fffffefe 	.word	0xfffffefe

08001258 <HAL_ADC_GetValue>:
  *         or @ref __HAL_ADC_CLEAR_FLAG(&hadc, ADC_FLAG_EOS).
  * @param  hadc ADC handle
  * @retval ADC group regular conversion data
  */
uint32_t HAL_ADC_GetValue(ADC_HandleTypeDef* hadc)
{
 8001258:	b580      	push	{r7, lr}
 800125a:	b082      	sub	sp, #8
 800125c:	af00      	add	r7, sp, #0
 800125e:	6078      	str	r0, [r7, #4]

  /* Note: EOC flag is not cleared here by software because automatically     */
  /*       cleared by hardware when reading register DR.                      */
  
  /* Return ADC converted value */ 
  return hadc->Instance->DR;
 8001260:	687b      	ldr	r3, [r7, #4]
 8001262:	681b      	ldr	r3, [r3, #0]
 8001264:	6c1b      	ldr	r3, [r3, #64]	; 0x40
}
 8001266:	0018      	movs	r0, r3
 8001268:	46bd      	mov	sp, r7
 800126a:	b002      	add	sp, #8
 800126c:	bd80      	pop	{r7, pc}
	...

08001270 <HAL_ADC_IRQHandler>:
  * @brief  Handles ADC interrupt request.  
  * @param  hadc ADC handle
  * @retval None
  */
void HAL_ADC_IRQHandler(ADC_HandleTypeDef* hadc)
{
 8001270:	b580      	push	{r7, lr}
 8001272:	b082      	sub	sp, #8
 8001274:	af00      	add	r7, sp, #0
 8001276:	6078      	str	r0, [r7, #4]
  assert_param(IS_ADC_ALL_INSTANCE(hadc->Instance));
  assert_param(IS_FUNCTIONAL_STATE(hadc->Init.ContinuousConvMode));
  assert_param(IS_ADC_EOC_SELECTION(hadc->Init.EOCSelection));
  
  /* ========== Check End of Conversion flag for regular group ========== */
  if( (__HAL_ADC_GET_FLAG(hadc, ADC_FLAG_EOC) && __HAL_ADC_GET_IT_SOURCE(hadc, ADC_IT_EOC)) || 
 8001278:	687b      	ldr	r3, [r7, #4]
 800127a:	681b      	ldr	r3, [r3, #0]
 800127c:	681b      	ldr	r3, [r3, #0]
 800127e:	2204      	movs	r2, #4
 8001280:	4013      	ands	r3, r2
 8001282:	2b04      	cmp	r3, #4
 8001284:	d106      	bne.n	8001294 <HAL_ADC_IRQHandler+0x24>
 8001286:	687b      	ldr	r3, [r7, #4]
 8001288:	681b      	ldr	r3, [r3, #0]
 800128a:	685b      	ldr	r3, [r3, #4]
 800128c:	2204      	movs	r2, #4
 800128e:	4013      	ands	r3, r2
 8001290:	2b04      	cmp	r3, #4
 8001292:	d00d      	beq.n	80012b0 <HAL_ADC_IRQHandler+0x40>
      (__HAL_ADC_GET_FLAG(hadc, ADC_FLAG_EOS) && __HAL_ADC_GET_IT_SOURCE(hadc, ADC_IT_EOS))   )
 8001294:	687b      	ldr	r3, [r7, #4]
 8001296:	681b      	ldr	r3, [r3, #0]
 8001298:	681b      	ldr	r3, [r3, #0]
 800129a:	2208      	movs	r2, #8
 800129c:	4013      	ands	r3, r2
  if( (__HAL_ADC_GET_FLAG(hadc, ADC_FLAG_EOC) && __HAL_ADC_GET_IT_SOURCE(hadc, ADC_IT_EOC)) || 
 800129e:	2b08      	cmp	r3, #8
 80012a0:	d14f      	bne.n	8001342 <HAL_ADC_IRQHandler+0xd2>
      (__HAL_ADC_GET_FLAG(hadc, ADC_FLAG_EOS) && __HAL_ADC_GET_IT_SOURCE(hadc, ADC_IT_EOS))   )
 80012a2:	687b      	ldr	r3, [r7, #4]
 80012a4:	681b      	ldr	r3, [r3, #0]
 80012a6:	685b      	ldr	r3, [r3, #4]
 80012a8:	2208      	movs	r2, #8
 80012aa:	4013      	ands	r3, r2
 80012ac:	2b08      	cmp	r3, #8
 80012ae:	d148      	bne.n	8001342 <HAL_ADC_IRQHandler+0xd2>
  {
    /* Update state machine on conversion status if not in error state */
    if (HAL_IS_BIT_CLR(hadc->State, HAL_ADC_STATE_ERROR_INTERNAL))
 80012b0:	687b      	ldr	r3, [r7, #4]
 80012b2:	6b9b      	ldr	r3, [r3, #56]	; 0x38
 80012b4:	2210      	movs	r2, #16
 80012b6:	4013      	ands	r3, r2
 80012b8:	d106      	bne.n	80012c8 <HAL_ADC_IRQHandler+0x58>
    {
      /* Set ADC state */
      SET_BIT(hadc->State, HAL_ADC_STATE_REG_EOC); 
 80012ba:	687b      	ldr	r3, [r7, #4]
 80012bc:	6b9b      	ldr	r3, [r3, #56]	; 0x38
 80012be:	2280      	movs	r2, #128	; 0x80
 80012c0:	0092      	lsls	r2, r2, #2
 80012c2:	431a      	orrs	r2, r3
 80012c4:	687b      	ldr	r3, [r7, #4]
 80012c6:	639a      	str	r2, [r3, #56]	; 0x38
    }
    
    /* Determine whether any further conversion upcoming on group regular     */
    /* by external trigger, continuous mode or scan sequence on going.        */
    if(ADC_IS_SOFTWARE_START_REGULAR(hadc)        && 
 80012c8:	687b      	ldr	r3, [r7, #4]
 80012ca:	681b      	ldr	r3, [r3, #0]
 80012cc:	68da      	ldr	r2, [r3, #12]
 80012ce:	23c0      	movs	r3, #192	; 0xc0
 80012d0:	011b      	lsls	r3, r3, #4
 80012d2:	4013      	ands	r3, r2
 80012d4:	d12d      	bne.n	8001332 <HAL_ADC_IRQHandler+0xc2>
       (hadc->Init.ContinuousConvMode == DISABLE)   )
 80012d6:	687b      	ldr	r3, [r7, #4]
 80012d8:	7e9b      	ldrb	r3, [r3, #26]
    if(ADC_IS_SOFTWARE_START_REGULAR(hadc)        && 
 80012da:	2b00      	cmp	r3, #0
 80012dc:	d129      	bne.n	8001332 <HAL_ADC_IRQHandler+0xc2>
    {
      /* If End of Sequence is reached, disable interrupts */
      if( __HAL_ADC_GET_FLAG(hadc, ADC_FLAG_EOS) )
 80012de:	687b      	ldr	r3, [r7, #4]
 80012e0:	681b      	ldr	r3, [r3, #0]
 80012e2:	681b      	ldr	r3, [r3, #0]
 80012e4:	2208      	movs	r2, #8
 80012e6:	4013      	ands	r3, r2
 80012e8:	2b08      	cmp	r3, #8
 80012ea:	d122      	bne.n	8001332 <HAL_ADC_IRQHandler+0xc2>
      {
        /* Allowed to modify bits ADC_IT_EOC/ADC_IT_EOS only if bit           */
        /* ADSTART==0 (no conversion on going)                                */
        if (ADC_IS_CONVERSION_ONGOING_REGULAR(hadc) == RESET)
 80012ec:	687b      	ldr	r3, [r7, #4]
 80012ee:	681b      	ldr	r3, [r3, #0]
 80012f0:	689b      	ldr	r3, [r3, #8]
 80012f2:	2204      	movs	r2, #4
 80012f4:	4013      	ands	r3, r2
 80012f6:	d110      	bne.n	800131a <HAL_ADC_IRQHandler+0xaa>
        {
          /* Disable ADC end of single conversion interrupt on group regular */
          /* Note: Overrun interrupt was enabled with EOC interrupt in        */
          /* HAL_Start_IT(), but is not disabled here because can be used     */
          /* by overrun IRQ process below.                                    */
          __HAL_ADC_DISABLE_IT(hadc, ADC_IT_EOC | ADC_IT_EOS);
 80012f8:	687b      	ldr	r3, [r7, #4]
 80012fa:	681b      	ldr	r3, [r3, #0]
 80012fc:	685a      	ldr	r2, [r3, #4]
 80012fe:	687b      	ldr	r3, [r7, #4]
 8001300:	681b      	ldr	r3, [r3, #0]
 8001302:	210c      	movs	r1, #12
 8001304:	438a      	bics	r2, r1
 8001306:	605a      	str	r2, [r3, #4]
          
          /* Set ADC state */
          ADC_STATE_CLR_SET(hadc->State,
 8001308:	687b      	ldr	r3, [r7, #4]
 800130a:	6b9b      	ldr	r3, [r3, #56]	; 0x38
 800130c:	4a33      	ldr	r2, [pc, #204]	; (80013dc <HAL_ADC_IRQHandler+0x16c>)
 800130e:	4013      	ands	r3, r2
 8001310:	2201      	movs	r2, #1
 8001312:	431a      	orrs	r2, r3
 8001314:	687b      	ldr	r3, [r7, #4]
 8001316:	639a      	str	r2, [r3, #56]	; 0x38
 8001318:	e00b      	b.n	8001332 <HAL_ADC_IRQHandler+0xc2>
                            HAL_ADC_STATE_READY);
        }
        else
        {
          /* Change ADC state to error state */
          SET_BIT(hadc->State, HAL_ADC_STATE_ERROR_CONFIG);
 800131a:	687b      	ldr	r3, [r7, #4]
 800131c:	6b9b      	ldr	r3, [r3, #56]	; 0x38
 800131e:	2220      	movs	r2, #32
 8001320:	431a      	orrs	r2, r3
 8001322:	687b      	ldr	r3, [r7, #4]
 8001324:	639a      	str	r2, [r3, #56]	; 0x38
          
          /* Set ADC error code to ADC IP internal error */
          SET_BIT(hadc->ErrorCode, HAL_ADC_ERROR_INTERNAL);
 8001326:	687b      	ldr	r3, [r7, #4]
 8001328:	6bdb      	ldr	r3, [r3, #60]	; 0x3c
 800132a:	2201      	movs	r2, #1
 800132c:	431a      	orrs	r2, r3
 800132e:	687b      	ldr	r3, [r7, #4]
 8001330:	63da      	str	r2, [r3, #60]	; 0x3c
    /*       from EOC or EOS, possibility to use:                             */
    /*        " if( __HAL_ADC_GET_FLAG(&hadc, ADC_FLAG_EOS)) "                */
#if (USE_HAL_ADC_REGISTER_CALLBACKS == 1)
      hadc->ConvCpltCallback(hadc);
#else
    HAL_ADC_ConvCpltCallback(hadc);
 8001332:	687b      	ldr	r3, [r7, #4]
 8001334:	0018      	movs	r0, r3
 8001336:	f000 f853 	bl	80013e0 <HAL_ADC_ConvCpltCallback>
    /* Clear regular group conversion flag */
    /* Note: in case of overrun set to ADC_OVR_DATA_PRESERVED, end of         */
    /*       conversion flags clear induces the release of the preserved data.*/
    /*       Therefore, if the preserved data value is needed, it must be     */
    /*       read preliminarily into HAL_ADC_ConvCpltCallback().              */
    __HAL_ADC_CLEAR_FLAG(hadc, (ADC_FLAG_EOC | ADC_FLAG_EOS) );
 800133a:	687b      	ldr	r3, [r7, #4]
 800133c:	681b      	ldr	r3, [r3, #0]
 800133e:	220c      	movs	r2, #12
 8001340:	601a      	str	r2, [r3, #0]
  }
   
  /* ========== Check Analog watchdog flags ========== */
  if(__HAL_ADC_GET_FLAG(hadc, ADC_FLAG_AWD) && __HAL_ADC_GET_IT_SOURCE(hadc, ADC_IT_AWD))
 8001342:	687b      	ldr	r3, [r7, #4]
 8001344:	681b      	ldr	r3, [r3, #0]
 8001346:	681b      	ldr	r3, [r3, #0]
 8001348:	2280      	movs	r2, #128	; 0x80
 800134a:	4013      	ands	r3, r2
 800134c:	2b80      	cmp	r3, #128	; 0x80
 800134e:	d115      	bne.n	800137c <HAL_ADC_IRQHandler+0x10c>
 8001350:	687b      	ldr	r3, [r7, #4]
 8001352:	681b      	ldr	r3, [r3, #0]
 8001354:	685b      	ldr	r3, [r3, #4]
 8001356:	2280      	movs	r2, #128	; 0x80
 8001358:	4013      	ands	r3, r2
 800135a:	2b80      	cmp	r3, #128	; 0x80
 800135c:	d10e      	bne.n	800137c <HAL_ADC_IRQHandler+0x10c>
  {
      /* Set ADC state */
      SET_BIT(hadc->State, HAL_ADC_STATE_AWD1);
 800135e:	687b      	ldr	r3, [r7, #4]
 8001360:	6b9b      	ldr	r3, [r3, #56]	; 0x38
 8001362:	2280      	movs	r2, #128	; 0x80
 8001364:	0252      	lsls	r2, r2, #9
 8001366:	431a      	orrs	r2, r3
 8001368:	687b      	ldr	r3, [r7, #4]
 800136a:	639a      	str	r2, [r3, #56]	; 0x38

#if (USE_HAL_ADC_REGISTER_CALLBACKS == 1)
      hadc->LevelOutOfWindowCallback(hadc);
#else
    HAL_ADC_LevelOutOfWindowCallback(hadc);
 800136c:	687b      	ldr	r3, [r7, #4]
 800136e:	0018      	movs	r0, r3
 8001370:	f000 f83e 	bl	80013f0 <HAL_ADC_LevelOutOfWindowCallback>
#endif /* USE_HAL_ADC_REGISTER_CALLBACKS */
    
    /* Clear ADC Analog watchdog flag */
    __HAL_ADC_CLEAR_FLAG(hadc, ADC_FLAG_AWD);
 8001374:	687b      	ldr	r3, [r7, #4]
 8001376:	681b      	ldr	r3, [r3, #0]
 8001378:	2280      	movs	r2, #128	; 0x80
 800137a:	601a      	str	r2, [r3, #0]
   
  }
  
  
  /* ========== Check Overrun flag ========== */
  if(__HAL_ADC_GET_FLAG(hadc, ADC_FLAG_OVR) && __HAL_ADC_GET_IT_SOURCE(hadc, ADC_IT_OVR))
 800137c:	687b      	ldr	r3, [r7, #4]
 800137e:	681b      	ldr	r3, [r3, #0]
 8001380:	681b      	ldr	r3, [r3, #0]
 8001382:	2210      	movs	r2, #16
 8001384:	4013      	ands	r3, r2
 8001386:	2b10      	cmp	r3, #16
 8001388:	d123      	bne.n	80013d2 <HAL_ADC_IRQHandler+0x162>
 800138a:	687b      	ldr	r3, [r7, #4]
 800138c:	681b      	ldr	r3, [r3, #0]
 800138e:	685b      	ldr	r3, [r3, #4]
 8001390:	2210      	movs	r2, #16
 8001392:	4013      	ands	r3, r2
 8001394:	2b10      	cmp	r3, #16
 8001396:	d11c      	bne.n	80013d2 <HAL_ADC_IRQHandler+0x162>
    /* overrun event is not considered as an error.                           */
    /* (cf ref manual "Managing conversions without using the DMA and without */
    /* overrun ")                                                             */
    /* Exception for usage with DMA overrun event always considered as an     */
    /* error.                                                                 */
    if ((hadc->Init.Overrun == ADC_OVR_DATA_PRESERVED)            ||
 8001398:	687b      	ldr	r3, [r7, #4]
 800139a:	6a9b      	ldr	r3, [r3, #40]	; 0x28
 800139c:	2b01      	cmp	r3, #1
 800139e:	d006      	beq.n	80013ae <HAL_ADC_IRQHandler+0x13e>
        HAL_IS_BIT_SET(hadc->Instance->CFGR1, ADC_CFGR1_DMAEN)  )
 80013a0:	687b      	ldr	r3, [r7, #4]
 80013a2:	681b      	ldr	r3, [r3, #0]
 80013a4:	68db      	ldr	r3, [r3, #12]
 80013a6:	2201      	movs	r2, #1
 80013a8:	4013      	ands	r3, r2
    if ((hadc->Init.Overrun == ADC_OVR_DATA_PRESERVED)            ||
 80013aa:	2b01      	cmp	r3, #1
 80013ac:	d10d      	bne.n	80013ca <HAL_ADC_IRQHandler+0x15a>
    {
      /* Set ADC error code to overrun */
      SET_BIT(hadc->ErrorCode, HAL_ADC_ERROR_OVR);
 80013ae:	687b      	ldr	r3, [r7, #4]
 80013b0:	6bdb      	ldr	r3, [r3, #60]	; 0x3c
 80013b2:	2202      	movs	r2, #2
 80013b4:	431a      	orrs	r2, r3
 80013b6:	687b      	ldr	r3, [r7, #4]
 80013b8:	63da      	str	r2, [r3, #60]	; 0x3c
      
      /* Clear ADC overrun flag */
      __HAL_ADC_CLEAR_FLAG(hadc, ADC_FLAG_OVR);
 80013ba:	687b      	ldr	r3, [r7, #4]
 80013bc:	681b      	ldr	r3, [r3, #0]
 80013be:	2210      	movs	r2, #16
 80013c0:	601a      	str	r2, [r3, #0]
      
#if (USE_HAL_ADC_REGISTER_CALLBACKS == 1)
      hadc->ErrorCallback(hadc);
#else
      HAL_ADC_ErrorCallback(hadc);
 80013c2:	687b      	ldr	r3, [r7, #4]
 80013c4:	0018      	movs	r0, r3
 80013c6:	f000 f81b 	bl	8001400 <HAL_ADC_ErrorCallback>
#endif /* USE_HAL_ADC_REGISTER_CALLBACKS */
    }
    
    /* Clear the Overrun flag */
    __HAL_ADC_CLEAR_FLAG(hadc, ADC_FLAG_OVR);
 80013ca:	687b      	ldr	r3, [r7, #4]
 80013cc:	681b      	ldr	r3, [r3, #0]
 80013ce:	2210      	movs	r2, #16
 80013d0:	601a      	str	r2, [r3, #0]
  }

}
 80013d2:	46c0      	nop			; (mov r8, r8)
 80013d4:	46bd      	mov	sp, r7
 80013d6:	b002      	add	sp, #8
 80013d8:	bd80      	pop	{r7, pc}
 80013da:	46c0      	nop			; (mov r8, r8)
 80013dc:	fffffefe 	.word	0xfffffefe

080013e0 <HAL_ADC_ConvCpltCallback>:
  * @brief  Conversion complete callback in non blocking mode 
  * @param  hadc ADC handle
  * @retval None
  */
__weak void HAL_ADC_ConvCpltCallback(ADC_HandleTypeDef* hadc)
{
 80013e0:	b580      	push	{r7, lr}
 80013e2:	b082      	sub	sp, #8
 80013e4:	af00      	add	r7, sp, #0
 80013e6:	6078      	str	r0, [r7, #4]
  UNUSED(hadc);

  /* NOTE : This function should not be modified. When the callback is needed,
            function HAL_ADC_ConvCpltCallback must be implemented in the user file.
   */
}
 80013e8:	46c0      	nop			; (mov r8, r8)
 80013ea:	46bd      	mov	sp, r7
 80013ec:	b002      	add	sp, #8
 80013ee:	bd80      	pop	{r7, pc}

080013f0 <HAL_ADC_LevelOutOfWindowCallback>:
  * @brief  Analog watchdog callback in non blocking mode. 
  * @param  hadc ADC handle
  * @retval None
  */
__weak void HAL_ADC_LevelOutOfWindowCallback(ADC_HandleTypeDef* hadc)
{
 80013f0:	b580      	push	{r7, lr}
 80013f2:	b082      	sub	sp, #8
 80013f4:	af00      	add	r7, sp, #0
 80013f6:	6078      	str	r0, [r7, #4]
  UNUSED(hadc);

  /* NOTE : This function should not be modified. When the callback is needed,
            function HAL_ADC_LevelOoutOfWindowCallback must be implemented in the user file.
  */
}
 80013f8:	46c0      	nop			; (mov r8, r8)
 80013fa:	46bd      	mov	sp, r7
 80013fc:	b002      	add	sp, #8
 80013fe:	bd80      	pop	{r7, pc}

08001400 <HAL_ADC_ErrorCallback>:
  *        (ADC conversion with interruption or transfer by DMA)
  * @param  hadc ADC handle
  * @retval None
  */
__weak void HAL_ADC_ErrorCallback(ADC_HandleTypeDef *hadc)
{
 8001400:	b580      	push	{r7, lr}
 8001402:	b082      	sub	sp, #8
 8001404:	af00      	add	r7, sp, #0
 8001406:	6078      	str	r0, [r7, #4]
  UNUSED(hadc);

  /* NOTE : This function should not be modified. When the callback is needed,
            function HAL_ADC_ErrorCallback must be implemented in the user file.
  */
}
 8001408:	46c0      	nop			; (mov r8, r8)
 800140a:	46bd      	mov	sp, r7
 800140c:	b002      	add	sp, #8
 800140e:	bd80      	pop	{r7, pc}

08001410 <HAL_ADC_ConfigChannel>:
  * @param  hadc ADC handle
  * @param  sConfig Structure of ADC channel for regular group.
  * @retval HAL status
  */
HAL_StatusTypeDef HAL_ADC_ConfigChannel(ADC_HandleTypeDef* hadc, ADC_ChannelConfTypeDef* sConfig)
{
 8001410:	b580      	push	{r7, lr}
 8001412:	b084      	sub	sp, #16
 8001414:	af00      	add	r7, sp, #0
 8001416:	6078      	str	r0, [r7, #4]
 8001418:	6039      	str	r1, [r7, #0]
  HAL_StatusTypeDef tmp_hal_status = HAL_OK;
 800141a:	230f      	movs	r3, #15
 800141c:	18fb      	adds	r3, r7, r3
 800141e:	2200      	movs	r2, #0
 8001420:	701a      	strb	r2, [r3, #0]
  __IO uint32_t wait_loop_index = 0U;
 8001422:	2300      	movs	r3, #0
 8001424:	60bb      	str	r3, [r7, #8]
  /* Check the parameters */
  assert_param(IS_ADC_ALL_INSTANCE(hadc->Instance));
  assert_param(IS_ADC_CHANNEL(sConfig->Channel));
  assert_param(IS_ADC_RANK(sConfig->Rank));
  
  if (! IS_ADC_SAMPLE_TIME(hadc->Init.SamplingTimeCommon))
 8001426:	687b      	ldr	r3, [r7, #4]
 8001428:	6ada      	ldr	r2, [r3, #44]	; 0x2c
 800142a:	2380      	movs	r3, #128	; 0x80
 800142c:	055b      	lsls	r3, r3, #21
 800142e:	429a      	cmp	r2, r3
 8001430:	d011      	beq.n	8001456 <HAL_ADC_ConfigChannel+0x46>
 8001432:	687b      	ldr	r3, [r7, #4]
 8001434:	6adb      	ldr	r3, [r3, #44]	; 0x2c
 8001436:	2b01      	cmp	r3, #1
 8001438:	d00d      	beq.n	8001456 <HAL_ADC_ConfigChannel+0x46>
 800143a:	687b      	ldr	r3, [r7, #4]
 800143c:	6adb      	ldr	r3, [r3, #44]	; 0x2c
 800143e:	2b02      	cmp	r3, #2
 8001440:	d009      	beq.n	8001456 <HAL_ADC_ConfigChannel+0x46>
 8001442:	687b      	ldr	r3, [r7, #4]
 8001444:	6adb      	ldr	r3, [r3, #44]	; 0x2c
 8001446:	2b03      	cmp	r3, #3
 8001448:	d005      	beq.n	8001456 <HAL_ADC_ConfigChannel+0x46>
 800144a:	687b      	ldr	r3, [r7, #4]
 800144c:	6adb      	ldr	r3, [r3, #44]	; 0x2c
 800144e:	2b04      	cmp	r3, #4
 8001450:	d001      	beq.n	8001456 <HAL_ADC_ConfigChannel+0x46>
 8001452:	687b      	ldr	r3, [r7, #4]
 8001454:	6adb      	ldr	r3, [r3, #44]	; 0x2c
  {
    assert_param(IS_ADC_SAMPLE_TIME(sConfig->SamplingTime));
  }
  
  /* Process locked */
  __HAL_LOCK(hadc);
 8001456:	687b      	ldr	r3, [r7, #4]
 8001458:	2234      	movs	r2, #52	; 0x34
 800145a:	5c9b      	ldrb	r3, [r3, r2]
 800145c:	2b01      	cmp	r3, #1
 800145e:	d101      	bne.n	8001464 <HAL_ADC_ConfigChannel+0x54>
 8001460:	2302      	movs	r3, #2
 8001462:	e0d0      	b.n	8001606 <HAL_ADC_ConfigChannel+0x1f6>
 8001464:	687b      	ldr	r3, [r7, #4]
 8001466:	2234      	movs	r2, #52	; 0x34
 8001468:	2101      	movs	r1, #1
 800146a:	5499      	strb	r1, [r3, r2]
  /* Parameters that can be updated when ADC is disabled or enabled without   */
  /* conversion on going on regular group:                                    */
  /*  - Channel number                                                        */
  /*  - Channel sampling time                                                 */
  /*  - Management of internal measurement channels: VrefInt/TempSensor/Vbat  */
  if (ADC_IS_CONVERSION_ONGOING_REGULAR(hadc) == RESET)
 800146c:	687b      	ldr	r3, [r7, #4]
 800146e:	681b      	ldr	r3, [r3, #0]
 8001470:	689b      	ldr	r3, [r3, #8]
 8001472:	2204      	movs	r2, #4
 8001474:	4013      	ands	r3, r2
 8001476:	d000      	beq.n	800147a <HAL_ADC_ConfigChannel+0x6a>
 8001478:	e0b4      	b.n	80015e4 <HAL_ADC_ConfigChannel+0x1d4>
  {
    /* Configure channel: depending on rank setting, add it or remove it from */
    /* ADC conversion sequencer.                                              */
    if (sConfig->Rank != ADC_RANK_NONE)
 800147a:	683b      	ldr	r3, [r7, #0]
 800147c:	685b      	ldr	r3, [r3, #4]
 800147e:	4a64      	ldr	r2, [pc, #400]	; (8001610 <HAL_ADC_ConfigChannel+0x200>)
 8001480:	4293      	cmp	r3, r2
 8001482:	d100      	bne.n	8001486 <HAL_ADC_ConfigChannel+0x76>
 8001484:	e082      	b.n	800158c <HAL_ADC_ConfigChannel+0x17c>
    {
      /* Regular sequence configuration */
      /* Set the channel selection register from the selected channel */
      hadc->Instance->CHSELR |= ADC_CHSELR_CHANNEL(sConfig->Channel);
 8001486:	687b      	ldr	r3, [r7, #4]
 8001488:	681b      	ldr	r3, [r3, #0]
 800148a:	6a99      	ldr	r1, [r3, #40]	; 0x28
 800148c:	683b      	ldr	r3, [r7, #0]
 800148e:	681b      	ldr	r3, [r3, #0]
 8001490:	2201      	movs	r2, #1
 8001492:	409a      	lsls	r2, r3
 8001494:	687b      	ldr	r3, [r7, #4]
 8001496:	681b      	ldr	r3, [r3, #0]
 8001498:	430a      	orrs	r2, r1
 800149a:	629a      	str	r2, [r3, #40]	; 0x28
      /* Channel sampling time configuration */
      /* Management of parameters "SamplingTimeCommon" and "SamplingTime"     */
      /* (obsolete): sampling time set in this function with                  */
      /* parameter "SamplingTime" (obsolete) only if not already set into     */
      /* ADC initialization structure with parameter "SamplingTimeCommon".    */
      if (! IS_ADC_SAMPLE_TIME(hadc->Init.SamplingTimeCommon))
 800149c:	687b      	ldr	r3, [r7, #4]
 800149e:	6ada      	ldr	r2, [r3, #44]	; 0x2c
 80014a0:	2380      	movs	r3, #128	; 0x80
 80014a2:	055b      	lsls	r3, r3, #21
 80014a4:	429a      	cmp	r2, r3
 80014a6:	d037      	beq.n	8001518 <HAL_ADC_ConfigChannel+0x108>
 80014a8:	687b      	ldr	r3, [r7, #4]
 80014aa:	6adb      	ldr	r3, [r3, #44]	; 0x2c
 80014ac:	2b01      	cmp	r3, #1
 80014ae:	d033      	beq.n	8001518 <HAL_ADC_ConfigChannel+0x108>
 80014b0:	687b      	ldr	r3, [r7, #4]
 80014b2:	6adb      	ldr	r3, [r3, #44]	; 0x2c
 80014b4:	2b02      	cmp	r3, #2
 80014b6:	d02f      	beq.n	8001518 <HAL_ADC_ConfigChannel+0x108>
 80014b8:	687b      	ldr	r3, [r7, #4]
 80014ba:	6adb      	ldr	r3, [r3, #44]	; 0x2c
 80014bc:	2b03      	cmp	r3, #3
 80014be:	d02b      	beq.n	8001518 <HAL_ADC_ConfigChannel+0x108>
 80014c0:	687b      	ldr	r3, [r7, #4]
 80014c2:	6adb      	ldr	r3, [r3, #44]	; 0x2c
 80014c4:	2b04      	cmp	r3, #4
 80014c6:	d027      	beq.n	8001518 <HAL_ADC_ConfigChannel+0x108>
 80014c8:	687b      	ldr	r3, [r7, #4]
 80014ca:	6adb      	ldr	r3, [r3, #44]	; 0x2c
 80014cc:	2b05      	cmp	r3, #5
 80014ce:	d023      	beq.n	8001518 <HAL_ADC_ConfigChannel+0x108>
 80014d0:	687b      	ldr	r3, [r7, #4]
 80014d2:	6adb      	ldr	r3, [r3, #44]	; 0x2c
 80014d4:	2b06      	cmp	r3, #6
 80014d6:	d01f      	beq.n	8001518 <HAL_ADC_ConfigChannel+0x108>
 80014d8:	687b      	ldr	r3, [r7, #4]
 80014da:	6adb      	ldr	r3, [r3, #44]	; 0x2c
 80014dc:	2b07      	cmp	r3, #7
 80014de:	d01b      	beq.n	8001518 <HAL_ADC_ConfigChannel+0x108>
      {
        /* Modify sampling time if needed (not needed in case of reoccurrence */
        /* for several channels programmed consecutively into the sequencer)  */
        if (sConfig->SamplingTime != ADC_GET_SAMPLINGTIME(hadc))
 80014e0:	683b      	ldr	r3, [r7, #0]
 80014e2:	689a      	ldr	r2, [r3, #8]
 80014e4:	687b      	ldr	r3, [r7, #4]
 80014e6:	681b      	ldr	r3, [r3, #0]
 80014e8:	695b      	ldr	r3, [r3, #20]
 80014ea:	2107      	movs	r1, #7
 80014ec:	400b      	ands	r3, r1
 80014ee:	429a      	cmp	r2, r3
 80014f0:	d012      	beq.n	8001518 <HAL_ADC_ConfigChannel+0x108>
        {
          /* Channel sampling time configuration */
          /* Clear the old sample time */
          hadc->Instance->SMPR &= ~(ADC_SMPR_SMP);
 80014f2:	687b      	ldr	r3, [r7, #4]
 80014f4:	681b      	ldr	r3, [r3, #0]
 80014f6:	695a      	ldr	r2, [r3, #20]
 80014f8:	687b      	ldr	r3, [r7, #4]
 80014fa:	681b      	ldr	r3, [r3, #0]
 80014fc:	2107      	movs	r1, #7
 80014fe:	438a      	bics	r2, r1
 8001500:	615a      	str	r2, [r3, #20]
          
          /* Set the new sample time */
          hadc->Instance->SMPR |= ADC_SMPR_SET(sConfig->SamplingTime);
 8001502:	687b      	ldr	r3, [r7, #4]
 8001504:	681b      	ldr	r3, [r3, #0]
 8001506:	6959      	ldr	r1, [r3, #20]
 8001508:	683b      	ldr	r3, [r7, #0]
 800150a:	689b      	ldr	r3, [r3, #8]
 800150c:	2207      	movs	r2, #7
 800150e:	401a      	ands	r2, r3
 8001510:	687b      	ldr	r3, [r7, #4]
 8001512:	681b      	ldr	r3, [r3, #0]
 8001514:	430a      	orrs	r2, r1
 8001516:	615a      	str	r2, [r3, #20]
      /* internal measurement paths enable: If internal channel selected,     */
      /* enable dedicated internal buffers and path.                          */
      /* Note: these internal measurement paths can be disabled using         */
      /*       HAL_ADC_DeInit() or removing the channel from sequencer with   */
      /*       channel configuration parameter "Rank".                        */
      if(ADC_IS_CHANNEL_INTERNAL(sConfig->Channel))
 8001518:	683b      	ldr	r3, [r7, #0]
 800151a:	681b      	ldr	r3, [r3, #0]
 800151c:	2b10      	cmp	r3, #16
 800151e:	d007      	beq.n	8001530 <HAL_ADC_ConfigChannel+0x120>
 8001520:	683b      	ldr	r3, [r7, #0]
 8001522:	681b      	ldr	r3, [r3, #0]
 8001524:	2b11      	cmp	r3, #17
 8001526:	d003      	beq.n	8001530 <HAL_ADC_ConfigChannel+0x120>
 8001528:	683b      	ldr	r3, [r7, #0]
 800152a:	681b      	ldr	r3, [r3, #0]
 800152c:	2b12      	cmp	r3, #18
 800152e:	d163      	bne.n	80015f8 <HAL_ADC_ConfigChannel+0x1e8>
      {
        /* If Channel_16 is selected, enable Temp. sensor measurement path. */
        /* If Channel_17 is selected, enable VREFINT measurement path. */
        /* If Channel_18 is selected, enable VBAT measurement path. */
        ADC->CCR |= ADC_CHANNEL_INTERNAL_PATH(sConfig->Channel);
 8001530:	4b38      	ldr	r3, [pc, #224]	; (8001614 <HAL_ADC_ConfigChannel+0x204>)
 8001532:	6819      	ldr	r1, [r3, #0]
 8001534:	683b      	ldr	r3, [r7, #0]
 8001536:	681b      	ldr	r3, [r3, #0]
 8001538:	2b10      	cmp	r3, #16
 800153a:	d009      	beq.n	8001550 <HAL_ADC_ConfigChannel+0x140>
 800153c:	683b      	ldr	r3, [r7, #0]
 800153e:	681b      	ldr	r3, [r3, #0]
 8001540:	2b11      	cmp	r3, #17
 8001542:	d102      	bne.n	800154a <HAL_ADC_ConfigChannel+0x13a>
 8001544:	2380      	movs	r3, #128	; 0x80
 8001546:	03db      	lsls	r3, r3, #15
 8001548:	e004      	b.n	8001554 <HAL_ADC_ConfigChannel+0x144>
 800154a:	2380      	movs	r3, #128	; 0x80
 800154c:	045b      	lsls	r3, r3, #17
 800154e:	e001      	b.n	8001554 <HAL_ADC_ConfigChannel+0x144>
 8001550:	2380      	movs	r3, #128	; 0x80
 8001552:	041b      	lsls	r3, r3, #16
 8001554:	4a2f      	ldr	r2, [pc, #188]	; (8001614 <HAL_ADC_ConfigChannel+0x204>)
 8001556:	430b      	orrs	r3, r1
 8001558:	6013      	str	r3, [r2, #0]
        
        /* If Temp. sensor is selected, wait for stabilization delay */
        if (sConfig->Channel == ADC_CHANNEL_TEMPSENSOR)
 800155a:	683b      	ldr	r3, [r7, #0]
 800155c:	681b      	ldr	r3, [r3, #0]
 800155e:	2b10      	cmp	r3, #16
 8001560:	d14a      	bne.n	80015f8 <HAL_ADC_ConfigChannel+0x1e8>
        {
          /* Delay for temperature sensor stabilization time */
          /* Compute number of CPU cycles to wait for */
          wait_loop_index = (ADC_TEMPSENSOR_DELAY_US * (SystemCoreClock / 1000000U));
 8001562:	4b2d      	ldr	r3, [pc, #180]	; (8001618 <HAL_ADC_ConfigChannel+0x208>)
 8001564:	681b      	ldr	r3, [r3, #0]
 8001566:	492d      	ldr	r1, [pc, #180]	; (800161c <HAL_ADC_ConfigChannel+0x20c>)
 8001568:	0018      	movs	r0, r3
 800156a:	f7fe fdd7 	bl	800011c <__udivsi3>
 800156e:	0003      	movs	r3, r0
 8001570:	001a      	movs	r2, r3
 8001572:	0013      	movs	r3, r2
 8001574:	009b      	lsls	r3, r3, #2
 8001576:	189b      	adds	r3, r3, r2
 8001578:	005b      	lsls	r3, r3, #1
 800157a:	60bb      	str	r3, [r7, #8]
          while(wait_loop_index != 0U)
 800157c:	e002      	b.n	8001584 <HAL_ADC_ConfigChannel+0x174>
          {
            wait_loop_index--;
 800157e:	68bb      	ldr	r3, [r7, #8]
 8001580:	3b01      	subs	r3, #1
 8001582:	60bb      	str	r3, [r7, #8]
          while(wait_loop_index != 0U)
 8001584:	68bb      	ldr	r3, [r7, #8]
 8001586:	2b00      	cmp	r3, #0
 8001588:	d1f9      	bne.n	800157e <HAL_ADC_ConfigChannel+0x16e>
 800158a:	e035      	b.n	80015f8 <HAL_ADC_ConfigChannel+0x1e8>
    }
    else
    {
      /* Regular sequence configuration */
      /* Reset the channel selection register from the selected channel */
      hadc->Instance->CHSELR &= ~ADC_CHSELR_CHANNEL(sConfig->Channel);
 800158c:	687b      	ldr	r3, [r7, #4]
 800158e:	681b      	ldr	r3, [r3, #0]
 8001590:	6a9a      	ldr	r2, [r3, #40]	; 0x28
 8001592:	683b      	ldr	r3, [r7, #0]
 8001594:	681b      	ldr	r3, [r3, #0]
 8001596:	2101      	movs	r1, #1
 8001598:	4099      	lsls	r1, r3
 800159a:	000b      	movs	r3, r1
 800159c:	43d9      	mvns	r1, r3
 800159e:	687b      	ldr	r3, [r7, #4]
 80015a0:	681b      	ldr	r3, [r3, #0]
 80015a2:	400a      	ands	r2, r1
 80015a4:	629a      	str	r2, [r3, #40]	; 0x28
      
      /* Management of internal measurement channels: VrefInt/TempSensor/Vbat */
      /* internal measurement paths disable: If internal channel selected,    */
      /* disable dedicated internal buffers and path.                         */
      if(ADC_IS_CHANNEL_INTERNAL(sConfig->Channel))
 80015a6:	683b      	ldr	r3, [r7, #0]
 80015a8:	681b      	ldr	r3, [r3, #0]
 80015aa:	2b10      	cmp	r3, #16
 80015ac:	d007      	beq.n	80015be <HAL_ADC_ConfigChannel+0x1ae>
 80015ae:	683b      	ldr	r3, [r7, #0]
 80015b0:	681b      	ldr	r3, [r3, #0]
 80015b2:	2b11      	cmp	r3, #17
 80015b4:	d003      	beq.n	80015be <HAL_ADC_ConfigChannel+0x1ae>
 80015b6:	683b      	ldr	r3, [r7, #0]
 80015b8:	681b      	ldr	r3, [r3, #0]
 80015ba:	2b12      	cmp	r3, #18
 80015bc:	d11c      	bne.n	80015f8 <HAL_ADC_ConfigChannel+0x1e8>
      {
        /* If Channel_16 is selected, disable Temp. sensor measurement path. */
        /* If Channel_17 is selected, disable VREFINT measurement path. */
        /* If Channel_18 is selected, disable VBAT measurement path. */
        ADC->CCR &= ~ADC_CHANNEL_INTERNAL_PATH(sConfig->Channel);
 80015be:	4b15      	ldr	r3, [pc, #84]	; (8001614 <HAL_ADC_ConfigChannel+0x204>)
 80015c0:	6819      	ldr	r1, [r3, #0]
 80015c2:	683b      	ldr	r3, [r7, #0]
 80015c4:	681b      	ldr	r3, [r3, #0]
 80015c6:	2b10      	cmp	r3, #16
 80015c8:	d007      	beq.n	80015da <HAL_ADC_ConfigChannel+0x1ca>
 80015ca:	683b      	ldr	r3, [r7, #0]
 80015cc:	681b      	ldr	r3, [r3, #0]
 80015ce:	2b11      	cmp	r3, #17
 80015d0:	d101      	bne.n	80015d6 <HAL_ADC_ConfigChannel+0x1c6>
 80015d2:	4b13      	ldr	r3, [pc, #76]	; (8001620 <HAL_ADC_ConfigChannel+0x210>)
 80015d4:	e002      	b.n	80015dc <HAL_ADC_ConfigChannel+0x1cc>
 80015d6:	4b13      	ldr	r3, [pc, #76]	; (8001624 <HAL_ADC_ConfigChannel+0x214>)
 80015d8:	e000      	b.n	80015dc <HAL_ADC_ConfigChannel+0x1cc>
 80015da:	4b13      	ldr	r3, [pc, #76]	; (8001628 <HAL_ADC_ConfigChannel+0x218>)
 80015dc:	4a0d      	ldr	r2, [pc, #52]	; (8001614 <HAL_ADC_ConfigChannel+0x204>)
 80015de:	400b      	ands	r3, r1
 80015e0:	6013      	str	r3, [r2, #0]
 80015e2:	e009      	b.n	80015f8 <HAL_ADC_ConfigChannel+0x1e8>
  /* channel could be done on neither of the channel configuration structure  */
  /* parameters.                                                              */
  else
  {
    /* Update ADC state machine to error */
    SET_BIT(hadc->State, HAL_ADC_STATE_ERROR_CONFIG);
 80015e4:	687b      	ldr	r3, [r7, #4]
 80015e6:	6b9b      	ldr	r3, [r3, #56]	; 0x38
 80015e8:	2220      	movs	r2, #32
 80015ea:	431a      	orrs	r2, r3
 80015ec:	687b      	ldr	r3, [r7, #4]
 80015ee:	639a      	str	r2, [r3, #56]	; 0x38
    
    tmp_hal_status = HAL_ERROR;
 80015f0:	230f      	movs	r3, #15
 80015f2:	18fb      	adds	r3, r7, r3
 80015f4:	2201      	movs	r2, #1
 80015f6:	701a      	strb	r2, [r3, #0]
  }
  
  /* Process unlocked */
  __HAL_UNLOCK(hadc);
 80015f8:	687b      	ldr	r3, [r7, #4]
 80015fa:	2234      	movs	r2, #52	; 0x34
 80015fc:	2100      	movs	r1, #0
 80015fe:	5499      	strb	r1, [r3, r2]
  
  /* Return function status */
  return tmp_hal_status;
 8001600:	230f      	movs	r3, #15
 8001602:	18fb      	adds	r3, r7, r3
 8001604:	781b      	ldrb	r3, [r3, #0]
}
 8001606:	0018      	movs	r0, r3
 8001608:	46bd      	mov	sp, r7
 800160a:	b004      	add	sp, #16
 800160c:	bd80      	pop	{r7, pc}
 800160e:	46c0      	nop			; (mov r8, r8)
 8001610:	00001001 	.word	0x00001001
 8001614:	40012708 	.word	0x40012708
 8001618:	20000004 	.word	0x20000004
 800161c:	000f4240 	.word	0x000f4240
 8001620:	ffbfffff 	.word	0xffbfffff
 8001624:	feffffff 	.word	0xfeffffff
 8001628:	ff7fffff 	.word	0xff7fffff

0800162c <ADC_Enable>:
  *         "if (hadc->Init.LowPowerAutoPowerOff != ENABLE)".
  * @param  hadc ADC handle
  * @retval HAL status.
  */
static HAL_StatusTypeDef ADC_Enable(ADC_HandleTypeDef* hadc)
{
 800162c:	b580      	push	{r7, lr}
 800162e:	b084      	sub	sp, #16
 8001630:	af00      	add	r7, sp, #0
 8001632:	6078      	str	r0, [r7, #4]
  uint32_t tickstart = 0U;
 8001634:	2300      	movs	r3, #0
 8001636:	60fb      	str	r3, [r7, #12]
  __IO uint32_t wait_loop_index = 0U;
 8001638:	2300      	movs	r3, #0
 800163a:	60bb      	str	r3, [r7, #8]
  
  /* ADC enable and wait for ADC ready (in case of ADC is disabled or         */
  /* enabling phase not yet completed: flag ADC ready not yet set).           */
  /* Timeout implemented to not be stuck if ADC cannot be enabled (possible   */
  /* causes: ADC clock not running, ...).                                     */
  if (ADC_IS_ENABLE(hadc) == RESET)
 800163c:	687b      	ldr	r3, [r7, #4]
 800163e:	681b      	ldr	r3, [r3, #0]
 8001640:	689b      	ldr	r3, [r3, #8]
 8001642:	2203      	movs	r2, #3
 8001644:	4013      	ands	r3, r2
 8001646:	2b01      	cmp	r3, #1
 8001648:	d112      	bne.n	8001670 <ADC_Enable+0x44>
 800164a:	687b      	ldr	r3, [r7, #4]
 800164c:	681b      	ldr	r3, [r3, #0]
 800164e:	681b      	ldr	r3, [r3, #0]
 8001650:	2201      	movs	r2, #1
 8001652:	4013      	ands	r3, r2
 8001654:	2b01      	cmp	r3, #1
 8001656:	d009      	beq.n	800166c <ADC_Enable+0x40>
 8001658:	687b      	ldr	r3, [r7, #4]
 800165a:	681b      	ldr	r3, [r3, #0]
 800165c:	68da      	ldr	r2, [r3, #12]
 800165e:	2380      	movs	r3, #128	; 0x80
 8001660:	021b      	lsls	r3, r3, #8
 8001662:	401a      	ands	r2, r3
 8001664:	2380      	movs	r3, #128	; 0x80
 8001666:	021b      	lsls	r3, r3, #8
 8001668:	429a      	cmp	r2, r3
 800166a:	d101      	bne.n	8001670 <ADC_Enable+0x44>
 800166c:	2301      	movs	r3, #1
 800166e:	e000      	b.n	8001672 <ADC_Enable+0x46>
 8001670:	2300      	movs	r3, #0
 8001672:	2b00      	cmp	r3, #0
 8001674:	d152      	bne.n	800171c <ADC_Enable+0xf0>
  {
    /* Check if conditions to enable the ADC are fulfilled */
    if (ADC_ENABLING_CONDITIONS(hadc) == RESET)
 8001676:	687b      	ldr	r3, [r7, #4]
 8001678:	681b      	ldr	r3, [r3, #0]
 800167a:	689b      	ldr	r3, [r3, #8]
 800167c:	4a2a      	ldr	r2, [pc, #168]	; (8001728 <ADC_Enable+0xfc>)
 800167e:	4013      	ands	r3, r2
 8001680:	d00d      	beq.n	800169e <ADC_Enable+0x72>
    {
      /* Update ADC state machine to error */
      SET_BIT(hadc->State, HAL_ADC_STATE_ERROR_INTERNAL);
 8001682:	687b      	ldr	r3, [r7, #4]
 8001684:	6b9b      	ldr	r3, [r3, #56]	; 0x38
 8001686:	2210      	movs	r2, #16
 8001688:	431a      	orrs	r2, r3
 800168a:	687b      	ldr	r3, [r7, #4]
 800168c:	639a      	str	r2, [r3, #56]	; 0x38
    
      /* Set ADC error code to ADC IP internal error */
      SET_BIT(hadc->ErrorCode, HAL_ADC_ERROR_INTERNAL);
 800168e:	687b      	ldr	r3, [r7, #4]
 8001690:	6bdb      	ldr	r3, [r3, #60]	; 0x3c
 8001692:	2201      	movs	r2, #1
 8001694:	431a      	orrs	r2, r3
 8001696:	687b      	ldr	r3, [r7, #4]
 8001698:	63da      	str	r2, [r3, #60]	; 0x3c
      
      return HAL_ERROR;
 800169a:	2301      	movs	r3, #1
 800169c:	e03f      	b.n	800171e <ADC_Enable+0xf2>
    }
    
    /* Enable the ADC peripheral */
    __HAL_ADC_ENABLE(hadc);
 800169e:	687b      	ldr	r3, [r7, #4]
 80016a0:	681b      	ldr	r3, [r3, #0]
 80016a2:	689a      	ldr	r2, [r3, #8]
 80016a4:	687b      	ldr	r3, [r7, #4]
 80016a6:	681b      	ldr	r3, [r3, #0]
 80016a8:	2101      	movs	r1, #1
 80016aa:	430a      	orrs	r2, r1
 80016ac:	609a      	str	r2, [r3, #8]
    
    /* Delay for ADC stabilization time */
    /* Compute number of CPU cycles to wait for */
    wait_loop_index = (ADC_STAB_DELAY_US * (SystemCoreClock / 1000000U));
 80016ae:	4b1f      	ldr	r3, [pc, #124]	; (800172c <ADC_Enable+0x100>)
 80016b0:	681b      	ldr	r3, [r3, #0]
 80016b2:	491f      	ldr	r1, [pc, #124]	; (8001730 <ADC_Enable+0x104>)
 80016b4:	0018      	movs	r0, r3
 80016b6:	f7fe fd31 	bl	800011c <__udivsi3>
 80016ba:	0003      	movs	r3, r0
 80016bc:	60bb      	str	r3, [r7, #8]
    while(wait_loop_index != 0U)
 80016be:	e002      	b.n	80016c6 <ADC_Enable+0x9a>
    {
      wait_loop_index--;
 80016c0:	68bb      	ldr	r3, [r7, #8]
 80016c2:	3b01      	subs	r3, #1
 80016c4:	60bb      	str	r3, [r7, #8]
    while(wait_loop_index != 0U)
 80016c6:	68bb      	ldr	r3, [r7, #8]
 80016c8:	2b00      	cmp	r3, #0
 80016ca:	d1f9      	bne.n	80016c0 <ADC_Enable+0x94>
    }

    /* Get tick count */
    tickstart = HAL_GetTick();
 80016cc:	f7ff fb2a 	bl	8000d24 <HAL_GetTick>
 80016d0:	0003      	movs	r3, r0
 80016d2:	60fb      	str	r3, [r7, #12]
    
    /* Wait for ADC effectively enabled */
    while(__HAL_ADC_GET_FLAG(hadc, ADC_FLAG_RDY) == RESET)
 80016d4:	e01b      	b.n	800170e <ADC_Enable+0xe2>
    {
      if((HAL_GetTick() - tickstart) > ADC_ENABLE_TIMEOUT)
 80016d6:	f7ff fb25 	bl	8000d24 <HAL_GetTick>
 80016da:	0002      	movs	r2, r0
 80016dc:	68fb      	ldr	r3, [r7, #12]
 80016de:	1ad3      	subs	r3, r2, r3
 80016e0:	2b02      	cmp	r3, #2
 80016e2:	d914      	bls.n	800170e <ADC_Enable+0xe2>
      {
        /* New check to avoid false timeout detection in case of preemption */
        if(__HAL_ADC_GET_FLAG(hadc, ADC_FLAG_RDY) == RESET)
 80016e4:	687b      	ldr	r3, [r7, #4]
 80016e6:	681b      	ldr	r3, [r3, #0]
 80016e8:	681b      	ldr	r3, [r3, #0]
 80016ea:	2201      	movs	r2, #1
 80016ec:	4013      	ands	r3, r2
 80016ee:	2b01      	cmp	r3, #1
 80016f0:	d00d      	beq.n	800170e <ADC_Enable+0xe2>
        {
          /* Update ADC state machine to error */
          SET_BIT(hadc->State, HAL_ADC_STATE_ERROR_INTERNAL);
 80016f2:	687b      	ldr	r3, [r7, #4]
 80016f4:	6b9b      	ldr	r3, [r3, #56]	; 0x38
 80016f6:	2210      	movs	r2, #16
 80016f8:	431a      	orrs	r2, r3
 80016fa:	687b      	ldr	r3, [r7, #4]
 80016fc:	639a      	str	r2, [r3, #56]	; 0x38

          /* Set ADC error code to ADC IP internal error */
          SET_BIT(hadc->ErrorCode, HAL_ADC_ERROR_INTERNAL);
 80016fe:	687b      	ldr	r3, [r7, #4]
 8001700:	6bdb      	ldr	r3, [r3, #60]	; 0x3c
 8001702:	2201      	movs	r2, #1
 8001704:	431a      	orrs	r2, r3
 8001706:	687b      	ldr	r3, [r7, #4]
 8001708:	63da      	str	r2, [r3, #60]	; 0x3c

          return HAL_ERROR;
 800170a:	2301      	movs	r3, #1
 800170c:	e007      	b.n	800171e <ADC_Enable+0xf2>
    while(__HAL_ADC_GET_FLAG(hadc, ADC_FLAG_RDY) == RESET)
 800170e:	687b      	ldr	r3, [r7, #4]
 8001710:	681b      	ldr	r3, [r3, #0]
 8001712:	681b      	ldr	r3, [r3, #0]
 8001714:	2201      	movs	r2, #1
 8001716:	4013      	ands	r3, r2
 8001718:	2b01      	cmp	r3, #1
 800171a:	d1dc      	bne.n	80016d6 <ADC_Enable+0xaa>
      }
    }
  }
   
  /* Return HAL status */
  return HAL_OK;
 800171c:	2300      	movs	r3, #0
}
 800171e:	0018      	movs	r0, r3
 8001720:	46bd      	mov	sp, r7
 8001722:	b004      	add	sp, #16
 8001724:	bd80      	pop	{r7, pc}
 8001726:	46c0      	nop			; (mov r8, r8)
 8001728:	80000017 	.word	0x80000017
 800172c:	20000004 	.word	0x20000004
 8001730:	000f4240 	.word	0x000f4240

08001734 <ADC_Disable>:
  *         stopped.
  * @param  hadc ADC handle
  * @retval HAL status.
  */
static HAL_StatusTypeDef ADC_Disable(ADC_HandleTypeDef* hadc)
{
 8001734:	b580      	push	{r7, lr}
 8001736:	b084      	sub	sp, #16
 8001738:	af00      	add	r7, sp, #0
 800173a:	6078      	str	r0, [r7, #4]
  uint32_t tickstart = 0U;
 800173c:	2300      	movs	r3, #0
 800173e:	60fb      	str	r3, [r7, #12]
  
  /* Verification if ADC is not already disabled:                             */
  /* Note: forbidden to disable ADC (set bit ADC_CR_ADDIS) if ADC is already  */
  /*       disabled.                                                          */
  if (ADC_IS_ENABLE(hadc) != RESET)
 8001740:	687b      	ldr	r3, [r7, #4]
 8001742:	681b      	ldr	r3, [r3, #0]
 8001744:	689b      	ldr	r3, [r3, #8]
 8001746:	2203      	movs	r2, #3
 8001748:	4013      	ands	r3, r2
 800174a:	2b01      	cmp	r3, #1
 800174c:	d112      	bne.n	8001774 <ADC_Disable+0x40>
 800174e:	687b      	ldr	r3, [r7, #4]
 8001750:	681b      	ldr	r3, [r3, #0]
 8001752:	681b      	ldr	r3, [r3, #0]
 8001754:	2201      	movs	r2, #1
 8001756:	4013      	ands	r3, r2
 8001758:	2b01      	cmp	r3, #1
 800175a:	d009      	beq.n	8001770 <ADC_Disable+0x3c>
 800175c:	687b      	ldr	r3, [r7, #4]
 800175e:	681b      	ldr	r3, [r3, #0]
 8001760:	68da      	ldr	r2, [r3, #12]
 8001762:	2380      	movs	r3, #128	; 0x80
 8001764:	021b      	lsls	r3, r3, #8
 8001766:	401a      	ands	r2, r3
 8001768:	2380      	movs	r3, #128	; 0x80
 800176a:	021b      	lsls	r3, r3, #8
 800176c:	429a      	cmp	r2, r3
 800176e:	d101      	bne.n	8001774 <ADC_Disable+0x40>
 8001770:	2301      	movs	r3, #1
 8001772:	e000      	b.n	8001776 <ADC_Disable+0x42>
 8001774:	2300      	movs	r3, #0
 8001776:	2b00      	cmp	r3, #0
 8001778:	d048      	beq.n	800180c <ADC_Disable+0xd8>
  {
    /* Check if conditions to disable the ADC are fulfilled */
    if (ADC_DISABLING_CONDITIONS(hadc) != RESET)
 800177a:	687b      	ldr	r3, [r7, #4]
 800177c:	681b      	ldr	r3, [r3, #0]
 800177e:	689b      	ldr	r3, [r3, #8]
 8001780:	2205      	movs	r2, #5
 8001782:	4013      	ands	r3, r2
 8001784:	2b01      	cmp	r3, #1
 8001786:	d110      	bne.n	80017aa <ADC_Disable+0x76>
    {
      /* Disable the ADC peripheral */
      __HAL_ADC_DISABLE(hadc);
 8001788:	687b      	ldr	r3, [r7, #4]
 800178a:	681b      	ldr	r3, [r3, #0]
 800178c:	689a      	ldr	r2, [r3, #8]
 800178e:	687b      	ldr	r3, [r7, #4]
 8001790:	681b      	ldr	r3, [r3, #0]
 8001792:	2102      	movs	r1, #2
 8001794:	430a      	orrs	r2, r1
 8001796:	609a      	str	r2, [r3, #8]
 8001798:	687b      	ldr	r3, [r7, #4]
 800179a:	681b      	ldr	r3, [r3, #0]
 800179c:	2203      	movs	r2, #3
 800179e:	601a      	str	r2, [r3, #0]
      return HAL_ERROR;
    }
     
    /* Wait for ADC effectively disabled */
    /* Get tick count */
    tickstart = HAL_GetTick();
 80017a0:	f7ff fac0 	bl	8000d24 <HAL_GetTick>
 80017a4:	0003      	movs	r3, r0
 80017a6:	60fb      	str	r3, [r7, #12]
    
    while(HAL_IS_BIT_SET(hadc->Instance->CR, ADC_CR_ADEN))
 80017a8:	e029      	b.n	80017fe <ADC_Disable+0xca>
      SET_BIT(hadc->State, HAL_ADC_STATE_ERROR_INTERNAL);
 80017aa:	687b      	ldr	r3, [r7, #4]
 80017ac:	6b9b      	ldr	r3, [r3, #56]	; 0x38
 80017ae:	2210      	movs	r2, #16
 80017b0:	431a      	orrs	r2, r3
 80017b2:	687b      	ldr	r3, [r7, #4]
 80017b4:	639a      	str	r2, [r3, #56]	; 0x38
      SET_BIT(hadc->ErrorCode, HAL_ADC_ERROR_INTERNAL);
 80017b6:	687b      	ldr	r3, [r7, #4]
 80017b8:	6bdb      	ldr	r3, [r3, #60]	; 0x3c
 80017ba:	2201      	movs	r2, #1
 80017bc:	431a      	orrs	r2, r3
 80017be:	687b      	ldr	r3, [r7, #4]
 80017c0:	63da      	str	r2, [r3, #60]	; 0x3c
      return HAL_ERROR;
 80017c2:	2301      	movs	r3, #1
 80017c4:	e023      	b.n	800180e <ADC_Disable+0xda>
    {
      if((HAL_GetTick() - tickstart) > ADC_DISABLE_TIMEOUT)
 80017c6:	f7ff faad 	bl	8000d24 <HAL_GetTick>
 80017ca:	0002      	movs	r2, r0
 80017cc:	68fb      	ldr	r3, [r7, #12]
 80017ce:	1ad3      	subs	r3, r2, r3
 80017d0:	2b02      	cmp	r3, #2
 80017d2:	d914      	bls.n	80017fe <ADC_Disable+0xca>
      {
        /* New check to avoid false timeout detection in case of preemption */
        if(HAL_IS_BIT_SET(hadc->Instance->CR, ADC_CR_ADEN))
 80017d4:	687b      	ldr	r3, [r7, #4]
 80017d6:	681b      	ldr	r3, [r3, #0]
 80017d8:	689b      	ldr	r3, [r3, #8]
 80017da:	2201      	movs	r2, #1
 80017dc:	4013      	ands	r3, r2
 80017de:	2b01      	cmp	r3, #1
 80017e0:	d10d      	bne.n	80017fe <ADC_Disable+0xca>
        {
          /* Update ADC state machine to error */
          SET_BIT(hadc->State, HAL_ADC_STATE_ERROR_INTERNAL);
 80017e2:	687b      	ldr	r3, [r7, #4]
 80017e4:	6b9b      	ldr	r3, [r3, #56]	; 0x38
 80017e6:	2210      	movs	r2, #16
 80017e8:	431a      	orrs	r2, r3
 80017ea:	687b      	ldr	r3, [r7, #4]
 80017ec:	639a      	str	r2, [r3, #56]	; 0x38

          /* Set ADC error code to ADC IP internal error */
          SET_BIT(hadc->ErrorCode, HAL_ADC_ERROR_INTERNAL);
 80017ee:	687b      	ldr	r3, [r7, #4]
 80017f0:	6bdb      	ldr	r3, [r3, #60]	; 0x3c
 80017f2:	2201      	movs	r2, #1
 80017f4:	431a      	orrs	r2, r3
 80017f6:	687b      	ldr	r3, [r7, #4]
 80017f8:	63da      	str	r2, [r3, #60]	; 0x3c

          return HAL_ERROR;
 80017fa:	2301      	movs	r3, #1
 80017fc:	e007      	b.n	800180e <ADC_Disable+0xda>
    while(HAL_IS_BIT_SET(hadc->Instance->CR, ADC_CR_ADEN))
 80017fe:	687b      	ldr	r3, [r7, #4]
 8001800:	681b      	ldr	r3, [r3, #0]
 8001802:	689b      	ldr	r3, [r3, #8]
 8001804:	2201      	movs	r2, #1
 8001806:	4013      	ands	r3, r2
 8001808:	2b01      	cmp	r3, #1
 800180a:	d0dc      	beq.n	80017c6 <ADC_Disable+0x92>
      }
    }
  }
  
  /* Return HAL status */
  return HAL_OK;
 800180c:	2300      	movs	r3, #0
}
 800180e:	0018      	movs	r0, r3
 8001810:	46bd      	mov	sp, r7
 8001812:	b004      	add	sp, #16
 8001814:	bd80      	pop	{r7, pc}

08001816 <ADC_ConversionStop>:
  *         stopped to disable the ADC.
  * @param  hadc ADC handle
  * @retval HAL status.
  */
static HAL_StatusTypeDef ADC_ConversionStop(ADC_HandleTypeDef* hadc)
{
 8001816:	b580      	push	{r7, lr}
 8001818:	b084      	sub	sp, #16
 800181a:	af00      	add	r7, sp, #0
 800181c:	6078      	str	r0, [r7, #4]
  uint32_t tickstart = 0U;
 800181e:	2300      	movs	r3, #0
 8001820:	60fb      	str	r3, [r7, #12]
  /* Check the parameters */
  assert_param(IS_ADC_ALL_INSTANCE(hadc->Instance));
    
  /* Verification if ADC is not already stopped on regular group to bypass    */
  /* this function if not needed.                                             */
  if (ADC_IS_CONVERSION_ONGOING_REGULAR(hadc))
 8001822:	687b      	ldr	r3, [r7, #4]
 8001824:	681b      	ldr	r3, [r3, #0]
 8001826:	689b      	ldr	r3, [r3, #8]
 8001828:	2204      	movs	r2, #4
 800182a:	4013      	ands	r3, r2
 800182c:	d03a      	beq.n	80018a4 <ADC_ConversionStop+0x8e>
  {
    
    /* Stop potential conversion on going on regular group */
    /* Software is allowed to set ADSTP only when ADSTART=1 and ADDIS=0 */
    if (HAL_IS_BIT_SET(hadc->Instance->CR, ADC_CR_ADSTART) && 
 800182e:	687b      	ldr	r3, [r7, #4]
 8001830:	681b      	ldr	r3, [r3, #0]
 8001832:	689b      	ldr	r3, [r3, #8]
 8001834:	2204      	movs	r2, #4
 8001836:	4013      	ands	r3, r2
 8001838:	2b04      	cmp	r3, #4
 800183a:	d10d      	bne.n	8001858 <ADC_ConversionStop+0x42>
        HAL_IS_BIT_CLR(hadc->Instance->CR, ADC_CR_ADDIS)                  )
 800183c:	687b      	ldr	r3, [r7, #4]
 800183e:	681b      	ldr	r3, [r3, #0]
 8001840:	689b      	ldr	r3, [r3, #8]
 8001842:	2202      	movs	r2, #2
 8001844:	4013      	ands	r3, r2
    if (HAL_IS_BIT_SET(hadc->Instance->CR, ADC_CR_ADSTART) && 
 8001846:	d107      	bne.n	8001858 <ADC_ConversionStop+0x42>
    {
      /* Stop conversions on regular group */
      hadc->Instance->CR |= ADC_CR_ADSTP;
 8001848:	687b      	ldr	r3, [r7, #4]
 800184a:	681b      	ldr	r3, [r3, #0]
 800184c:	689a      	ldr	r2, [r3, #8]
 800184e:	687b      	ldr	r3, [r7, #4]
 8001850:	681b      	ldr	r3, [r3, #0]
 8001852:	2110      	movs	r1, #16
 8001854:	430a      	orrs	r2, r1
 8001856:	609a      	str	r2, [r3, #8]
    }
    
    /* Wait for conversion effectively stopped */
    /* Get tick count */
    tickstart = HAL_GetTick();
 8001858:	f7ff fa64 	bl	8000d24 <HAL_GetTick>
 800185c:	0003      	movs	r3, r0
 800185e:	60fb      	str	r3, [r7, #12]
      
    while((hadc->Instance->CR & ADC_CR_ADSTART) != RESET)
 8001860:	e01a      	b.n	8001898 <ADC_ConversionStop+0x82>
    {
      if((HAL_GetTick() - tickstart) > ADC_STOP_CONVERSION_TIMEOUT)
 8001862:	f7ff fa5f 	bl	8000d24 <HAL_GetTick>
 8001866:	0002      	movs	r2, r0
 8001868:	68fb      	ldr	r3, [r7, #12]
 800186a:	1ad3      	subs	r3, r2, r3
 800186c:	2b02      	cmp	r3, #2
 800186e:	d913      	bls.n	8001898 <ADC_ConversionStop+0x82>
      {
        /* New check to avoid false timeout detection in case of preemption */
        if((hadc->Instance->CR & ADC_CR_ADSTART) != RESET)
 8001870:	687b      	ldr	r3, [r7, #4]
 8001872:	681b      	ldr	r3, [r3, #0]
 8001874:	689b      	ldr	r3, [r3, #8]
 8001876:	2204      	movs	r2, #4
 8001878:	4013      	ands	r3, r2
 800187a:	d00d      	beq.n	8001898 <ADC_ConversionStop+0x82>
        {
          /* Update ADC state machine to error */
          SET_BIT(hadc->State, HAL_ADC_STATE_ERROR_INTERNAL);
 800187c:	687b      	ldr	r3, [r7, #4]
 800187e:	6b9b      	ldr	r3, [r3, #56]	; 0x38
 8001880:	2210      	movs	r2, #16
 8001882:	431a      	orrs	r2, r3
 8001884:	687b      	ldr	r3, [r7, #4]
 8001886:	639a      	str	r2, [r3, #56]	; 0x38

          /* Set ADC error code to ADC IP internal error */
          SET_BIT(hadc->ErrorCode, HAL_ADC_ERROR_INTERNAL);
 8001888:	687b      	ldr	r3, [r7, #4]
 800188a:	6bdb      	ldr	r3, [r3, #60]	; 0x3c
 800188c:	2201      	movs	r2, #1
 800188e:	431a      	orrs	r2, r3
 8001890:	687b      	ldr	r3, [r7, #4]
 8001892:	63da      	str	r2, [r3, #60]	; 0x3c

          return HAL_ERROR;
 8001894:	2301      	movs	r3, #1
 8001896:	e006      	b.n	80018a6 <ADC_ConversionStop+0x90>
    while((hadc->Instance->CR & ADC_CR_ADSTART) != RESET)
 8001898:	687b      	ldr	r3, [r7, #4]
 800189a:	681b      	ldr	r3, [r3, #0]
 800189c:	689b      	ldr	r3, [r3, #8]
 800189e:	2204      	movs	r2, #4
 80018a0:	4013      	ands	r3, r2
 80018a2:	d1de      	bne.n	8001862 <ADC_ConversionStop+0x4c>
      }
    }
  }
   
  /* Return HAL status */
  return HAL_OK;
 80018a4:	2300      	movs	r3, #0
}
 80018a6:	0018      	movs	r0, r3
 80018a8:	46bd      	mov	sp, r7
 80018aa:	b004      	add	sp, #16
 80018ac:	bd80      	pop	{r7, pc}
	...

080018b0 <__NVIC_EnableIRQ>:
  \details Enables a device specific interrupt in the NVIC interrupt controller.
  \param [in]      IRQn  Device specific interrupt number.
  \note    IRQn must not be negative.
 */
__STATIC_INLINE void __NVIC_EnableIRQ(IRQn_Type IRQn)
{
 80018b0:	b580      	push	{r7, lr}
 80018b2:	b082      	sub	sp, #8
 80018b4:	af00      	add	r7, sp, #0
 80018b6:	0002      	movs	r2, r0
 80018b8:	1dfb      	adds	r3, r7, #7
 80018ba:	701a      	strb	r2, [r3, #0]
  if ((int32_t)(IRQn) >= 0)
 80018bc:	1dfb      	adds	r3, r7, #7
 80018be:	781b      	ldrb	r3, [r3, #0]
 80018c0:	2b7f      	cmp	r3, #127	; 0x7f
 80018c2:	d809      	bhi.n	80018d8 <__NVIC_EnableIRQ+0x28>
  {
    NVIC->ISER[0U] = (uint32_t)(1UL << (((uint32_t)IRQn) & 0x1FUL));
 80018c4:	1dfb      	adds	r3, r7, #7
 80018c6:	781b      	ldrb	r3, [r3, #0]
 80018c8:	001a      	movs	r2, r3
 80018ca:	231f      	movs	r3, #31
 80018cc:	401a      	ands	r2, r3
 80018ce:	4b04      	ldr	r3, [pc, #16]	; (80018e0 <__NVIC_EnableIRQ+0x30>)
 80018d0:	2101      	movs	r1, #1
 80018d2:	4091      	lsls	r1, r2
 80018d4:	000a      	movs	r2, r1
 80018d6:	601a      	str	r2, [r3, #0]
  }
}
 80018d8:	46c0      	nop			; (mov r8, r8)
 80018da:	46bd      	mov	sp, r7
 80018dc:	b002      	add	sp, #8
 80018de:	bd80      	pop	{r7, pc}
 80018e0:	e000e100 	.word	0xe000e100

080018e4 <__NVIC_SetPriority>:
  \param [in]      IRQn  Interrupt number.
  \param [in]  priority  Priority to set.
  \note    The priority cannot be set for every processor exception.
 */
__STATIC_INLINE void __NVIC_SetPriority(IRQn_Type IRQn, uint32_t priority)
{
 80018e4:	b590      	push	{r4, r7, lr}
 80018e6:	b083      	sub	sp, #12
 80018e8:	af00      	add	r7, sp, #0
 80018ea:	0002      	movs	r2, r0
 80018ec:	6039      	str	r1, [r7, #0]
 80018ee:	1dfb      	adds	r3, r7, #7
 80018f0:	701a      	strb	r2, [r3, #0]
  if ((int32_t)(IRQn) >= 0)
 80018f2:	1dfb      	adds	r3, r7, #7
 80018f4:	781b      	ldrb	r3, [r3, #0]
 80018f6:	2b7f      	cmp	r3, #127	; 0x7f
 80018f8:	d828      	bhi.n	800194c <__NVIC_SetPriority+0x68>
  {
    NVIC->IP[_IP_IDX(IRQn)]  = ((uint32_t)(NVIC->IP[_IP_IDX(IRQn)]  & ~(0xFFUL << _BIT_SHIFT(IRQn))) |
 80018fa:	4a2f      	ldr	r2, [pc, #188]	; (80019b8 <__NVIC_SetPriority+0xd4>)
 80018fc:	1dfb      	adds	r3, r7, #7
 80018fe:	781b      	ldrb	r3, [r3, #0]
 8001900:	b25b      	sxtb	r3, r3
 8001902:	089b      	lsrs	r3, r3, #2
 8001904:	33c0      	adds	r3, #192	; 0xc0
 8001906:	009b      	lsls	r3, r3, #2
 8001908:	589b      	ldr	r3, [r3, r2]
 800190a:	1dfa      	adds	r2, r7, #7
 800190c:	7812      	ldrb	r2, [r2, #0]
 800190e:	0011      	movs	r1, r2
 8001910:	2203      	movs	r2, #3
 8001912:	400a      	ands	r2, r1
 8001914:	00d2      	lsls	r2, r2, #3
 8001916:	21ff      	movs	r1, #255	; 0xff
 8001918:	4091      	lsls	r1, r2
 800191a:	000a      	movs	r2, r1
 800191c:	43d2      	mvns	r2, r2
 800191e:	401a      	ands	r2, r3
 8001920:	0011      	movs	r1, r2
       (((priority << (8U - __NVIC_PRIO_BITS)) & (uint32_t)0xFFUL) << _BIT_SHIFT(IRQn)));
 8001922:	683b      	ldr	r3, [r7, #0]
 8001924:	019b      	lsls	r3, r3, #6
 8001926:	22ff      	movs	r2, #255	; 0xff
 8001928:	401a      	ands	r2, r3
 800192a:	1dfb      	adds	r3, r7, #7
 800192c:	781b      	ldrb	r3, [r3, #0]
 800192e:	0018      	movs	r0, r3
 8001930:	2303      	movs	r3, #3
 8001932:	4003      	ands	r3, r0
 8001934:	00db      	lsls	r3, r3, #3
 8001936:	409a      	lsls	r2, r3
    NVIC->IP[_IP_IDX(IRQn)]  = ((uint32_t)(NVIC->IP[_IP_IDX(IRQn)]  & ~(0xFFUL << _BIT_SHIFT(IRQn))) |
 8001938:	481f      	ldr	r0, [pc, #124]	; (80019b8 <__NVIC_SetPriority+0xd4>)
 800193a:	1dfb      	adds	r3, r7, #7
 800193c:	781b      	ldrb	r3, [r3, #0]
 800193e:	b25b      	sxtb	r3, r3
 8001940:	089b      	lsrs	r3, r3, #2
 8001942:	430a      	orrs	r2, r1
 8001944:	33c0      	adds	r3, #192	; 0xc0
 8001946:	009b      	lsls	r3, r3, #2
 8001948:	501a      	str	r2, [r3, r0]
  else
  {
    SCB->SHP[_SHP_IDX(IRQn)] = ((uint32_t)(SCB->SHP[_SHP_IDX(IRQn)] & ~(0xFFUL << _BIT_SHIFT(IRQn))) |
       (((priority << (8U - __NVIC_PRIO_BITS)) & (uint32_t)0xFFUL) << _BIT_SHIFT(IRQn)));
  }
}
 800194a:	e031      	b.n	80019b0 <__NVIC_SetPriority+0xcc>
    SCB->SHP[_SHP_IDX(IRQn)] = ((uint32_t)(SCB->SHP[_SHP_IDX(IRQn)] & ~(0xFFUL << _BIT_SHIFT(IRQn))) |
 800194c:	4a1b      	ldr	r2, [pc, #108]	; (80019bc <__NVIC_SetPriority+0xd8>)
 800194e:	1dfb      	adds	r3, r7, #7
 8001950:	781b      	ldrb	r3, [r3, #0]
 8001952:	0019      	movs	r1, r3
 8001954:	230f      	movs	r3, #15
 8001956:	400b      	ands	r3, r1
 8001958:	3b08      	subs	r3, #8
 800195a:	089b      	lsrs	r3, r3, #2
 800195c:	3306      	adds	r3, #6
 800195e:	009b      	lsls	r3, r3, #2
 8001960:	18d3      	adds	r3, r2, r3
 8001962:	3304      	adds	r3, #4
 8001964:	681b      	ldr	r3, [r3, #0]
 8001966:	1dfa      	adds	r2, r7, #7
 8001968:	7812      	ldrb	r2, [r2, #0]
 800196a:	0011      	movs	r1, r2
 800196c:	2203      	movs	r2, #3
 800196e:	400a      	ands	r2, r1
 8001970:	00d2      	lsls	r2, r2, #3
 8001972:	21ff      	movs	r1, #255	; 0xff
 8001974:	4091      	lsls	r1, r2
 8001976:	000a      	movs	r2, r1
 8001978:	43d2      	mvns	r2, r2
 800197a:	401a      	ands	r2, r3
 800197c:	0011      	movs	r1, r2
       (((priority << (8U - __NVIC_PRIO_BITS)) & (uint32_t)0xFFUL) << _BIT_SHIFT(IRQn)));
 800197e:	683b      	ldr	r3, [r7, #0]
 8001980:	019b      	lsls	r3, r3, #6
 8001982:	22ff      	movs	r2, #255	; 0xff
 8001984:	401a      	ands	r2, r3
 8001986:	1dfb      	adds	r3, r7, #7
 8001988:	781b      	ldrb	r3, [r3, #0]
 800198a:	0018      	movs	r0, r3
 800198c:	2303      	movs	r3, #3
 800198e:	4003      	ands	r3, r0
 8001990:	00db      	lsls	r3, r3, #3
 8001992:	409a      	lsls	r2, r3
    SCB->SHP[_SHP_IDX(IRQn)] = ((uint32_t)(SCB->SHP[_SHP_IDX(IRQn)] & ~(0xFFUL << _BIT_SHIFT(IRQn))) |
 8001994:	4809      	ldr	r0, [pc, #36]	; (80019bc <__NVIC_SetPriority+0xd8>)
 8001996:	1dfb      	adds	r3, r7, #7
 8001998:	781b      	ldrb	r3, [r3, #0]
 800199a:	001c      	movs	r4, r3
 800199c:	230f      	movs	r3, #15
 800199e:	4023      	ands	r3, r4
 80019a0:	3b08      	subs	r3, #8
 80019a2:	089b      	lsrs	r3, r3, #2
 80019a4:	430a      	orrs	r2, r1
 80019a6:	3306      	adds	r3, #6
 80019a8:	009b      	lsls	r3, r3, #2
 80019aa:	18c3      	adds	r3, r0, r3
 80019ac:	3304      	adds	r3, #4
 80019ae:	601a      	str	r2, [r3, #0]
}
 80019b0:	46c0      	nop			; (mov r8, r8)
 80019b2:	46bd      	mov	sp, r7
 80019b4:	b003      	add	sp, #12
 80019b6:	bd90      	pop	{r4, r7, pc}
 80019b8:	e000e100 	.word	0xe000e100
 80019bc:	e000ed00 	.word	0xe000ed00

080019c0 <SysTick_Config>:
  \note    When the variable <b>__Vendor_SysTickConfig</b> is set to 1, then the
           function <b>SysTick_Config</b> is not included. In this case, the file <b><i>device</i>.h</b>
           must contain a vendor-specific implementation of this function.
 */
__STATIC_INLINE uint32_t SysTick_Config(uint32_t ticks)
{
 80019c0:	b580      	push	{r7, lr}
 80019c2:	b082      	sub	sp, #8
 80019c4:	af00      	add	r7, sp, #0
 80019c6:	6078      	str	r0, [r7, #4]
  if ((ticks - 1UL) > SysTick_LOAD_RELOAD_Msk)
 80019c8:	687b      	ldr	r3, [r7, #4]
 80019ca:	1e5a      	subs	r2, r3, #1
 80019cc:	2380      	movs	r3, #128	; 0x80
 80019ce:	045b      	lsls	r3, r3, #17
 80019d0:	429a      	cmp	r2, r3
 80019d2:	d301      	bcc.n	80019d8 <SysTick_Config+0x18>
  {
    return (1UL);                                                   /* Reload value impossible */
 80019d4:	2301      	movs	r3, #1
 80019d6:	e010      	b.n	80019fa <SysTick_Config+0x3a>
  }

  SysTick->LOAD  = (uint32_t)(ticks - 1UL);                         /* set reload register */
 80019d8:	4b0a      	ldr	r3, [pc, #40]	; (8001a04 <SysTick_Config+0x44>)
 80019da:	687a      	ldr	r2, [r7, #4]
 80019dc:	3a01      	subs	r2, #1
 80019de:	605a      	str	r2, [r3, #4]
  NVIC_SetPriority (SysTick_IRQn, (1UL << __NVIC_PRIO_BITS) - 1UL); /* set Priority for Systick Interrupt */
 80019e0:	2301      	movs	r3, #1
 80019e2:	425b      	negs	r3, r3
 80019e4:	2103      	movs	r1, #3
 80019e6:	0018      	movs	r0, r3
 80019e8:	f7ff ff7c 	bl	80018e4 <__NVIC_SetPriority>
  SysTick->VAL   = 0UL;                                             /* Load the SysTick Counter Value */
 80019ec:	4b05      	ldr	r3, [pc, #20]	; (8001a04 <SysTick_Config+0x44>)
 80019ee:	2200      	movs	r2, #0
 80019f0:	609a      	str	r2, [r3, #8]
  SysTick->CTRL  = SysTick_CTRL_CLKSOURCE_Msk |
 80019f2:	4b04      	ldr	r3, [pc, #16]	; (8001a04 <SysTick_Config+0x44>)
 80019f4:	2207      	movs	r2, #7
 80019f6:	601a      	str	r2, [r3, #0]
                   SysTick_CTRL_TICKINT_Msk   |
                   SysTick_CTRL_ENABLE_Msk;                         /* Enable SysTick IRQ and SysTick Timer */
  return (0UL);                                                     /* Function successful */
 80019f8:	2300      	movs	r3, #0
}
 80019fa:	0018      	movs	r0, r3
 80019fc:	46bd      	mov	sp, r7
 80019fe:	b002      	add	sp, #8
 8001a00:	bd80      	pop	{r7, pc}
 8001a02:	46c0      	nop			; (mov r8, r8)
 8001a04:	e000e010 	.word	0xe000e010

08001a08 <HAL_NVIC_SetPriority>:
  *         with stm32f0xx devices, this parameter is a dummy value and it is ignored, because 
  *         no subpriority supported in Cortex M0 based products.   
  * @retval None
  */
void HAL_NVIC_SetPriority(IRQn_Type IRQn, uint32_t PreemptPriority, uint32_t SubPriority)
{ 
 8001a08:	b580      	push	{r7, lr}
 8001a0a:	b084      	sub	sp, #16
 8001a0c:	af00      	add	r7, sp, #0
 8001a0e:	60b9      	str	r1, [r7, #8]
 8001a10:	607a      	str	r2, [r7, #4]
 8001a12:	210f      	movs	r1, #15
 8001a14:	187b      	adds	r3, r7, r1
 8001a16:	1c02      	adds	r2, r0, #0
 8001a18:	701a      	strb	r2, [r3, #0]
  /* Check the parameters */
  assert_param(IS_NVIC_PREEMPTION_PRIORITY(PreemptPriority));
  NVIC_SetPriority(IRQn,PreemptPriority);
 8001a1a:	68ba      	ldr	r2, [r7, #8]
 8001a1c:	187b      	adds	r3, r7, r1
 8001a1e:	781b      	ldrb	r3, [r3, #0]
 8001a20:	b25b      	sxtb	r3, r3
 8001a22:	0011      	movs	r1, r2
 8001a24:	0018      	movs	r0, r3
 8001a26:	f7ff ff5d 	bl	80018e4 <__NVIC_SetPriority>
}
 8001a2a:	46c0      	nop			; (mov r8, r8)
 8001a2c:	46bd      	mov	sp, r7
 8001a2e:	b004      	add	sp, #16
 8001a30:	bd80      	pop	{r7, pc}

08001a32 <HAL_NVIC_EnableIRQ>:
  *         This parameter can be an enumerator of IRQn_Type enumeration
  *         (For the complete STM32 Devices IRQ Channels list, please refer to the appropriate CMSIS device file (stm32f0xxxx.h))
  * @retval None
  */
void HAL_NVIC_EnableIRQ(IRQn_Type IRQn)
{
 8001a32:	b580      	push	{r7, lr}
 8001a34:	b082      	sub	sp, #8
 8001a36:	af00      	add	r7, sp, #0
 8001a38:	0002      	movs	r2, r0
 8001a3a:	1dfb      	adds	r3, r7, #7
 8001a3c:	701a      	strb	r2, [r3, #0]
  /* Check the parameters */
  assert_param(IS_NVIC_DEVICE_IRQ(IRQn));
  
  /* Enable interrupt */
  NVIC_EnableIRQ(IRQn);
 8001a3e:	1dfb      	adds	r3, r7, #7
 8001a40:	781b      	ldrb	r3, [r3, #0]
 8001a42:	b25b      	sxtb	r3, r3
 8001a44:	0018      	movs	r0, r3
 8001a46:	f7ff ff33 	bl	80018b0 <__NVIC_EnableIRQ>
}
 8001a4a:	46c0      	nop			; (mov r8, r8)
 8001a4c:	46bd      	mov	sp, r7
 8001a4e:	b002      	add	sp, #8
 8001a50:	bd80      	pop	{r7, pc}

08001a52 <HAL_SYSTICK_Config>:
  * @param  TicksNumb Specifies the ticks Number of ticks between two interrupts.
  * @retval status:  - 0  Function succeeded.
  *                  - 1  Function failed.
  */
uint32_t HAL_SYSTICK_Config(uint32_t TicksNumb)
{
 8001a52:	b580      	push	{r7, lr}
 8001a54:	b082      	sub	sp, #8
 8001a56:	af00      	add	r7, sp, #0
 8001a58:	6078      	str	r0, [r7, #4]
   return SysTick_Config(TicksNumb);
 8001a5a:	687b      	ldr	r3, [r7, #4]
 8001a5c:	0018      	movs	r0, r3
 8001a5e:	f7ff ffaf 	bl	80019c0 <SysTick_Config>
 8001a62:	0003      	movs	r3, r0
}
 8001a64:	0018      	movs	r0, r3
 8001a66:	46bd      	mov	sp, r7
 8001a68:	b002      	add	sp, #8
 8001a6a:	bd80      	pop	{r7, pc}

08001a6c <HAL_DMA_Init>:
  * @param  hdma Pointer to a DMA_HandleTypeDef structure that contains
  *               the configuration information for the specified DMA Channel.  
  * @retval HAL status
  */
HAL_StatusTypeDef HAL_DMA_Init(DMA_HandleTypeDef *hdma)
{ 
 8001a6c:	b580      	push	{r7, lr}
 8001a6e:	b084      	sub	sp, #16
 8001a70:	af00      	add	r7, sp, #0
 8001a72:	6078      	str	r0, [r7, #4]
  uint32_t tmp = 0U;
 8001a74:	2300      	movs	r3, #0
 8001a76:	60fb      	str	r3, [r7, #12]
  
  /* Check the DMA handle allocation */
  if(NULL == hdma)
 8001a78:	687b      	ldr	r3, [r7, #4]
 8001a7a:	2b00      	cmp	r3, #0
 8001a7c:	d101      	bne.n	8001a82 <HAL_DMA_Init+0x16>
  {
    return HAL_ERROR;
 8001a7e:	2301      	movs	r3, #1
 8001a80:	e036      	b.n	8001af0 <HAL_DMA_Init+0x84>
  assert_param(IS_DMA_MEMORY_DATA_SIZE(hdma->Init.MemDataAlignment));
  assert_param(IS_DMA_MODE(hdma->Init.Mode));
  assert_param(IS_DMA_PRIORITY(hdma->Init.Priority));
  
  /* Change DMA peripheral state */
  hdma->State = HAL_DMA_STATE_BUSY;
 8001a82:	687b      	ldr	r3, [r7, #4]
 8001a84:	2221      	movs	r2, #33	; 0x21
 8001a86:	2102      	movs	r1, #2
 8001a88:	5499      	strb	r1, [r3, r2]

  /* Get the CR register value */
  tmp = hdma->Instance->CCR;
 8001a8a:	687b      	ldr	r3, [r7, #4]
 8001a8c:	681b      	ldr	r3, [r3, #0]
 8001a8e:	681b      	ldr	r3, [r3, #0]
 8001a90:	60fb      	str	r3, [r7, #12]
  
  /* Clear PL, MSIZE, PSIZE, MINC, PINC, CIRC, DIR bits */
  tmp &= ((uint32_t)~(DMA_CCR_PL    | DMA_CCR_MSIZE  | DMA_CCR_PSIZE  | \
 8001a92:	68fb      	ldr	r3, [r7, #12]
 8001a94:	4a18      	ldr	r2, [pc, #96]	; (8001af8 <HAL_DMA_Init+0x8c>)
 8001a96:	4013      	ands	r3, r2
 8001a98:	60fb      	str	r3, [r7, #12]
                      DMA_CCR_MINC  | DMA_CCR_PINC   | DMA_CCR_CIRC   | \
                      DMA_CCR_DIR));
  
  /* Prepare the DMA Channel configuration */
  tmp |=  hdma->Init.Direction        |
 8001a9a:	687b      	ldr	r3, [r7, #4]
 8001a9c:	685a      	ldr	r2, [r3, #4]
          hdma->Init.PeriphInc           | hdma->Init.MemInc           |
 8001a9e:	687b      	ldr	r3, [r7, #4]
 8001aa0:	689b      	ldr	r3, [r3, #8]
  tmp |=  hdma->Init.Direction        |
 8001aa2:	431a      	orrs	r2, r3
          hdma->Init.PeriphInc           | hdma->Init.MemInc           |
 8001aa4:	687b      	ldr	r3, [r7, #4]
 8001aa6:	68db      	ldr	r3, [r3, #12]
 8001aa8:	431a      	orrs	r2, r3
          hdma->Init.PeriphDataAlignment | hdma->Init.MemDataAlignment |
 8001aaa:	687b      	ldr	r3, [r7, #4]
 8001aac:	691b      	ldr	r3, [r3, #16]
          hdma->Init.PeriphInc           | hdma->Init.MemInc           |
 8001aae:	431a      	orrs	r2, r3
          hdma->Init.PeriphDataAlignment | hdma->Init.MemDataAlignment |
 8001ab0:	687b      	ldr	r3, [r7, #4]
 8001ab2:	695b      	ldr	r3, [r3, #20]
 8001ab4:	431a      	orrs	r2, r3
          hdma->Init.Mode                | hdma->Init.Priority;
 8001ab6:	687b      	ldr	r3, [r7, #4]
 8001ab8:	699b      	ldr	r3, [r3, #24]
          hdma->Init.PeriphDataAlignment | hdma->Init.MemDataAlignment |
 8001aba:	431a      	orrs	r2, r3
          hdma->Init.Mode                | hdma->Init.Priority;
 8001abc:	687b      	ldr	r3, [r7, #4]
 8001abe:	69db      	ldr	r3, [r3, #28]
 8001ac0:	4313      	orrs	r3, r2
  tmp |=  hdma->Init.Direction        |
 8001ac2:	68fa      	ldr	r2, [r7, #12]
 8001ac4:	4313      	orrs	r3, r2
 8001ac6:	60fb      	str	r3, [r7, #12]

  /* Write to DMA Channel CR register */
  hdma->Instance->CCR = tmp;  
 8001ac8:	687b      	ldr	r3, [r7, #4]
 8001aca:	681b      	ldr	r3, [r3, #0]
 8001acc:	68fa      	ldr	r2, [r7, #12]
 8001ace:	601a      	str	r2, [r3, #0]
  
  /* Initialize DmaBaseAddress and ChannelIndex parameters used 
     by HAL_DMA_IRQHandler() and HAL_DMA_PollForTransfer() */
  DMA_CalcBaseAndBitshift(hdma);
 8001ad0:	687b      	ldr	r3, [r7, #4]
 8001ad2:	0018      	movs	r0, r3
 8001ad4:	f000 f932 	bl	8001d3c <DMA_CalcBaseAndBitshift>
  
  /* Initialise the error code */
  hdma->ErrorCode = HAL_DMA_ERROR_NONE;
 8001ad8:	687b      	ldr	r3, [r7, #4]
 8001ada:	2200      	movs	r2, #0
 8001adc:	639a      	str	r2, [r3, #56]	; 0x38

  /* Initialize the DMA state*/
  hdma->State = HAL_DMA_STATE_READY;
 8001ade:	687b      	ldr	r3, [r7, #4]
 8001ae0:	2221      	movs	r2, #33	; 0x21
 8001ae2:	2101      	movs	r1, #1
 8001ae4:	5499      	strb	r1, [r3, r2]
  
  /* Allocate lock resource and initialize it */
  hdma->Lock = HAL_UNLOCKED;
 8001ae6:	687b      	ldr	r3, [r7, #4]
 8001ae8:	2220      	movs	r2, #32
 8001aea:	2100      	movs	r1, #0
 8001aec:	5499      	strb	r1, [r3, r2]
  
  return HAL_OK;
 8001aee:	2300      	movs	r3, #0
}  
 8001af0:	0018      	movs	r0, r3
 8001af2:	46bd      	mov	sp, r7
 8001af4:	b004      	add	sp, #16
 8001af6:	bd80      	pop	{r7, pc}
 8001af8:	ffffc00f 	.word	0xffffc00f

08001afc <HAL_DMA_Abort>:
  * @param  hdma  pointer to a DMA_HandleTypeDef structure that contains
  *               the configuration information for the specified DMA Channel.
  * @retval HAL status
  */
HAL_StatusTypeDef HAL_DMA_Abort(DMA_HandleTypeDef *hdma)
{
 8001afc:	b580      	push	{r7, lr}
 8001afe:	b082      	sub	sp, #8
 8001b00:	af00      	add	r7, sp, #0
 8001b02:	6078      	str	r0, [r7, #4]
  if(hdma->State != HAL_DMA_STATE_BUSY)
 8001b04:	687b      	ldr	r3, [r7, #4]
 8001b06:	2221      	movs	r2, #33	; 0x21
 8001b08:	5c9b      	ldrb	r3, [r3, r2]
 8001b0a:	b2db      	uxtb	r3, r3
 8001b0c:	2b02      	cmp	r3, #2
 8001b0e:	d008      	beq.n	8001b22 <HAL_DMA_Abort+0x26>
  {
    /* no transfer ongoing */
    hdma->ErrorCode = HAL_DMA_ERROR_NO_XFER;
 8001b10:	687b      	ldr	r3, [r7, #4]
 8001b12:	2204      	movs	r2, #4
 8001b14:	639a      	str	r2, [r3, #56]	; 0x38
    
    /* Process Unlocked */
    __HAL_UNLOCK(hdma);
 8001b16:	687b      	ldr	r3, [r7, #4]
 8001b18:	2220      	movs	r2, #32
 8001b1a:	2100      	movs	r1, #0
 8001b1c:	5499      	strb	r1, [r3, r2]
    
    return HAL_ERROR;
 8001b1e:	2301      	movs	r3, #1
 8001b20:	e020      	b.n	8001b64 <HAL_DMA_Abort+0x68>
  }
  else
  {
    /* Disable DMA IT */
    hdma->Instance->CCR &= ~(DMA_IT_TC | DMA_IT_HT | DMA_IT_TE);
 8001b22:	687b      	ldr	r3, [r7, #4]
 8001b24:	681b      	ldr	r3, [r3, #0]
 8001b26:	681a      	ldr	r2, [r3, #0]
 8001b28:	687b      	ldr	r3, [r7, #4]
 8001b2a:	681b      	ldr	r3, [r3, #0]
 8001b2c:	210e      	movs	r1, #14
 8001b2e:	438a      	bics	r2, r1
 8001b30:	601a      	str	r2, [r3, #0]
    
    /* Disable the channel */
    hdma->Instance->CCR &= ~DMA_CCR_EN;
 8001b32:	687b      	ldr	r3, [r7, #4]
 8001b34:	681b      	ldr	r3, [r3, #0]
 8001b36:	681a      	ldr	r2, [r3, #0]
 8001b38:	687b      	ldr	r3, [r7, #4]
 8001b3a:	681b      	ldr	r3, [r3, #0]
 8001b3c:	2101      	movs	r1, #1
 8001b3e:	438a      	bics	r2, r1
 8001b40:	601a      	str	r2, [r3, #0]
    
    /* Clear all flags */
    hdma->DmaBaseAddress->IFCR = (DMA_FLAG_GL1 << hdma->ChannelIndex);
 8001b42:	687b      	ldr	r3, [r7, #4]
 8001b44:	6c1a      	ldr	r2, [r3, #64]	; 0x40
 8001b46:	687b      	ldr	r3, [r7, #4]
 8001b48:	6bdb      	ldr	r3, [r3, #60]	; 0x3c
 8001b4a:	2101      	movs	r1, #1
 8001b4c:	4091      	lsls	r1, r2
 8001b4e:	000a      	movs	r2, r1
 8001b50:	605a      	str	r2, [r3, #4]
  }
  /* Change the DMA state*/
  hdma->State = HAL_DMA_STATE_READY; 
 8001b52:	687b      	ldr	r3, [r7, #4]
 8001b54:	2221      	movs	r2, #33	; 0x21
 8001b56:	2101      	movs	r1, #1
 8001b58:	5499      	strb	r1, [r3, r2]
  
  /* Process Unlocked */
  __HAL_UNLOCK(hdma);
 8001b5a:	687b      	ldr	r3, [r7, #4]
 8001b5c:	2220      	movs	r2, #32
 8001b5e:	2100      	movs	r1, #0
 8001b60:	5499      	strb	r1, [r3, r2]
  
  return HAL_OK;
 8001b62:	2300      	movs	r3, #0
}
 8001b64:	0018      	movs	r0, r3
 8001b66:	46bd      	mov	sp, r7
 8001b68:	b002      	add	sp, #8
 8001b6a:	bd80      	pop	{r7, pc}

08001b6c <HAL_DMA_Abort_IT>:
  * @param  hdma  pointer to a DMA_HandleTypeDef structure that contains
  *               the configuration information for the specified DMA Stream.
  * @retval HAL status
  */
HAL_StatusTypeDef HAL_DMA_Abort_IT(DMA_HandleTypeDef *hdma)
{  
 8001b6c:	b580      	push	{r7, lr}
 8001b6e:	b084      	sub	sp, #16
 8001b70:	af00      	add	r7, sp, #0
 8001b72:	6078      	str	r0, [r7, #4]
  HAL_StatusTypeDef status = HAL_OK;
 8001b74:	210f      	movs	r1, #15
 8001b76:	187b      	adds	r3, r7, r1
 8001b78:	2200      	movs	r2, #0
 8001b7a:	701a      	strb	r2, [r3, #0]
  
  if(HAL_DMA_STATE_BUSY != hdma->State)
 8001b7c:	687b      	ldr	r3, [r7, #4]
 8001b7e:	2221      	movs	r2, #33	; 0x21
 8001b80:	5c9b      	ldrb	r3, [r3, r2]
 8001b82:	b2db      	uxtb	r3, r3
 8001b84:	2b02      	cmp	r3, #2
 8001b86:	d006      	beq.n	8001b96 <HAL_DMA_Abort_IT+0x2a>
  {
    /* no transfer ongoing */
    hdma->ErrorCode = HAL_DMA_ERROR_NO_XFER;
 8001b88:	687b      	ldr	r3, [r7, #4]
 8001b8a:	2204      	movs	r2, #4
 8001b8c:	639a      	str	r2, [r3, #56]	; 0x38
        
    status = HAL_ERROR;
 8001b8e:	187b      	adds	r3, r7, r1
 8001b90:	2201      	movs	r2, #1
 8001b92:	701a      	strb	r2, [r3, #0]
 8001b94:	e028      	b.n	8001be8 <HAL_DMA_Abort_IT+0x7c>
  }
  else
  { 
  
    /* Disable DMA IT */
    hdma->Instance->CCR &= ~(DMA_IT_TC | DMA_IT_HT | DMA_IT_TE);
 8001b96:	687b      	ldr	r3, [r7, #4]
 8001b98:	681b      	ldr	r3, [r3, #0]
 8001b9a:	681a      	ldr	r2, [r3, #0]
 8001b9c:	687b      	ldr	r3, [r7, #4]
 8001b9e:	681b      	ldr	r3, [r3, #0]
 8001ba0:	210e      	movs	r1, #14
 8001ba2:	438a      	bics	r2, r1
 8001ba4:	601a      	str	r2, [r3, #0]
    
    /* Disable the channel */
    hdma->Instance->CCR &= ~DMA_CCR_EN;
 8001ba6:	687b      	ldr	r3, [r7, #4]
 8001ba8:	681b      	ldr	r3, [r3, #0]
 8001baa:	681a      	ldr	r2, [r3, #0]
 8001bac:	687b      	ldr	r3, [r7, #4]
 8001bae:	681b      	ldr	r3, [r3, #0]
 8001bb0:	2101      	movs	r1, #1
 8001bb2:	438a      	bics	r2, r1
 8001bb4:	601a      	str	r2, [r3, #0]
    
    /* Clear all flags */
    hdma->DmaBaseAddress->IFCR = DMA_FLAG_GL1 << hdma->ChannelIndex;
 8001bb6:	687b      	ldr	r3, [r7, #4]
 8001bb8:	6c1a      	ldr	r2, [r3, #64]	; 0x40
 8001bba:	687b      	ldr	r3, [r7, #4]
 8001bbc:	6bdb      	ldr	r3, [r3, #60]	; 0x3c
 8001bbe:	2101      	movs	r1, #1
 8001bc0:	4091      	lsls	r1, r2
 8001bc2:	000a      	movs	r2, r1
 8001bc4:	605a      	str	r2, [r3, #4]
    
    /* Change the DMA state */
    hdma->State = HAL_DMA_STATE_READY;
 8001bc6:	687b      	ldr	r3, [r7, #4]
 8001bc8:	2221      	movs	r2, #33	; 0x21
 8001bca:	2101      	movs	r1, #1
 8001bcc:	5499      	strb	r1, [r3, r2]
    
    /* Process Unlocked */
    __HAL_UNLOCK(hdma);
 8001bce:	687b      	ldr	r3, [r7, #4]
 8001bd0:	2220      	movs	r2, #32
 8001bd2:	2100      	movs	r1, #0
 8001bd4:	5499      	strb	r1, [r3, r2]
    
    /* Call User Abort callback */ 
    if(hdma->XferAbortCallback != NULL)
 8001bd6:	687b      	ldr	r3, [r7, #4]
 8001bd8:	6b5b      	ldr	r3, [r3, #52]	; 0x34
 8001bda:	2b00      	cmp	r3, #0
 8001bdc:	d004      	beq.n	8001be8 <HAL_DMA_Abort_IT+0x7c>
    {
      hdma->XferAbortCallback(hdma);
 8001bde:	687b      	ldr	r3, [r7, #4]
 8001be0:	6b5b      	ldr	r3, [r3, #52]	; 0x34
 8001be2:	687a      	ldr	r2, [r7, #4]
 8001be4:	0010      	movs	r0, r2
 8001be6:	4798      	blx	r3
    } 
  }
  return status;
 8001be8:	230f      	movs	r3, #15
 8001bea:	18fb      	adds	r3, r7, r3
 8001bec:	781b      	ldrb	r3, [r3, #0]
}
 8001bee:	0018      	movs	r0, r3
 8001bf0:	46bd      	mov	sp, r7
 8001bf2:	b004      	add	sp, #16
 8001bf4:	bd80      	pop	{r7, pc}

08001bf6 <HAL_DMA_IRQHandler>:
  * @param  hdma pointer to a DMA_HandleTypeDef structure that contains
  *               the configuration information for the specified DMA Channel.  
  * @retval None
  */
void HAL_DMA_IRQHandler(DMA_HandleTypeDef *hdma)
{
 8001bf6:	b580      	push	{r7, lr}
 8001bf8:	b084      	sub	sp, #16
 8001bfa:	af00      	add	r7, sp, #0
 8001bfc:	6078      	str	r0, [r7, #4]
	uint32_t flag_it = hdma->DmaBaseAddress->ISR;
 8001bfe:	687b      	ldr	r3, [r7, #4]
 8001c00:	6bdb      	ldr	r3, [r3, #60]	; 0x3c
 8001c02:	681b      	ldr	r3, [r3, #0]
 8001c04:	60fb      	str	r3, [r7, #12]
  uint32_t source_it = hdma->Instance->CCR;
 8001c06:	687b      	ldr	r3, [r7, #4]
 8001c08:	681b      	ldr	r3, [r3, #0]
 8001c0a:	681b      	ldr	r3, [r3, #0]
 8001c0c:	60bb      	str	r3, [r7, #8]
          
  /* Half Transfer Complete Interrupt management ******************************/
  if ((RESET != (flag_it & (DMA_FLAG_HT1 << hdma->ChannelIndex))) && (RESET != (source_it & DMA_IT_HT)))
 8001c0e:	687b      	ldr	r3, [r7, #4]
 8001c10:	6c1b      	ldr	r3, [r3, #64]	; 0x40
 8001c12:	2204      	movs	r2, #4
 8001c14:	409a      	lsls	r2, r3
 8001c16:	0013      	movs	r3, r2
 8001c18:	68fa      	ldr	r2, [r7, #12]
 8001c1a:	4013      	ands	r3, r2
 8001c1c:	d024      	beq.n	8001c68 <HAL_DMA_IRQHandler+0x72>
 8001c1e:	68bb      	ldr	r3, [r7, #8]
 8001c20:	2204      	movs	r2, #4
 8001c22:	4013      	ands	r3, r2
 8001c24:	d020      	beq.n	8001c68 <HAL_DMA_IRQHandler+0x72>
  {
  	/* Disable the half transfer interrupt if the DMA mode is not CIRCULAR */
  	if((hdma->Instance->CCR & DMA_CCR_CIRC) == 0U)
 8001c26:	687b      	ldr	r3, [r7, #4]
 8001c28:	681b      	ldr	r3, [r3, #0]
 8001c2a:	681b      	ldr	r3, [r3, #0]
 8001c2c:	2220      	movs	r2, #32
 8001c2e:	4013      	ands	r3, r2
 8001c30:	d107      	bne.n	8001c42 <HAL_DMA_IRQHandler+0x4c>
  	{
  		/* Disable the half transfer interrupt */
  		hdma->Instance->CCR &= ~DMA_IT_HT;
 8001c32:	687b      	ldr	r3, [r7, #4]
 8001c34:	681b      	ldr	r3, [r3, #0]
 8001c36:	681a      	ldr	r2, [r3, #0]
 8001c38:	687b      	ldr	r3, [r7, #4]
 8001c3a:	681b      	ldr	r3, [r3, #0]
 8001c3c:	2104      	movs	r1, #4
 8001c3e:	438a      	bics	r2, r1
 8001c40:	601a      	str	r2, [r3, #0]
  	}
  	
  	/* Clear the half transfer complete flag */
  	hdma->DmaBaseAddress->IFCR = DMA_FLAG_HT1 << hdma->ChannelIndex;
 8001c42:	687b      	ldr	r3, [r7, #4]
 8001c44:	6c1a      	ldr	r2, [r3, #64]	; 0x40
 8001c46:	687b      	ldr	r3, [r7, #4]
 8001c48:	6bdb      	ldr	r3, [r3, #60]	; 0x3c
 8001c4a:	2104      	movs	r1, #4
 8001c4c:	4091      	lsls	r1, r2
 8001c4e:	000a      	movs	r2, r1
 8001c50:	605a      	str	r2, [r3, #4]
  	
  	/* DMA peripheral state is not updated in Half Transfer */
  	/* State is updated only in Transfer Complete case */
  	
  	if(hdma->XferHalfCpltCallback != NULL)
 8001c52:	687b      	ldr	r3, [r7, #4]
 8001c54:	6adb      	ldr	r3, [r3, #44]	; 0x2c
 8001c56:	2b00      	cmp	r3, #0
 8001c58:	d100      	bne.n	8001c5c <HAL_DMA_IRQHandler+0x66>
 8001c5a:	e06a      	b.n	8001d32 <HAL_DMA_IRQHandler+0x13c>
  	{
  		/* Half transfer callback */
  		hdma->XferHalfCpltCallback(hdma);
 8001c5c:	687b      	ldr	r3, [r7, #4]
 8001c5e:	6adb      	ldr	r3, [r3, #44]	; 0x2c
 8001c60:	687a      	ldr	r2, [r7, #4]
 8001c62:	0010      	movs	r0, r2
 8001c64:	4798      	blx	r3
  	if(hdma->XferHalfCpltCallback != NULL)
 8001c66:	e064      	b.n	8001d32 <HAL_DMA_IRQHandler+0x13c>
  	}
  }
  
  /* Transfer Complete Interrupt management ***********************************/
  else if ((RESET != (flag_it & (DMA_FLAG_TC1 << hdma->ChannelIndex))) && (RESET != (source_it & DMA_IT_TC)))
 8001c68:	687b      	ldr	r3, [r7, #4]
 8001c6a:	6c1b      	ldr	r3, [r3, #64]	; 0x40
 8001c6c:	2202      	movs	r2, #2
 8001c6e:	409a      	lsls	r2, r3
 8001c70:	0013      	movs	r3, r2
 8001c72:	68fa      	ldr	r2, [r7, #12]
 8001c74:	4013      	ands	r3, r2
 8001c76:	d02b      	beq.n	8001cd0 <HAL_DMA_IRQHandler+0xda>
 8001c78:	68bb      	ldr	r3, [r7, #8]
 8001c7a:	2202      	movs	r2, #2
 8001c7c:	4013      	ands	r3, r2
 8001c7e:	d027      	beq.n	8001cd0 <HAL_DMA_IRQHandler+0xda>
  {
  	if((hdma->Instance->CCR & DMA_CCR_CIRC) == 0U)
 8001c80:	687b      	ldr	r3, [r7, #4]
 8001c82:	681b      	ldr	r3, [r3, #0]
 8001c84:	681b      	ldr	r3, [r3, #0]
 8001c86:	2220      	movs	r2, #32
 8001c88:	4013      	ands	r3, r2
 8001c8a:	d10b      	bne.n	8001ca4 <HAL_DMA_IRQHandler+0xae>
  	{
  		/* Disable the transfer complete  & transfer error interrupts */
  		/* if the DMA mode is not CIRCULAR */
  		hdma->Instance->CCR &= ~(DMA_IT_TC | DMA_IT_TE);
 8001c8c:	687b      	ldr	r3, [r7, #4]
 8001c8e:	681b      	ldr	r3, [r3, #0]
 8001c90:	681a      	ldr	r2, [r3, #0]
 8001c92:	687b      	ldr	r3, [r7, #4]
 8001c94:	681b      	ldr	r3, [r3, #0]
 8001c96:	210a      	movs	r1, #10
 8001c98:	438a      	bics	r2, r1
 8001c9a:	601a      	str	r2, [r3, #0]
  		
  		/* Change the DMA state */
  		hdma->State = HAL_DMA_STATE_READY;
 8001c9c:	687b      	ldr	r3, [r7, #4]
 8001c9e:	2221      	movs	r2, #33	; 0x21
 8001ca0:	2101      	movs	r1, #1
 8001ca2:	5499      	strb	r1, [r3, r2]
  	}
  	
  	/* Clear the transfer complete flag */
  	hdma->DmaBaseAddress->IFCR = DMA_FLAG_TC1 << hdma->ChannelIndex;
 8001ca4:	687b      	ldr	r3, [r7, #4]
 8001ca6:	6c1a      	ldr	r2, [r3, #64]	; 0x40
 8001ca8:	687b      	ldr	r3, [r7, #4]
 8001caa:	6bdb      	ldr	r3, [r3, #60]	; 0x3c
 8001cac:	2102      	movs	r1, #2
 8001cae:	4091      	lsls	r1, r2
 8001cb0:	000a      	movs	r2, r1
 8001cb2:	605a      	str	r2, [r3, #4]
  	
  	/* Process Unlocked */
  	__HAL_UNLOCK(hdma);
 8001cb4:	687b      	ldr	r3, [r7, #4]
 8001cb6:	2220      	movs	r2, #32
 8001cb8:	2100      	movs	r1, #0
 8001cba:	5499      	strb	r1, [r3, r2]
  	
  	if(hdma->XferCpltCallback != NULL)
 8001cbc:	687b      	ldr	r3, [r7, #4]
 8001cbe:	6a9b      	ldr	r3, [r3, #40]	; 0x28
 8001cc0:	2b00      	cmp	r3, #0
 8001cc2:	d036      	beq.n	8001d32 <HAL_DMA_IRQHandler+0x13c>
  	{
  		/* Transfer complete callback */
  		hdma->XferCpltCallback(hdma);
 8001cc4:	687b      	ldr	r3, [r7, #4]
 8001cc6:	6a9b      	ldr	r3, [r3, #40]	; 0x28
 8001cc8:	687a      	ldr	r2, [r7, #4]
 8001cca:	0010      	movs	r0, r2
 8001ccc:	4798      	blx	r3
  	if(hdma->XferCpltCallback != NULL)
 8001cce:	e030      	b.n	8001d32 <HAL_DMA_IRQHandler+0x13c>
  	}
  }
  
  /* Transfer Error Interrupt management ***************************************/
  else if (( RESET != (flag_it & (DMA_FLAG_TE1 << hdma->ChannelIndex))) && (RESET != (source_it & DMA_IT_TE)))
 8001cd0:	687b      	ldr	r3, [r7, #4]
 8001cd2:	6c1b      	ldr	r3, [r3, #64]	; 0x40
 8001cd4:	2208      	movs	r2, #8
 8001cd6:	409a      	lsls	r2, r3
 8001cd8:	0013      	movs	r3, r2
 8001cda:	68fa      	ldr	r2, [r7, #12]
 8001cdc:	4013      	ands	r3, r2
 8001cde:	d028      	beq.n	8001d32 <HAL_DMA_IRQHandler+0x13c>
 8001ce0:	68bb      	ldr	r3, [r7, #8]
 8001ce2:	2208      	movs	r2, #8
 8001ce4:	4013      	ands	r3, r2
 8001ce6:	d024      	beq.n	8001d32 <HAL_DMA_IRQHandler+0x13c>
  {
  	/* When a DMA transfer error occurs */
    /* A hardware clear of its EN bits is performed */
    /* Then, disable all DMA interrupts */
    hdma->Instance->CCR &= ~(DMA_IT_TC | DMA_IT_HT | DMA_IT_TE);
 8001ce8:	687b      	ldr	r3, [r7, #4]
 8001cea:	681b      	ldr	r3, [r3, #0]
 8001cec:	681a      	ldr	r2, [r3, #0]
 8001cee:	687b      	ldr	r3, [r7, #4]
 8001cf0:	681b      	ldr	r3, [r3, #0]
 8001cf2:	210e      	movs	r1, #14
 8001cf4:	438a      	bics	r2, r1
 8001cf6:	601a      	str	r2, [r3, #0]
    
    /* Clear all flags */
    hdma->DmaBaseAddress->IFCR = DMA_FLAG_GL1 << hdma->ChannelIndex;
 8001cf8:	687b      	ldr	r3, [r7, #4]
 8001cfa:	6c1a      	ldr	r2, [r3, #64]	; 0x40
 8001cfc:	687b      	ldr	r3, [r7, #4]
 8001cfe:	6bdb      	ldr	r3, [r3, #60]	; 0x3c
 8001d00:	2101      	movs	r1, #1
 8001d02:	4091      	lsls	r1, r2
 8001d04:	000a      	movs	r2, r1
 8001d06:	605a      	str	r2, [r3, #4]
    
    /* Update error code */
    hdma->ErrorCode = HAL_DMA_ERROR_TE;
 8001d08:	687b      	ldr	r3, [r7, #4]
 8001d0a:	2201      	movs	r2, #1
 8001d0c:	639a      	str	r2, [r3, #56]	; 0x38
    
    /* Change the DMA state */
    hdma->State = HAL_DMA_STATE_READY;    
 8001d0e:	687b      	ldr	r3, [r7, #4]
 8001d10:	2221      	movs	r2, #33	; 0x21
 8001d12:	2101      	movs	r1, #1
 8001d14:	5499      	strb	r1, [r3, r2]
    
    /* Process Unlocked */
    __HAL_UNLOCK(hdma); 
 8001d16:	687b      	ldr	r3, [r7, #4]
 8001d18:	2220      	movs	r2, #32
 8001d1a:	2100      	movs	r1, #0
 8001d1c:	5499      	strb	r1, [r3, r2]
    
    if(hdma->XferErrorCallback != NULL)
 8001d1e:	687b      	ldr	r3, [r7, #4]
 8001d20:	6b1b      	ldr	r3, [r3, #48]	; 0x30
 8001d22:	2b00      	cmp	r3, #0
 8001d24:	d005      	beq.n	8001d32 <HAL_DMA_IRQHandler+0x13c>
    {
    	/* Transfer error callback */
    	hdma->XferErrorCallback(hdma);
 8001d26:	687b      	ldr	r3, [r7, #4]
 8001d28:	6b1b      	ldr	r3, [r3, #48]	; 0x30
 8001d2a:	687a      	ldr	r2, [r7, #4]
 8001d2c:	0010      	movs	r0, r2
 8001d2e:	4798      	blx	r3
    }
   }
}  
 8001d30:	e7ff      	b.n	8001d32 <HAL_DMA_IRQHandler+0x13c>
 8001d32:	46c0      	nop			; (mov r8, r8)
 8001d34:	46bd      	mov	sp, r7
 8001d36:	b004      	add	sp, #16
 8001d38:	bd80      	pop	{r7, pc}
	...

08001d3c <DMA_CalcBaseAndBitshift>:
  * @param  hdma       pointer to a DMA_HandleTypeDef structure that contains
  *                     the configuration information for the specified DMA Stream. 
  * @retval None
  */
static void DMA_CalcBaseAndBitshift(DMA_HandleTypeDef *hdma)
{
 8001d3c:	b580      	push	{r7, lr}
 8001d3e:	b082      	sub	sp, #8
 8001d40:	af00      	add	r7, sp, #0
 8001d42:	6078      	str	r0, [r7, #4]
    hdma->DmaBaseAddress = DMA2;
  }
#else
  /* calculation of the channel index */
  /* DMA1 */
  hdma->ChannelIndex = (((uint32_t)hdma->Instance - (uint32_t)DMA1_Channel1) / ((uint32_t)DMA1_Channel2 - (uint32_t)DMA1_Channel1)) << 2U;
 8001d44:	687b      	ldr	r3, [r7, #4]
 8001d46:	681b      	ldr	r3, [r3, #0]
 8001d48:	4a08      	ldr	r2, [pc, #32]	; (8001d6c <DMA_CalcBaseAndBitshift+0x30>)
 8001d4a:	4694      	mov	ip, r2
 8001d4c:	4463      	add	r3, ip
 8001d4e:	2114      	movs	r1, #20
 8001d50:	0018      	movs	r0, r3
 8001d52:	f7fe f9e3 	bl	800011c <__udivsi3>
 8001d56:	0003      	movs	r3, r0
 8001d58:	009a      	lsls	r2, r3, #2
 8001d5a:	687b      	ldr	r3, [r7, #4]
 8001d5c:	641a      	str	r2, [r3, #64]	; 0x40
  hdma->DmaBaseAddress = DMA1;
 8001d5e:	687b      	ldr	r3, [r7, #4]
 8001d60:	4a03      	ldr	r2, [pc, #12]	; (8001d70 <DMA_CalcBaseAndBitshift+0x34>)
 8001d62:	63da      	str	r2, [r3, #60]	; 0x3c
#endif
}
 8001d64:	46c0      	nop			; (mov r8, r8)
 8001d66:	46bd      	mov	sp, r7
 8001d68:	b002      	add	sp, #8
 8001d6a:	bd80      	pop	{r7, pc}
 8001d6c:	bffdfff8 	.word	0xbffdfff8
 8001d70:	40020000 	.word	0x40020000

08001d74 <HAL_GPIO_Init>:
  * @param  GPIO_Init pointer to a GPIO_InitTypeDef structure that contains
  *         the configuration information for the specified GPIO peripheral.
  * @retval None
  */
void HAL_GPIO_Init(GPIO_TypeDef  *GPIOx, GPIO_InitTypeDef *GPIO_Init)
{
 8001d74:	b580      	push	{r7, lr}
 8001d76:	b086      	sub	sp, #24
 8001d78:	af00      	add	r7, sp, #0
 8001d7a:	6078      	str	r0, [r7, #4]
 8001d7c:	6039      	str	r1, [r7, #0]
  uint32_t position = 0x00u;
 8001d7e:	2300      	movs	r3, #0
 8001d80:	617b      	str	r3, [r7, #20]
  assert_param(IS_GPIO_ALL_INSTANCE(GPIOx));
  assert_param(IS_GPIO_PIN(GPIO_Init->Pin));
  assert_param(IS_GPIO_MODE(GPIO_Init->Mode));

  /* Configure the port pins */
  while (((GPIO_Init->Pin) >> position) != 0x00u)
 8001d82:	e14f      	b.n	8002024 <HAL_GPIO_Init+0x2b0>
  {
    /* Get current io position */
    iocurrent = (GPIO_Init->Pin) & (1uL << position);
 8001d84:	683b      	ldr	r3, [r7, #0]
 8001d86:	681b      	ldr	r3, [r3, #0]
 8001d88:	2101      	movs	r1, #1
 8001d8a:	697a      	ldr	r2, [r7, #20]
 8001d8c:	4091      	lsls	r1, r2
 8001d8e:	000a      	movs	r2, r1
 8001d90:	4013      	ands	r3, r2
 8001d92:	60fb      	str	r3, [r7, #12]

    if (iocurrent != 0x00u)
 8001d94:	68fb      	ldr	r3, [r7, #12]
 8001d96:	2b00      	cmp	r3, #0
 8001d98:	d100      	bne.n	8001d9c <HAL_GPIO_Init+0x28>
 8001d9a:	e140      	b.n	800201e <HAL_GPIO_Init+0x2aa>
    {
      /*--------------------- GPIO Mode Configuration ------------------------*/
      /* In case of Output or Alternate function mode selection */
      if(((GPIO_Init->Mode & GPIO_MODE) == MODE_OUTPUT) ||
 8001d9c:	683b      	ldr	r3, [r7, #0]
 8001d9e:	685b      	ldr	r3, [r3, #4]
 8001da0:	2203      	movs	r2, #3
 8001da2:	4013      	ands	r3, r2
 8001da4:	2b01      	cmp	r3, #1
 8001da6:	d005      	beq.n	8001db4 <HAL_GPIO_Init+0x40>
         ((GPIO_Init->Mode & GPIO_MODE) == MODE_AF))
 8001da8:	683b      	ldr	r3, [r7, #0]
 8001daa:	685b      	ldr	r3, [r3, #4]
 8001dac:	2203      	movs	r2, #3
 8001dae:	4013      	ands	r3, r2
      if(((GPIO_Init->Mode & GPIO_MODE) == MODE_OUTPUT) ||
 8001db0:	2b02      	cmp	r3, #2
 8001db2:	d130      	bne.n	8001e16 <HAL_GPIO_Init+0xa2>
      {
        /* Check the Speed parameter */
        assert_param(IS_GPIO_SPEED(GPIO_Init->Speed));
        /* Configure the IO Speed */
        temp = GPIOx->OSPEEDR;
 8001db4:	687b      	ldr	r3, [r7, #4]
 8001db6:	689b      	ldr	r3, [r3, #8]
 8001db8:	613b      	str	r3, [r7, #16]
        temp &= ~(GPIO_OSPEEDER_OSPEEDR0 << (position * 2u));
 8001dba:	697b      	ldr	r3, [r7, #20]
 8001dbc:	005b      	lsls	r3, r3, #1
 8001dbe:	2203      	movs	r2, #3
 8001dc0:	409a      	lsls	r2, r3
 8001dc2:	0013      	movs	r3, r2
 8001dc4:	43da      	mvns	r2, r3
 8001dc6:	693b      	ldr	r3, [r7, #16]
 8001dc8:	4013      	ands	r3, r2
 8001dca:	613b      	str	r3, [r7, #16]
        temp |= (GPIO_Init->Speed << (position * 2u));
 8001dcc:	683b      	ldr	r3, [r7, #0]
 8001dce:	68da      	ldr	r2, [r3, #12]
 8001dd0:	697b      	ldr	r3, [r7, #20]
 8001dd2:	005b      	lsls	r3, r3, #1
 8001dd4:	409a      	lsls	r2, r3
 8001dd6:	0013      	movs	r3, r2
 8001dd8:	693a      	ldr	r2, [r7, #16]
 8001dda:	4313      	orrs	r3, r2
 8001ddc:	613b      	str	r3, [r7, #16]
        GPIOx->OSPEEDR = temp;
 8001dde:	687b      	ldr	r3, [r7, #4]
 8001de0:	693a      	ldr	r2, [r7, #16]
 8001de2:	609a      	str	r2, [r3, #8]

        /* Configure the IO Output Type */
        temp = GPIOx->OTYPER;
 8001de4:	687b      	ldr	r3, [r7, #4]
 8001de6:	685b      	ldr	r3, [r3, #4]
 8001de8:	613b      	str	r3, [r7, #16]
        temp &= ~(GPIO_OTYPER_OT_0 << position) ;
 8001dea:	2201      	movs	r2, #1
 8001dec:	697b      	ldr	r3, [r7, #20]
 8001dee:	409a      	lsls	r2, r3
 8001df0:	0013      	movs	r3, r2
 8001df2:	43da      	mvns	r2, r3
 8001df4:	693b      	ldr	r3, [r7, #16]
 8001df6:	4013      	ands	r3, r2
 8001df8:	613b      	str	r3, [r7, #16]
        temp |= (((GPIO_Init->Mode & OUTPUT_TYPE) >> OUTPUT_TYPE_Pos) << position);
 8001dfa:	683b      	ldr	r3, [r7, #0]
 8001dfc:	685b      	ldr	r3, [r3, #4]
 8001dfe:	091b      	lsrs	r3, r3, #4
 8001e00:	2201      	movs	r2, #1
 8001e02:	401a      	ands	r2, r3
 8001e04:	697b      	ldr	r3, [r7, #20]
 8001e06:	409a      	lsls	r2, r3
 8001e08:	0013      	movs	r3, r2
 8001e0a:	693a      	ldr	r2, [r7, #16]
 8001e0c:	4313      	orrs	r3, r2
 8001e0e:	613b      	str	r3, [r7, #16]
        GPIOx->OTYPER = temp;
 8001e10:	687b      	ldr	r3, [r7, #4]
 8001e12:	693a      	ldr	r2, [r7, #16]
 8001e14:	605a      	str	r2, [r3, #4]
      }
      
      if((GPIO_Init->Mode & GPIO_MODE) != MODE_ANALOG)
 8001e16:	683b      	ldr	r3, [r7, #0]
 8001e18:	685b      	ldr	r3, [r3, #4]
 8001e1a:	2203      	movs	r2, #3
 8001e1c:	4013      	ands	r3, r2
 8001e1e:	2b03      	cmp	r3, #3
 8001e20:	d017      	beq.n	8001e52 <HAL_GPIO_Init+0xde>
      {
        /* Check the Pull parameter */
        assert_param(IS_GPIO_PULL(GPIO_Init->Pull));

        /* Activate the Pull-up or Pull down resistor for the current IO */
        temp = GPIOx->PUPDR;
 8001e22:	687b      	ldr	r3, [r7, #4]
 8001e24:	68db      	ldr	r3, [r3, #12]
 8001e26:	613b      	str	r3, [r7, #16]
        temp &= ~(GPIO_PUPDR_PUPDR0 << (position * 2u));
 8001e28:	697b      	ldr	r3, [r7, #20]
 8001e2a:	005b      	lsls	r3, r3, #1
 8001e2c:	2203      	movs	r2, #3
 8001e2e:	409a      	lsls	r2, r3
 8001e30:	0013      	movs	r3, r2
 8001e32:	43da      	mvns	r2, r3
 8001e34:	693b      	ldr	r3, [r7, #16]
 8001e36:	4013      	ands	r3, r2
 8001e38:	613b      	str	r3, [r7, #16]
        temp |= ((GPIO_Init->Pull) << (position * 2u));
 8001e3a:	683b      	ldr	r3, [r7, #0]
 8001e3c:	689a      	ldr	r2, [r3, #8]
 8001e3e:	697b      	ldr	r3, [r7, #20]
 8001e40:	005b      	lsls	r3, r3, #1
 8001e42:	409a      	lsls	r2, r3
 8001e44:	0013      	movs	r3, r2
 8001e46:	693a      	ldr	r2, [r7, #16]
 8001e48:	4313      	orrs	r3, r2
 8001e4a:	613b      	str	r3, [r7, #16]
        GPIOx->PUPDR = temp;
 8001e4c:	687b      	ldr	r3, [r7, #4]
 8001e4e:	693a      	ldr	r2, [r7, #16]
 8001e50:	60da      	str	r2, [r3, #12]
      }

      /* In case of Alternate function mode selection */
      if((GPIO_Init->Mode & GPIO_MODE) == MODE_AF)
 8001e52:	683b      	ldr	r3, [r7, #0]
 8001e54:	685b      	ldr	r3, [r3, #4]
 8001e56:	2203      	movs	r2, #3
 8001e58:	4013      	ands	r3, r2
 8001e5a:	2b02      	cmp	r3, #2
 8001e5c:	d123      	bne.n	8001ea6 <HAL_GPIO_Init+0x132>
        /* Check the Alternate function parameters */
        assert_param(IS_GPIO_AF_INSTANCE(GPIOx));
        assert_param(IS_GPIO_AF(GPIO_Init->Alternate));

        /* Configure Alternate function mapped with the current IO */
        temp = GPIOx->AFR[position >> 3u];
 8001e5e:	697b      	ldr	r3, [r7, #20]
 8001e60:	08da      	lsrs	r2, r3, #3
 8001e62:	687b      	ldr	r3, [r7, #4]
 8001e64:	3208      	adds	r2, #8
 8001e66:	0092      	lsls	r2, r2, #2
 8001e68:	58d3      	ldr	r3, [r2, r3]
 8001e6a:	613b      	str	r3, [r7, #16]
        temp &= ~(0xFu << ((position & 0x07u) * 4u));
 8001e6c:	697b      	ldr	r3, [r7, #20]
 8001e6e:	2207      	movs	r2, #7
 8001e70:	4013      	ands	r3, r2
 8001e72:	009b      	lsls	r3, r3, #2
 8001e74:	220f      	movs	r2, #15
 8001e76:	409a      	lsls	r2, r3
 8001e78:	0013      	movs	r3, r2
 8001e7a:	43da      	mvns	r2, r3
 8001e7c:	693b      	ldr	r3, [r7, #16]
 8001e7e:	4013      	ands	r3, r2
 8001e80:	613b      	str	r3, [r7, #16]
        temp |= ((GPIO_Init->Alternate) << ((position & 0x07u) * 4u));
 8001e82:	683b      	ldr	r3, [r7, #0]
 8001e84:	691a      	ldr	r2, [r3, #16]
 8001e86:	697b      	ldr	r3, [r7, #20]
 8001e88:	2107      	movs	r1, #7
 8001e8a:	400b      	ands	r3, r1
 8001e8c:	009b      	lsls	r3, r3, #2
 8001e8e:	409a      	lsls	r2, r3
 8001e90:	0013      	movs	r3, r2
 8001e92:	693a      	ldr	r2, [r7, #16]
 8001e94:	4313      	orrs	r3, r2
 8001e96:	613b      	str	r3, [r7, #16]
        GPIOx->AFR[position >> 3u] = temp;
 8001e98:	697b      	ldr	r3, [r7, #20]
 8001e9a:	08da      	lsrs	r2, r3, #3
 8001e9c:	687b      	ldr	r3, [r7, #4]
 8001e9e:	3208      	adds	r2, #8
 8001ea0:	0092      	lsls	r2, r2, #2
 8001ea2:	6939      	ldr	r1, [r7, #16]
 8001ea4:	50d1      	str	r1, [r2, r3]
      }

      /* Configure IO Direction mode (Input, Output, Alternate or Analog) */
      temp = GPIOx->MODER;
 8001ea6:	687b      	ldr	r3, [r7, #4]
 8001ea8:	681b      	ldr	r3, [r3, #0]
 8001eaa:	613b      	str	r3, [r7, #16]
      temp &= ~(GPIO_MODER_MODER0 << (position * 2u));
 8001eac:	697b      	ldr	r3, [r7, #20]
 8001eae:	005b      	lsls	r3, r3, #1
 8001eb0:	2203      	movs	r2, #3
 8001eb2:	409a      	lsls	r2, r3
 8001eb4:	0013      	movs	r3, r2
 8001eb6:	43da      	mvns	r2, r3
 8001eb8:	693b      	ldr	r3, [r7, #16]
 8001eba:	4013      	ands	r3, r2
 8001ebc:	613b      	str	r3, [r7, #16]
      temp |= ((GPIO_Init->Mode & GPIO_MODE) << (position * 2u));
 8001ebe:	683b      	ldr	r3, [r7, #0]
 8001ec0:	685b      	ldr	r3, [r3, #4]
 8001ec2:	2203      	movs	r2, #3
 8001ec4:	401a      	ands	r2, r3
 8001ec6:	697b      	ldr	r3, [r7, #20]
 8001ec8:	005b      	lsls	r3, r3, #1
 8001eca:	409a      	lsls	r2, r3
 8001ecc:	0013      	movs	r3, r2
 8001ece:	693a      	ldr	r2, [r7, #16]
 8001ed0:	4313      	orrs	r3, r2
 8001ed2:	613b      	str	r3, [r7, #16]
      GPIOx->MODER = temp;
 8001ed4:	687b      	ldr	r3, [r7, #4]
 8001ed6:	693a      	ldr	r2, [r7, #16]
 8001ed8:	601a      	str	r2, [r3, #0]

      /*--------------------- EXTI Mode Configuration ------------------------*/
      /* Configure the External Interrupt or event for the current IO */
      if((GPIO_Init->Mode & EXTI_MODE) != 0x00u)
 8001eda:	683b      	ldr	r3, [r7, #0]
 8001edc:	685a      	ldr	r2, [r3, #4]
 8001ede:	23c0      	movs	r3, #192	; 0xc0
 8001ee0:	029b      	lsls	r3, r3, #10
 8001ee2:	4013      	ands	r3, r2
 8001ee4:	d100      	bne.n	8001ee8 <HAL_GPIO_Init+0x174>
 8001ee6:	e09a      	b.n	800201e <HAL_GPIO_Init+0x2aa>
      {
        /* Enable SYSCFG Clock */
        __HAL_RCC_SYSCFG_CLK_ENABLE();
 8001ee8:	4b54      	ldr	r3, [pc, #336]	; (800203c <HAL_GPIO_Init+0x2c8>)
 8001eea:	699a      	ldr	r2, [r3, #24]
 8001eec:	4b53      	ldr	r3, [pc, #332]	; (800203c <HAL_GPIO_Init+0x2c8>)
 8001eee:	2101      	movs	r1, #1
 8001ef0:	430a      	orrs	r2, r1
 8001ef2:	619a      	str	r2, [r3, #24]
 8001ef4:	4b51      	ldr	r3, [pc, #324]	; (800203c <HAL_GPIO_Init+0x2c8>)
 8001ef6:	699b      	ldr	r3, [r3, #24]
 8001ef8:	2201      	movs	r2, #1
 8001efa:	4013      	ands	r3, r2
 8001efc:	60bb      	str	r3, [r7, #8]
 8001efe:	68bb      	ldr	r3, [r7, #8]

        temp = SYSCFG->EXTICR[position >> 2u];
 8001f00:	4a4f      	ldr	r2, [pc, #316]	; (8002040 <HAL_GPIO_Init+0x2cc>)
 8001f02:	697b      	ldr	r3, [r7, #20]
 8001f04:	089b      	lsrs	r3, r3, #2
 8001f06:	3302      	adds	r3, #2
 8001f08:	009b      	lsls	r3, r3, #2
 8001f0a:	589b      	ldr	r3, [r3, r2]
 8001f0c:	613b      	str	r3, [r7, #16]
        temp &= ~(0x0FuL << (4u * (position & 0x03u)));
 8001f0e:	697b      	ldr	r3, [r7, #20]
 8001f10:	2203      	movs	r2, #3
 8001f12:	4013      	ands	r3, r2
 8001f14:	009b      	lsls	r3, r3, #2
 8001f16:	220f      	movs	r2, #15
 8001f18:	409a      	lsls	r2, r3
 8001f1a:	0013      	movs	r3, r2
 8001f1c:	43da      	mvns	r2, r3
 8001f1e:	693b      	ldr	r3, [r7, #16]
 8001f20:	4013      	ands	r3, r2
 8001f22:	613b      	str	r3, [r7, #16]
        temp |= (GPIO_GET_INDEX(GPIOx) << (4u * (position & 0x03u)));
 8001f24:	687a      	ldr	r2, [r7, #4]
 8001f26:	2390      	movs	r3, #144	; 0x90
 8001f28:	05db      	lsls	r3, r3, #23
 8001f2a:	429a      	cmp	r2, r3
 8001f2c:	d013      	beq.n	8001f56 <HAL_GPIO_Init+0x1e2>
 8001f2e:	687b      	ldr	r3, [r7, #4]
 8001f30:	4a44      	ldr	r2, [pc, #272]	; (8002044 <HAL_GPIO_Init+0x2d0>)
 8001f32:	4293      	cmp	r3, r2
 8001f34:	d00d      	beq.n	8001f52 <HAL_GPIO_Init+0x1de>
 8001f36:	687b      	ldr	r3, [r7, #4]
 8001f38:	4a43      	ldr	r2, [pc, #268]	; (8002048 <HAL_GPIO_Init+0x2d4>)
 8001f3a:	4293      	cmp	r3, r2
 8001f3c:	d007      	beq.n	8001f4e <HAL_GPIO_Init+0x1da>
 8001f3e:	687b      	ldr	r3, [r7, #4]
 8001f40:	4a42      	ldr	r2, [pc, #264]	; (800204c <HAL_GPIO_Init+0x2d8>)
 8001f42:	4293      	cmp	r3, r2
 8001f44:	d101      	bne.n	8001f4a <HAL_GPIO_Init+0x1d6>
 8001f46:	2303      	movs	r3, #3
 8001f48:	e006      	b.n	8001f58 <HAL_GPIO_Init+0x1e4>
 8001f4a:	2305      	movs	r3, #5
 8001f4c:	e004      	b.n	8001f58 <HAL_GPIO_Init+0x1e4>
 8001f4e:	2302      	movs	r3, #2
 8001f50:	e002      	b.n	8001f58 <HAL_GPIO_Init+0x1e4>
 8001f52:	2301      	movs	r3, #1
 8001f54:	e000      	b.n	8001f58 <HAL_GPIO_Init+0x1e4>
 8001f56:	2300      	movs	r3, #0
 8001f58:	697a      	ldr	r2, [r7, #20]
 8001f5a:	2103      	movs	r1, #3
 8001f5c:	400a      	ands	r2, r1
 8001f5e:	0092      	lsls	r2, r2, #2
 8001f60:	4093      	lsls	r3, r2
 8001f62:	693a      	ldr	r2, [r7, #16]
 8001f64:	4313      	orrs	r3, r2
 8001f66:	613b      	str	r3, [r7, #16]
        SYSCFG->EXTICR[position >> 2u] = temp;
 8001f68:	4935      	ldr	r1, [pc, #212]	; (8002040 <HAL_GPIO_Init+0x2cc>)
 8001f6a:	697b      	ldr	r3, [r7, #20]
 8001f6c:	089b      	lsrs	r3, r3, #2
 8001f6e:	3302      	adds	r3, #2
 8001f70:	009b      	lsls	r3, r3, #2
 8001f72:	693a      	ldr	r2, [r7, #16]
 8001f74:	505a      	str	r2, [r3, r1]

        /* Clear EXTI line configuration */
        temp = EXTI->IMR;
 8001f76:	4b36      	ldr	r3, [pc, #216]	; (8002050 <HAL_GPIO_Init+0x2dc>)
 8001f78:	681b      	ldr	r3, [r3, #0]
 8001f7a:	613b      	str	r3, [r7, #16]
        temp &= ~(iocurrent);
 8001f7c:	68fb      	ldr	r3, [r7, #12]
 8001f7e:	43da      	mvns	r2, r3
 8001f80:	693b      	ldr	r3, [r7, #16]
 8001f82:	4013      	ands	r3, r2
 8001f84:	613b      	str	r3, [r7, #16]
        if((GPIO_Init->Mode & EXTI_IT) != 0x00u)
 8001f86:	683b      	ldr	r3, [r7, #0]
 8001f88:	685a      	ldr	r2, [r3, #4]
 8001f8a:	2380      	movs	r3, #128	; 0x80
 8001f8c:	025b      	lsls	r3, r3, #9
 8001f8e:	4013      	ands	r3, r2
 8001f90:	d003      	beq.n	8001f9a <HAL_GPIO_Init+0x226>
        {
          temp |= iocurrent;
 8001f92:	693a      	ldr	r2, [r7, #16]
 8001f94:	68fb      	ldr	r3, [r7, #12]
 8001f96:	4313      	orrs	r3, r2
 8001f98:	613b      	str	r3, [r7, #16]
        }
        EXTI->IMR = temp;
 8001f9a:	4b2d      	ldr	r3, [pc, #180]	; (8002050 <HAL_GPIO_Init+0x2dc>)
 8001f9c:	693a      	ldr	r2, [r7, #16]
 8001f9e:	601a      	str	r2, [r3, #0]

        temp = EXTI->EMR;
 8001fa0:	4b2b      	ldr	r3, [pc, #172]	; (8002050 <HAL_GPIO_Init+0x2dc>)
 8001fa2:	685b      	ldr	r3, [r3, #4]
 8001fa4:	613b      	str	r3, [r7, #16]
        temp &= ~(iocurrent);
 8001fa6:	68fb      	ldr	r3, [r7, #12]
 8001fa8:	43da      	mvns	r2, r3
 8001faa:	693b      	ldr	r3, [r7, #16]
 8001fac:	4013      	ands	r3, r2
 8001fae:	613b      	str	r3, [r7, #16]
        if((GPIO_Init->Mode & EXTI_EVT) != 0x00u)
 8001fb0:	683b      	ldr	r3, [r7, #0]
 8001fb2:	685a      	ldr	r2, [r3, #4]
 8001fb4:	2380      	movs	r3, #128	; 0x80
 8001fb6:	029b      	lsls	r3, r3, #10
 8001fb8:	4013      	ands	r3, r2
 8001fba:	d003      	beq.n	8001fc4 <HAL_GPIO_Init+0x250>
        {
          temp |= iocurrent;
 8001fbc:	693a      	ldr	r2, [r7, #16]
 8001fbe:	68fb      	ldr	r3, [r7, #12]
 8001fc0:	4313      	orrs	r3, r2
 8001fc2:	613b      	str	r3, [r7, #16]
        }
        EXTI->EMR = temp;
 8001fc4:	4b22      	ldr	r3, [pc, #136]	; (8002050 <HAL_GPIO_Init+0x2dc>)
 8001fc6:	693a      	ldr	r2, [r7, #16]
 8001fc8:	605a      	str	r2, [r3, #4]

        /* Clear Rising Falling edge configuration */
        temp = EXTI->RTSR;
 8001fca:	4b21      	ldr	r3, [pc, #132]	; (8002050 <HAL_GPIO_Init+0x2dc>)
 8001fcc:	689b      	ldr	r3, [r3, #8]
 8001fce:	613b      	str	r3, [r7, #16]
        temp &= ~(iocurrent);
 8001fd0:	68fb      	ldr	r3, [r7, #12]
 8001fd2:	43da      	mvns	r2, r3
 8001fd4:	693b      	ldr	r3, [r7, #16]
 8001fd6:	4013      	ands	r3, r2
 8001fd8:	613b      	str	r3, [r7, #16]
        if((GPIO_Init->Mode & TRIGGER_RISING) != 0x00u)
 8001fda:	683b      	ldr	r3, [r7, #0]
 8001fdc:	685a      	ldr	r2, [r3, #4]
 8001fde:	2380      	movs	r3, #128	; 0x80
 8001fe0:	035b      	lsls	r3, r3, #13
 8001fe2:	4013      	ands	r3, r2
 8001fe4:	d003      	beq.n	8001fee <HAL_GPIO_Init+0x27a>
        {
          temp |= iocurrent;
 8001fe6:	693a      	ldr	r2, [r7, #16]
 8001fe8:	68fb      	ldr	r3, [r7, #12]
 8001fea:	4313      	orrs	r3, r2
 8001fec:	613b      	str	r3, [r7, #16]
        }
        EXTI->RTSR = temp;
 8001fee:	4b18      	ldr	r3, [pc, #96]	; (8002050 <HAL_GPIO_Init+0x2dc>)
 8001ff0:	693a      	ldr	r2, [r7, #16]
 8001ff2:	609a      	str	r2, [r3, #8]

        temp = EXTI->FTSR;
 8001ff4:	4b16      	ldr	r3, [pc, #88]	; (8002050 <HAL_GPIO_Init+0x2dc>)
 8001ff6:	68db      	ldr	r3, [r3, #12]
 8001ff8:	613b      	str	r3, [r7, #16]
        temp &= ~(iocurrent);
 8001ffa:	68fb      	ldr	r3, [r7, #12]
 8001ffc:	43da      	mvns	r2, r3
 8001ffe:	693b      	ldr	r3, [r7, #16]
 8002000:	4013      	ands	r3, r2
 8002002:	613b      	str	r3, [r7, #16]
        if((GPIO_Init->Mode & TRIGGER_FALLING) != 0x00u)
 8002004:	683b      	ldr	r3, [r7, #0]
 8002006:	685a      	ldr	r2, [r3, #4]
 8002008:	2380      	movs	r3, #128	; 0x80
 800200a:	039b      	lsls	r3, r3, #14
 800200c:	4013      	ands	r3, r2
 800200e:	d003      	beq.n	8002018 <HAL_GPIO_Init+0x2a4>
        {
          temp |= iocurrent;
 8002010:	693a      	ldr	r2, [r7, #16]
 8002012:	68fb      	ldr	r3, [r7, #12]
 8002014:	4313      	orrs	r3, r2
 8002016:	613b      	str	r3, [r7, #16]
        }
        EXTI->FTSR = temp;
 8002018:	4b0d      	ldr	r3, [pc, #52]	; (8002050 <HAL_GPIO_Init+0x2dc>)
 800201a:	693a      	ldr	r2, [r7, #16]
 800201c:	60da      	str	r2, [r3, #12]
      }
    }

    position++;
 800201e:	697b      	ldr	r3, [r7, #20]
 8002020:	3301      	adds	r3, #1
 8002022:	617b      	str	r3, [r7, #20]
  while (((GPIO_Init->Pin) >> position) != 0x00u)
 8002024:	683b      	ldr	r3, [r7, #0]
 8002026:	681a      	ldr	r2, [r3, #0]
 8002028:	697b      	ldr	r3, [r7, #20]
 800202a:	40da      	lsrs	r2, r3
 800202c:	1e13      	subs	r3, r2, #0
 800202e:	d000      	beq.n	8002032 <HAL_GPIO_Init+0x2be>
 8002030:	e6a8      	b.n	8001d84 <HAL_GPIO_Init+0x10>
  } 
}
 8002032:	46c0      	nop			; (mov r8, r8)
 8002034:	46c0      	nop			; (mov r8, r8)
 8002036:	46bd      	mov	sp, r7
 8002038:	b006      	add	sp, #24
 800203a:	bd80      	pop	{r7, pc}
 800203c:	40021000 	.word	0x40021000
 8002040:	40010000 	.word	0x40010000
 8002044:	48000400 	.word	0x48000400
 8002048:	48000800 	.word	0x48000800
 800204c:	48000c00 	.word	0x48000c00
 8002050:	40010400 	.word	0x40010400

08002054 <HAL_GPIO_WritePin>:
  *            @arg GPIO_PIN_RESET: to clear the port pin
  *            @arg GPIO_PIN_SET: to set the port pin
  * @retval None
  */
void HAL_GPIO_WritePin(GPIO_TypeDef* GPIOx, uint16_t GPIO_Pin, GPIO_PinState PinState)
{
 8002054:	b580      	push	{r7, lr}
 8002056:	b082      	sub	sp, #8
 8002058:	af00      	add	r7, sp, #0
 800205a:	6078      	str	r0, [r7, #4]
 800205c:	0008      	movs	r0, r1
 800205e:	0011      	movs	r1, r2
 8002060:	1cbb      	adds	r3, r7, #2
 8002062:	1c02      	adds	r2, r0, #0
 8002064:	801a      	strh	r2, [r3, #0]
 8002066:	1c7b      	adds	r3, r7, #1
 8002068:	1c0a      	adds	r2, r1, #0
 800206a:	701a      	strb	r2, [r3, #0]
  /* Check the parameters */
  assert_param(IS_GPIO_PIN(GPIO_Pin));
  assert_param(IS_GPIO_PIN_ACTION(PinState));

  if (PinState != GPIO_PIN_RESET)
 800206c:	1c7b      	adds	r3, r7, #1
 800206e:	781b      	ldrb	r3, [r3, #0]
 8002070:	2b00      	cmp	r3, #0
 8002072:	d004      	beq.n	800207e <HAL_GPIO_WritePin+0x2a>
  {
    GPIOx->BSRR = (uint32_t)GPIO_Pin;
 8002074:	1cbb      	adds	r3, r7, #2
 8002076:	881a      	ldrh	r2, [r3, #0]
 8002078:	687b      	ldr	r3, [r7, #4]
 800207a:	619a      	str	r2, [r3, #24]
  }
  else
  {
    GPIOx->BRR = (uint32_t)GPIO_Pin;
  }
}
 800207c:	e003      	b.n	8002086 <HAL_GPIO_WritePin+0x32>
    GPIOx->BRR = (uint32_t)GPIO_Pin;
 800207e:	1cbb      	adds	r3, r7, #2
 8002080:	881a      	ldrh	r2, [r3, #0]
 8002082:	687b      	ldr	r3, [r7, #4]
 8002084:	629a      	str	r2, [r3, #40]	; 0x28
}
 8002086:	46c0      	nop			; (mov r8, r8)
 8002088:	46bd      	mov	sp, r7
 800208a:	b002      	add	sp, #8
 800208c:	bd80      	pop	{r7, pc}

0800208e <HAL_GPIO_TogglePin>:
  * @param  GPIOx where x can be (A..F) to select the GPIO peripheral for STM32F0 family
  * @param  GPIO_Pin specifies the pin to be toggled.
  * @retval None
  */
void HAL_GPIO_TogglePin(GPIO_TypeDef* GPIOx, uint16_t GPIO_Pin)
{
 800208e:	b580      	push	{r7, lr}
 8002090:	b084      	sub	sp, #16
 8002092:	af00      	add	r7, sp, #0
 8002094:	6078      	str	r0, [r7, #4]
 8002096:	000a      	movs	r2, r1
 8002098:	1cbb      	adds	r3, r7, #2
 800209a:	801a      	strh	r2, [r3, #0]

  /* Check the parameters */
  assert_param(IS_GPIO_PIN(GPIO_Pin));

  /* get current Ouput Data Register value */
  odr = GPIOx->ODR;
 800209c:	687b      	ldr	r3, [r7, #4]
 800209e:	695b      	ldr	r3, [r3, #20]
 80020a0:	60fb      	str	r3, [r7, #12]

  /* Set selected pins that were at low level, and reset ones that were high */
  GPIOx->BSRR = ((odr & GPIO_Pin) << GPIO_NUMBER) | (~odr & GPIO_Pin);
 80020a2:	1cbb      	adds	r3, r7, #2
 80020a4:	881b      	ldrh	r3, [r3, #0]
 80020a6:	68fa      	ldr	r2, [r7, #12]
 80020a8:	4013      	ands	r3, r2
 80020aa:	041a      	lsls	r2, r3, #16
 80020ac:	68fb      	ldr	r3, [r7, #12]
 80020ae:	43db      	mvns	r3, r3
 80020b0:	1cb9      	adds	r1, r7, #2
 80020b2:	8809      	ldrh	r1, [r1, #0]
 80020b4:	400b      	ands	r3, r1
 80020b6:	431a      	orrs	r2, r3
 80020b8:	687b      	ldr	r3, [r7, #4]
 80020ba:	619a      	str	r2, [r3, #24]
}
 80020bc:	46c0      	nop			; (mov r8, r8)
 80020be:	46bd      	mov	sp, r7
 80020c0:	b004      	add	sp, #16
 80020c2:	bd80      	pop	{r7, pc}

080020c4 <HAL_GPIO_EXTI_IRQHandler>:
  * @brief  Handle EXTI interrupt request.
  * @param  GPIO_Pin Specifies the port pin connected to corresponding EXTI line.
  * @retval None
  */
void HAL_GPIO_EXTI_IRQHandler(uint16_t GPIO_Pin)
{
 80020c4:	b580      	push	{r7, lr}
 80020c6:	b082      	sub	sp, #8
 80020c8:	af00      	add	r7, sp, #0
 80020ca:	0002      	movs	r2, r0
 80020cc:	1dbb      	adds	r3, r7, #6
 80020ce:	801a      	strh	r2, [r3, #0]
  /* EXTI line interrupt detected */
  if(__HAL_GPIO_EXTI_GET_IT(GPIO_Pin) != 0x00u)
 80020d0:	4b09      	ldr	r3, [pc, #36]	; (80020f8 <HAL_GPIO_EXTI_IRQHandler+0x34>)
 80020d2:	695b      	ldr	r3, [r3, #20]
 80020d4:	1dba      	adds	r2, r7, #6
 80020d6:	8812      	ldrh	r2, [r2, #0]
 80020d8:	4013      	ands	r3, r2
 80020da:	d008      	beq.n	80020ee <HAL_GPIO_EXTI_IRQHandler+0x2a>
  { 
    __HAL_GPIO_EXTI_CLEAR_IT(GPIO_Pin);
 80020dc:	4b06      	ldr	r3, [pc, #24]	; (80020f8 <HAL_GPIO_EXTI_IRQHandler+0x34>)
 80020de:	1dba      	adds	r2, r7, #6
 80020e0:	8812      	ldrh	r2, [r2, #0]
 80020e2:	615a      	str	r2, [r3, #20]
    HAL_GPIO_EXTI_Callback(GPIO_Pin);
 80020e4:	1dbb      	adds	r3, r7, #6
 80020e6:	881b      	ldrh	r3, [r3, #0]
 80020e8:	0018      	movs	r0, r3
 80020ea:	f000 f807 	bl	80020fc <HAL_GPIO_EXTI_Callback>
  }
}
 80020ee:	46c0      	nop			; (mov r8, r8)
 80020f0:	46bd      	mov	sp, r7
 80020f2:	b002      	add	sp, #8
 80020f4:	bd80      	pop	{r7, pc}
 80020f6:	46c0      	nop			; (mov r8, r8)
 80020f8:	40010400 	.word	0x40010400

080020fc <HAL_GPIO_EXTI_Callback>:
  * @brief  EXTI line detection callback.
  * @param  GPIO_Pin Specifies the port pin connected to corresponding EXTI line.
  * @retval None
  */
__weak void HAL_GPIO_EXTI_Callback(uint16_t GPIO_Pin)
{
 80020fc:	b580      	push	{r7, lr}
 80020fe:	b082      	sub	sp, #8
 8002100:	af00      	add	r7, sp, #0
 8002102:	0002      	movs	r2, r0
 8002104:	1dbb      	adds	r3, r7, #6
 8002106:	801a      	strh	r2, [r3, #0]
  UNUSED(GPIO_Pin);

  /* NOTE: This function should not be modified, when the callback is needed,
            the HAL_GPIO_EXTI_Callback could be implemented in the user file
   */ 
}
 8002108:	46c0      	nop			; (mov r8, r8)
 800210a:	46bd      	mov	sp, r7
 800210c:	b002      	add	sp, #8
 800210e:	bd80      	pop	{r7, pc}

08002110 <HAL_RCC_OscConfig>:
  *         supported by this macro. User should request a transition to HSE Off
  *         first and then HSE On or HSE Bypass.
  * @retval HAL status
  */
HAL_StatusTypeDef HAL_RCC_OscConfig(RCC_OscInitTypeDef  *RCC_OscInitStruct)
{
 8002110:	b580      	push	{r7, lr}
 8002112:	b088      	sub	sp, #32
 8002114:	af00      	add	r7, sp, #0
 8002116:	6078      	str	r0, [r7, #4]
  uint32_t tickstart;
  uint32_t pll_config;
  uint32_t pll_config2;

  /* Check Null pointer */
  if(RCC_OscInitStruct == NULL)
 8002118:	687b      	ldr	r3, [r7, #4]
 800211a:	2b00      	cmp	r3, #0
 800211c:	d101      	bne.n	8002122 <HAL_RCC_OscConfig+0x12>
  {
    return HAL_ERROR;
 800211e:	2301      	movs	r3, #1
 8002120:	e301      	b.n	8002726 <HAL_RCC_OscConfig+0x616>

  /* Check the parameters */
  assert_param(IS_RCC_OSCILLATORTYPE(RCC_OscInitStruct->OscillatorType));

  /*------------------------------- HSE Configuration ------------------------*/ 
  if(((RCC_OscInitStruct->OscillatorType) & RCC_OSCILLATORTYPE_HSE) == RCC_OSCILLATORTYPE_HSE)
 8002122:	687b      	ldr	r3, [r7, #4]
 8002124:	681b      	ldr	r3, [r3, #0]
 8002126:	2201      	movs	r2, #1
 8002128:	4013      	ands	r3, r2
 800212a:	d100      	bne.n	800212e <HAL_RCC_OscConfig+0x1e>
 800212c:	e08d      	b.n	800224a <HAL_RCC_OscConfig+0x13a>
  {
    /* Check the parameters */
    assert_param(IS_RCC_HSE(RCC_OscInitStruct->HSEState));

    /* When the HSE is used as system clock or clock source for PLL in these cases it is not allowed to be disabled */
    if((__HAL_RCC_GET_SYSCLK_SOURCE() == RCC_SYSCLKSOURCE_STATUS_HSE) 
 800212e:	4bc3      	ldr	r3, [pc, #780]	; (800243c <HAL_RCC_OscConfig+0x32c>)
 8002130:	685b      	ldr	r3, [r3, #4]
 8002132:	220c      	movs	r2, #12
 8002134:	4013      	ands	r3, r2
 8002136:	2b04      	cmp	r3, #4
 8002138:	d00e      	beq.n	8002158 <HAL_RCC_OscConfig+0x48>
       || ((__HAL_RCC_GET_SYSCLK_SOURCE() == RCC_SYSCLKSOURCE_STATUS_PLLCLK) && (__HAL_RCC_GET_PLL_OSCSOURCE() == RCC_PLLSOURCE_HSE)))
 800213a:	4bc0      	ldr	r3, [pc, #768]	; (800243c <HAL_RCC_OscConfig+0x32c>)
 800213c:	685b      	ldr	r3, [r3, #4]
 800213e:	220c      	movs	r2, #12
 8002140:	4013      	ands	r3, r2
 8002142:	2b08      	cmp	r3, #8
 8002144:	d116      	bne.n	8002174 <HAL_RCC_OscConfig+0x64>
 8002146:	4bbd      	ldr	r3, [pc, #756]	; (800243c <HAL_RCC_OscConfig+0x32c>)
 8002148:	685a      	ldr	r2, [r3, #4]
 800214a:	2380      	movs	r3, #128	; 0x80
 800214c:	025b      	lsls	r3, r3, #9
 800214e:	401a      	ands	r2, r3
 8002150:	2380      	movs	r3, #128	; 0x80
 8002152:	025b      	lsls	r3, r3, #9
 8002154:	429a      	cmp	r2, r3
 8002156:	d10d      	bne.n	8002174 <HAL_RCC_OscConfig+0x64>
    {
      if((__HAL_RCC_GET_FLAG(RCC_FLAG_HSERDY) != RESET) && (RCC_OscInitStruct->HSEState == RCC_HSE_OFF))
 8002158:	4bb8      	ldr	r3, [pc, #736]	; (800243c <HAL_RCC_OscConfig+0x32c>)
 800215a:	681a      	ldr	r2, [r3, #0]
 800215c:	2380      	movs	r3, #128	; 0x80
 800215e:	029b      	lsls	r3, r3, #10
 8002160:	4013      	ands	r3, r2
 8002162:	d100      	bne.n	8002166 <HAL_RCC_OscConfig+0x56>
 8002164:	e070      	b.n	8002248 <HAL_RCC_OscConfig+0x138>
 8002166:	687b      	ldr	r3, [r7, #4]
 8002168:	685b      	ldr	r3, [r3, #4]
 800216a:	2b00      	cmp	r3, #0
 800216c:	d000      	beq.n	8002170 <HAL_RCC_OscConfig+0x60>
 800216e:	e06b      	b.n	8002248 <HAL_RCC_OscConfig+0x138>
      {
        return HAL_ERROR;
 8002170:	2301      	movs	r3, #1
 8002172:	e2d8      	b.n	8002726 <HAL_RCC_OscConfig+0x616>
      }
    }
    else
    {
      /* Set the new HSE configuration ---------------------------------------*/
      __HAL_RCC_HSE_CONFIG(RCC_OscInitStruct->HSEState);
 8002174:	687b      	ldr	r3, [r7, #4]
 8002176:	685b      	ldr	r3, [r3, #4]
 8002178:	2b01      	cmp	r3, #1
 800217a:	d107      	bne.n	800218c <HAL_RCC_OscConfig+0x7c>
 800217c:	4baf      	ldr	r3, [pc, #700]	; (800243c <HAL_RCC_OscConfig+0x32c>)
 800217e:	681a      	ldr	r2, [r3, #0]
 8002180:	4bae      	ldr	r3, [pc, #696]	; (800243c <HAL_RCC_OscConfig+0x32c>)
 8002182:	2180      	movs	r1, #128	; 0x80
 8002184:	0249      	lsls	r1, r1, #9
 8002186:	430a      	orrs	r2, r1
 8002188:	601a      	str	r2, [r3, #0]
 800218a:	e02f      	b.n	80021ec <HAL_RCC_OscConfig+0xdc>
 800218c:	687b      	ldr	r3, [r7, #4]
 800218e:	685b      	ldr	r3, [r3, #4]
 8002190:	2b00      	cmp	r3, #0
 8002192:	d10c      	bne.n	80021ae <HAL_RCC_OscConfig+0x9e>
 8002194:	4ba9      	ldr	r3, [pc, #676]	; (800243c <HAL_RCC_OscConfig+0x32c>)
 8002196:	681a      	ldr	r2, [r3, #0]
 8002198:	4ba8      	ldr	r3, [pc, #672]	; (800243c <HAL_RCC_OscConfig+0x32c>)
 800219a:	49a9      	ldr	r1, [pc, #676]	; (8002440 <HAL_RCC_OscConfig+0x330>)
 800219c:	400a      	ands	r2, r1
 800219e:	601a      	str	r2, [r3, #0]
 80021a0:	4ba6      	ldr	r3, [pc, #664]	; (800243c <HAL_RCC_OscConfig+0x32c>)
 80021a2:	681a      	ldr	r2, [r3, #0]
 80021a4:	4ba5      	ldr	r3, [pc, #660]	; (800243c <HAL_RCC_OscConfig+0x32c>)
 80021a6:	49a7      	ldr	r1, [pc, #668]	; (8002444 <HAL_RCC_OscConfig+0x334>)
 80021a8:	400a      	ands	r2, r1
 80021aa:	601a      	str	r2, [r3, #0]
 80021ac:	e01e      	b.n	80021ec <HAL_RCC_OscConfig+0xdc>
 80021ae:	687b      	ldr	r3, [r7, #4]
 80021b0:	685b      	ldr	r3, [r3, #4]
 80021b2:	2b05      	cmp	r3, #5
 80021b4:	d10e      	bne.n	80021d4 <HAL_RCC_OscConfig+0xc4>
 80021b6:	4ba1      	ldr	r3, [pc, #644]	; (800243c <HAL_RCC_OscConfig+0x32c>)
 80021b8:	681a      	ldr	r2, [r3, #0]
 80021ba:	4ba0      	ldr	r3, [pc, #640]	; (800243c <HAL_RCC_OscConfig+0x32c>)
 80021bc:	2180      	movs	r1, #128	; 0x80
 80021be:	02c9      	lsls	r1, r1, #11
 80021c0:	430a      	orrs	r2, r1
 80021c2:	601a      	str	r2, [r3, #0]
 80021c4:	4b9d      	ldr	r3, [pc, #628]	; (800243c <HAL_RCC_OscConfig+0x32c>)
 80021c6:	681a      	ldr	r2, [r3, #0]
 80021c8:	4b9c      	ldr	r3, [pc, #624]	; (800243c <HAL_RCC_OscConfig+0x32c>)
 80021ca:	2180      	movs	r1, #128	; 0x80
 80021cc:	0249      	lsls	r1, r1, #9
 80021ce:	430a      	orrs	r2, r1
 80021d0:	601a      	str	r2, [r3, #0]
 80021d2:	e00b      	b.n	80021ec <HAL_RCC_OscConfig+0xdc>
 80021d4:	4b99      	ldr	r3, [pc, #612]	; (800243c <HAL_RCC_OscConfig+0x32c>)
 80021d6:	681a      	ldr	r2, [r3, #0]
 80021d8:	4b98      	ldr	r3, [pc, #608]	; (800243c <HAL_RCC_OscConfig+0x32c>)
 80021da:	4999      	ldr	r1, [pc, #612]	; (8002440 <HAL_RCC_OscConfig+0x330>)
 80021dc:	400a      	ands	r2, r1
 80021de:	601a      	str	r2, [r3, #0]
 80021e0:	4b96      	ldr	r3, [pc, #600]	; (800243c <HAL_RCC_OscConfig+0x32c>)
 80021e2:	681a      	ldr	r2, [r3, #0]
 80021e4:	4b95      	ldr	r3, [pc, #596]	; (800243c <HAL_RCC_OscConfig+0x32c>)
 80021e6:	4997      	ldr	r1, [pc, #604]	; (8002444 <HAL_RCC_OscConfig+0x334>)
 80021e8:	400a      	ands	r2, r1
 80021ea:	601a      	str	r2, [r3, #0]
      

       /* Check the HSE State */
      if(RCC_OscInitStruct->HSEState != RCC_HSE_OFF)
 80021ec:	687b      	ldr	r3, [r7, #4]
 80021ee:	685b      	ldr	r3, [r3, #4]
 80021f0:	2b00      	cmp	r3, #0
 80021f2:	d014      	beq.n	800221e <HAL_RCC_OscConfig+0x10e>
      {
        /* Get Start Tick */
        tickstart = HAL_GetTick();
 80021f4:	f7fe fd96 	bl	8000d24 <HAL_GetTick>
 80021f8:	0003      	movs	r3, r0
 80021fa:	61bb      	str	r3, [r7, #24]
        
        /* Wait till HSE is ready */
        while(__HAL_RCC_GET_FLAG(RCC_FLAG_HSERDY) == RESET)
 80021fc:	e008      	b.n	8002210 <HAL_RCC_OscConfig+0x100>
        {
          if((HAL_GetTick() - tickstart ) > HSE_TIMEOUT_VALUE)
 80021fe:	f7fe fd91 	bl	8000d24 <HAL_GetTick>
 8002202:	0002      	movs	r2, r0
 8002204:	69bb      	ldr	r3, [r7, #24]
 8002206:	1ad3      	subs	r3, r2, r3
 8002208:	2b64      	cmp	r3, #100	; 0x64
 800220a:	d901      	bls.n	8002210 <HAL_RCC_OscConfig+0x100>
          {
            return HAL_TIMEOUT;
 800220c:	2303      	movs	r3, #3
 800220e:	e28a      	b.n	8002726 <HAL_RCC_OscConfig+0x616>
        while(__HAL_RCC_GET_FLAG(RCC_FLAG_HSERDY) == RESET)
 8002210:	4b8a      	ldr	r3, [pc, #552]	; (800243c <HAL_RCC_OscConfig+0x32c>)
 8002212:	681a      	ldr	r2, [r3, #0]
 8002214:	2380      	movs	r3, #128	; 0x80
 8002216:	029b      	lsls	r3, r3, #10
 8002218:	4013      	ands	r3, r2
 800221a:	d0f0      	beq.n	80021fe <HAL_RCC_OscConfig+0xee>
 800221c:	e015      	b.n	800224a <HAL_RCC_OscConfig+0x13a>
        }
      }
      else
      {
        /* Get Start Tick */
        tickstart = HAL_GetTick();
 800221e:	f7fe fd81 	bl	8000d24 <HAL_GetTick>
 8002222:	0003      	movs	r3, r0
 8002224:	61bb      	str	r3, [r7, #24]
        
        /* Wait till HSE is disabled */
        while(__HAL_RCC_GET_FLAG(RCC_FLAG_HSERDY) != RESET)
 8002226:	e008      	b.n	800223a <HAL_RCC_OscConfig+0x12a>
        {
           if((HAL_GetTick() - tickstart ) > HSE_TIMEOUT_VALUE)
 8002228:	f7fe fd7c 	bl	8000d24 <HAL_GetTick>
 800222c:	0002      	movs	r2, r0
 800222e:	69bb      	ldr	r3, [r7, #24]
 8002230:	1ad3      	subs	r3, r2, r3
 8002232:	2b64      	cmp	r3, #100	; 0x64
 8002234:	d901      	bls.n	800223a <HAL_RCC_OscConfig+0x12a>
          {
            return HAL_TIMEOUT;
 8002236:	2303      	movs	r3, #3
 8002238:	e275      	b.n	8002726 <HAL_RCC_OscConfig+0x616>
        while(__HAL_RCC_GET_FLAG(RCC_FLAG_HSERDY) != RESET)
 800223a:	4b80      	ldr	r3, [pc, #512]	; (800243c <HAL_RCC_OscConfig+0x32c>)
 800223c:	681a      	ldr	r2, [r3, #0]
 800223e:	2380      	movs	r3, #128	; 0x80
 8002240:	029b      	lsls	r3, r3, #10
 8002242:	4013      	ands	r3, r2
 8002244:	d1f0      	bne.n	8002228 <HAL_RCC_OscConfig+0x118>
 8002246:	e000      	b.n	800224a <HAL_RCC_OscConfig+0x13a>
      if((__HAL_RCC_GET_FLAG(RCC_FLAG_HSERDY) != RESET) && (RCC_OscInitStruct->HSEState == RCC_HSE_OFF))
 8002248:	46c0      	nop			; (mov r8, r8)
        }
      }
    }
  }
  /*----------------------------- HSI Configuration --------------------------*/ 
  if(((RCC_OscInitStruct->OscillatorType) & RCC_OSCILLATORTYPE_HSI) == RCC_OSCILLATORTYPE_HSI)
 800224a:	687b      	ldr	r3, [r7, #4]
 800224c:	681b      	ldr	r3, [r3, #0]
 800224e:	2202      	movs	r2, #2
 8002250:	4013      	ands	r3, r2
 8002252:	d100      	bne.n	8002256 <HAL_RCC_OscConfig+0x146>
 8002254:	e069      	b.n	800232a <HAL_RCC_OscConfig+0x21a>
    /* Check the parameters */
    assert_param(IS_RCC_HSI(RCC_OscInitStruct->HSIState));
    assert_param(IS_RCC_CALIBRATION_VALUE(RCC_OscInitStruct->HSICalibrationValue));
    
    /* Check if HSI is used as system clock or as PLL source when PLL is selected as system clock */ 
    if((__HAL_RCC_GET_SYSCLK_SOURCE() == RCC_SYSCLKSOURCE_STATUS_HSI) 
 8002256:	4b79      	ldr	r3, [pc, #484]	; (800243c <HAL_RCC_OscConfig+0x32c>)
 8002258:	685b      	ldr	r3, [r3, #4]
 800225a:	220c      	movs	r2, #12
 800225c:	4013      	ands	r3, r2
 800225e:	d00b      	beq.n	8002278 <HAL_RCC_OscConfig+0x168>
       || ((__HAL_RCC_GET_SYSCLK_SOURCE() == RCC_SYSCLKSOURCE_STATUS_PLLCLK) && (__HAL_RCC_GET_PLL_OSCSOURCE() == RCC_PLLSOURCE_HSI)))
 8002260:	4b76      	ldr	r3, [pc, #472]	; (800243c <HAL_RCC_OscConfig+0x32c>)
 8002262:	685b      	ldr	r3, [r3, #4]
 8002264:	220c      	movs	r2, #12
 8002266:	4013      	ands	r3, r2
 8002268:	2b08      	cmp	r3, #8
 800226a:	d11c      	bne.n	80022a6 <HAL_RCC_OscConfig+0x196>
 800226c:	4b73      	ldr	r3, [pc, #460]	; (800243c <HAL_RCC_OscConfig+0x32c>)
 800226e:	685a      	ldr	r2, [r3, #4]
 8002270:	2380      	movs	r3, #128	; 0x80
 8002272:	025b      	lsls	r3, r3, #9
 8002274:	4013      	ands	r3, r2
 8002276:	d116      	bne.n	80022a6 <HAL_RCC_OscConfig+0x196>
    {
      /* When HSI is used as system clock it will not disabled */
      if((__HAL_RCC_GET_FLAG(RCC_FLAG_HSIRDY) != RESET) && (RCC_OscInitStruct->HSIState != RCC_HSI_ON))
 8002278:	4b70      	ldr	r3, [pc, #448]	; (800243c <HAL_RCC_OscConfig+0x32c>)
 800227a:	681b      	ldr	r3, [r3, #0]
 800227c:	2202      	movs	r2, #2
 800227e:	4013      	ands	r3, r2
 8002280:	d005      	beq.n	800228e <HAL_RCC_OscConfig+0x17e>
 8002282:	687b      	ldr	r3, [r7, #4]
 8002284:	68db      	ldr	r3, [r3, #12]
 8002286:	2b01      	cmp	r3, #1
 8002288:	d001      	beq.n	800228e <HAL_RCC_OscConfig+0x17e>
      {
        return HAL_ERROR;
 800228a:	2301      	movs	r3, #1
 800228c:	e24b      	b.n	8002726 <HAL_RCC_OscConfig+0x616>
      }
      /* Otherwise, just the calibration is allowed */
      else
      {
        /* Adjusts the Internal High Speed oscillator (HSI) calibration value.*/
        __HAL_RCC_HSI_CALIBRATIONVALUE_ADJUST(RCC_OscInitStruct->HSICalibrationValue);
 800228e:	4b6b      	ldr	r3, [pc, #428]	; (800243c <HAL_RCC_OscConfig+0x32c>)
 8002290:	681b      	ldr	r3, [r3, #0]
 8002292:	22f8      	movs	r2, #248	; 0xf8
 8002294:	4393      	bics	r3, r2
 8002296:	0019      	movs	r1, r3
 8002298:	687b      	ldr	r3, [r7, #4]
 800229a:	691b      	ldr	r3, [r3, #16]
 800229c:	00da      	lsls	r2, r3, #3
 800229e:	4b67      	ldr	r3, [pc, #412]	; (800243c <HAL_RCC_OscConfig+0x32c>)
 80022a0:	430a      	orrs	r2, r1
 80022a2:	601a      	str	r2, [r3, #0]
      if((__HAL_RCC_GET_FLAG(RCC_FLAG_HSIRDY) != RESET) && (RCC_OscInitStruct->HSIState != RCC_HSI_ON))
 80022a4:	e041      	b.n	800232a <HAL_RCC_OscConfig+0x21a>
      }
    }
    else
    {
      /* Check the HSI State */
      if(RCC_OscInitStruct->HSIState != RCC_HSI_OFF)
 80022a6:	687b      	ldr	r3, [r7, #4]
 80022a8:	68db      	ldr	r3, [r3, #12]
 80022aa:	2b00      	cmp	r3, #0
 80022ac:	d024      	beq.n	80022f8 <HAL_RCC_OscConfig+0x1e8>
      {
       /* Enable the Internal High Speed oscillator (HSI). */
        __HAL_RCC_HSI_ENABLE();
 80022ae:	4b63      	ldr	r3, [pc, #396]	; (800243c <HAL_RCC_OscConfig+0x32c>)
 80022b0:	681a      	ldr	r2, [r3, #0]
 80022b2:	4b62      	ldr	r3, [pc, #392]	; (800243c <HAL_RCC_OscConfig+0x32c>)
 80022b4:	2101      	movs	r1, #1
 80022b6:	430a      	orrs	r2, r1
 80022b8:	601a      	str	r2, [r3, #0]
        
        /* Get Start Tick */
        tickstart = HAL_GetTick();
 80022ba:	f7fe fd33 	bl	8000d24 <HAL_GetTick>
 80022be:	0003      	movs	r3, r0
 80022c0:	61bb      	str	r3, [r7, #24]
        
        /* Wait till HSI is ready */
        while(__HAL_RCC_GET_FLAG(RCC_FLAG_HSIRDY) == RESET)
 80022c2:	e008      	b.n	80022d6 <HAL_RCC_OscConfig+0x1c6>
        {
          if((HAL_GetTick() - tickstart ) > HSI_TIMEOUT_VALUE)
 80022c4:	f7fe fd2e 	bl	8000d24 <HAL_GetTick>
 80022c8:	0002      	movs	r2, r0
 80022ca:	69bb      	ldr	r3, [r7, #24]
 80022cc:	1ad3      	subs	r3, r2, r3
 80022ce:	2b02      	cmp	r3, #2
 80022d0:	d901      	bls.n	80022d6 <HAL_RCC_OscConfig+0x1c6>
          {
            return HAL_TIMEOUT;
 80022d2:	2303      	movs	r3, #3
 80022d4:	e227      	b.n	8002726 <HAL_RCC_OscConfig+0x616>
        while(__HAL_RCC_GET_FLAG(RCC_FLAG_HSIRDY) == RESET)
 80022d6:	4b59      	ldr	r3, [pc, #356]	; (800243c <HAL_RCC_OscConfig+0x32c>)
 80022d8:	681b      	ldr	r3, [r3, #0]
 80022da:	2202      	movs	r2, #2
 80022dc:	4013      	ands	r3, r2
 80022de:	d0f1      	beq.n	80022c4 <HAL_RCC_OscConfig+0x1b4>
          }
        }
                
        /* Adjusts the Internal High Speed oscillator (HSI) calibration value.*/
        __HAL_RCC_HSI_CALIBRATIONVALUE_ADJUST(RCC_OscInitStruct->HSICalibrationValue);
 80022e0:	4b56      	ldr	r3, [pc, #344]	; (800243c <HAL_RCC_OscConfig+0x32c>)
 80022e2:	681b      	ldr	r3, [r3, #0]
 80022e4:	22f8      	movs	r2, #248	; 0xf8
 80022e6:	4393      	bics	r3, r2
 80022e8:	0019      	movs	r1, r3
 80022ea:	687b      	ldr	r3, [r7, #4]
 80022ec:	691b      	ldr	r3, [r3, #16]
 80022ee:	00da      	lsls	r2, r3, #3
 80022f0:	4b52      	ldr	r3, [pc, #328]	; (800243c <HAL_RCC_OscConfig+0x32c>)
 80022f2:	430a      	orrs	r2, r1
 80022f4:	601a      	str	r2, [r3, #0]
 80022f6:	e018      	b.n	800232a <HAL_RCC_OscConfig+0x21a>
      }
      else
      {
        /* Disable the Internal High Speed oscillator (HSI). */
        __HAL_RCC_HSI_DISABLE();
 80022f8:	4b50      	ldr	r3, [pc, #320]	; (800243c <HAL_RCC_OscConfig+0x32c>)
 80022fa:	681a      	ldr	r2, [r3, #0]
 80022fc:	4b4f      	ldr	r3, [pc, #316]	; (800243c <HAL_RCC_OscConfig+0x32c>)
 80022fe:	2101      	movs	r1, #1
 8002300:	438a      	bics	r2, r1
 8002302:	601a      	str	r2, [r3, #0]
        
        /* Get Start Tick */
        tickstart = HAL_GetTick();
 8002304:	f7fe fd0e 	bl	8000d24 <HAL_GetTick>
 8002308:	0003      	movs	r3, r0
 800230a:	61bb      	str	r3, [r7, #24]
        
        /* Wait till HSI is disabled */
        while(__HAL_RCC_GET_FLAG(RCC_FLAG_HSIRDY) != RESET)
 800230c:	e008      	b.n	8002320 <HAL_RCC_OscConfig+0x210>
        {
          if((HAL_GetTick() - tickstart ) > HSI_TIMEOUT_VALUE)
 800230e:	f7fe fd09 	bl	8000d24 <HAL_GetTick>
 8002312:	0002      	movs	r2, r0
 8002314:	69bb      	ldr	r3, [r7, #24]
 8002316:	1ad3      	subs	r3, r2, r3
 8002318:	2b02      	cmp	r3, #2
 800231a:	d901      	bls.n	8002320 <HAL_RCC_OscConfig+0x210>
          {
            return HAL_TIMEOUT;
 800231c:	2303      	movs	r3, #3
 800231e:	e202      	b.n	8002726 <HAL_RCC_OscConfig+0x616>
        while(__HAL_RCC_GET_FLAG(RCC_FLAG_HSIRDY) != RESET)
 8002320:	4b46      	ldr	r3, [pc, #280]	; (800243c <HAL_RCC_OscConfig+0x32c>)
 8002322:	681b      	ldr	r3, [r3, #0]
 8002324:	2202      	movs	r2, #2
 8002326:	4013      	ands	r3, r2
 8002328:	d1f1      	bne.n	800230e <HAL_RCC_OscConfig+0x1fe>
        }
      }
    }
  }
  /*------------------------------ LSI Configuration -------------------------*/ 
  if(((RCC_OscInitStruct->OscillatorType) & RCC_OSCILLATORTYPE_LSI) == RCC_OSCILLATORTYPE_LSI)
 800232a:	687b      	ldr	r3, [r7, #4]
 800232c:	681b      	ldr	r3, [r3, #0]
 800232e:	2208      	movs	r2, #8
 8002330:	4013      	ands	r3, r2
 8002332:	d036      	beq.n	80023a2 <HAL_RCC_OscConfig+0x292>
  {
    /* Check the parameters */
    assert_param(IS_RCC_LSI(RCC_OscInitStruct->LSIState));
    
    /* Check the LSI State */
    if(RCC_OscInitStruct->LSIState != RCC_LSI_OFF)
 8002334:	687b      	ldr	r3, [r7, #4]
 8002336:	69db      	ldr	r3, [r3, #28]
 8002338:	2b00      	cmp	r3, #0
 800233a:	d019      	beq.n	8002370 <HAL_RCC_OscConfig+0x260>
    {
      /* Enable the Internal Low Speed oscillator (LSI). */
      __HAL_RCC_LSI_ENABLE();
 800233c:	4b3f      	ldr	r3, [pc, #252]	; (800243c <HAL_RCC_OscConfig+0x32c>)
 800233e:	6a5a      	ldr	r2, [r3, #36]	; 0x24
 8002340:	4b3e      	ldr	r3, [pc, #248]	; (800243c <HAL_RCC_OscConfig+0x32c>)
 8002342:	2101      	movs	r1, #1
 8002344:	430a      	orrs	r2, r1
 8002346:	625a      	str	r2, [r3, #36]	; 0x24
      
      /* Get Start Tick */
      tickstart = HAL_GetTick();
 8002348:	f7fe fcec 	bl	8000d24 <HAL_GetTick>
 800234c:	0003      	movs	r3, r0
 800234e:	61bb      	str	r3, [r7, #24]
      
      /* Wait till LSI is ready */  
      while(__HAL_RCC_GET_FLAG(RCC_FLAG_LSIRDY) == RESET)
 8002350:	e008      	b.n	8002364 <HAL_RCC_OscConfig+0x254>
      {
        if((HAL_GetTick() - tickstart ) > LSI_TIMEOUT_VALUE)
 8002352:	f7fe fce7 	bl	8000d24 <HAL_GetTick>
 8002356:	0002      	movs	r2, r0
 8002358:	69bb      	ldr	r3, [r7, #24]
 800235a:	1ad3      	subs	r3, r2, r3
 800235c:	2b02      	cmp	r3, #2
 800235e:	d901      	bls.n	8002364 <HAL_RCC_OscConfig+0x254>
        {
          return HAL_TIMEOUT;
 8002360:	2303      	movs	r3, #3
 8002362:	e1e0      	b.n	8002726 <HAL_RCC_OscConfig+0x616>
      while(__HAL_RCC_GET_FLAG(RCC_FLAG_LSIRDY) == RESET)
 8002364:	4b35      	ldr	r3, [pc, #212]	; (800243c <HAL_RCC_OscConfig+0x32c>)
 8002366:	6a5b      	ldr	r3, [r3, #36]	; 0x24
 8002368:	2202      	movs	r2, #2
 800236a:	4013      	ands	r3, r2
 800236c:	d0f1      	beq.n	8002352 <HAL_RCC_OscConfig+0x242>
 800236e:	e018      	b.n	80023a2 <HAL_RCC_OscConfig+0x292>
      }
    }
    else
    {
      /* Disable the Internal Low Speed oscillator (LSI). */
      __HAL_RCC_LSI_DISABLE();
 8002370:	4b32      	ldr	r3, [pc, #200]	; (800243c <HAL_RCC_OscConfig+0x32c>)
 8002372:	6a5a      	ldr	r2, [r3, #36]	; 0x24
 8002374:	4b31      	ldr	r3, [pc, #196]	; (800243c <HAL_RCC_OscConfig+0x32c>)
 8002376:	2101      	movs	r1, #1
 8002378:	438a      	bics	r2, r1
 800237a:	625a      	str	r2, [r3, #36]	; 0x24
      
      /* Get Start Tick */
      tickstart = HAL_GetTick();
 800237c:	f7fe fcd2 	bl	8000d24 <HAL_GetTick>
 8002380:	0003      	movs	r3, r0
 8002382:	61bb      	str	r3, [r7, #24]
      
      /* Wait till LSI is disabled */  
      while(__HAL_RCC_GET_FLAG(RCC_FLAG_LSIRDY) != RESET)
 8002384:	e008      	b.n	8002398 <HAL_RCC_OscConfig+0x288>
      {
        if((HAL_GetTick() - tickstart ) > LSI_TIMEOUT_VALUE)
 8002386:	f7fe fccd 	bl	8000d24 <HAL_GetTick>
 800238a:	0002      	movs	r2, r0
 800238c:	69bb      	ldr	r3, [r7, #24]
 800238e:	1ad3      	subs	r3, r2, r3
 8002390:	2b02      	cmp	r3, #2
 8002392:	d901      	bls.n	8002398 <HAL_RCC_OscConfig+0x288>
        {
          return HAL_TIMEOUT;
 8002394:	2303      	movs	r3, #3
 8002396:	e1c6      	b.n	8002726 <HAL_RCC_OscConfig+0x616>
      while(__HAL_RCC_GET_FLAG(RCC_FLAG_LSIRDY) != RESET)
 8002398:	4b28      	ldr	r3, [pc, #160]	; (800243c <HAL_RCC_OscConfig+0x32c>)
 800239a:	6a5b      	ldr	r3, [r3, #36]	; 0x24
 800239c:	2202      	movs	r2, #2
 800239e:	4013      	ands	r3, r2
 80023a0:	d1f1      	bne.n	8002386 <HAL_RCC_OscConfig+0x276>
        }
      }
    }
  }
  /*------------------------------ LSE Configuration -------------------------*/ 
  if(((RCC_OscInitStruct->OscillatorType) & RCC_OSCILLATORTYPE_LSE) == RCC_OSCILLATORTYPE_LSE)
 80023a2:	687b      	ldr	r3, [r7, #4]
 80023a4:	681b      	ldr	r3, [r3, #0]
 80023a6:	2204      	movs	r2, #4
 80023a8:	4013      	ands	r3, r2
 80023aa:	d100      	bne.n	80023ae <HAL_RCC_OscConfig+0x29e>
 80023ac:	e0b4      	b.n	8002518 <HAL_RCC_OscConfig+0x408>
  {
    FlagStatus       pwrclkchanged = RESET;
 80023ae:	201f      	movs	r0, #31
 80023b0:	183b      	adds	r3, r7, r0
 80023b2:	2200      	movs	r2, #0
 80023b4:	701a      	strb	r2, [r3, #0]
    /* Check the parameters */
    assert_param(IS_RCC_LSE(RCC_OscInitStruct->LSEState));

    /* Update LSE configuration in Backup Domain control register    */
    /* Requires to enable write access to Backup Domain of necessary */
    if(__HAL_RCC_PWR_IS_CLK_DISABLED())
 80023b6:	4b21      	ldr	r3, [pc, #132]	; (800243c <HAL_RCC_OscConfig+0x32c>)
 80023b8:	69da      	ldr	r2, [r3, #28]
 80023ba:	2380      	movs	r3, #128	; 0x80
 80023bc:	055b      	lsls	r3, r3, #21
 80023be:	4013      	ands	r3, r2
 80023c0:	d110      	bne.n	80023e4 <HAL_RCC_OscConfig+0x2d4>
    {
      __HAL_RCC_PWR_CLK_ENABLE();
 80023c2:	4b1e      	ldr	r3, [pc, #120]	; (800243c <HAL_RCC_OscConfig+0x32c>)
 80023c4:	69da      	ldr	r2, [r3, #28]
 80023c6:	4b1d      	ldr	r3, [pc, #116]	; (800243c <HAL_RCC_OscConfig+0x32c>)
 80023c8:	2180      	movs	r1, #128	; 0x80
 80023ca:	0549      	lsls	r1, r1, #21
 80023cc:	430a      	orrs	r2, r1
 80023ce:	61da      	str	r2, [r3, #28]
 80023d0:	4b1a      	ldr	r3, [pc, #104]	; (800243c <HAL_RCC_OscConfig+0x32c>)
 80023d2:	69da      	ldr	r2, [r3, #28]
 80023d4:	2380      	movs	r3, #128	; 0x80
 80023d6:	055b      	lsls	r3, r3, #21
 80023d8:	4013      	ands	r3, r2
 80023da:	60fb      	str	r3, [r7, #12]
 80023dc:	68fb      	ldr	r3, [r7, #12]
      pwrclkchanged = SET;
 80023de:	183b      	adds	r3, r7, r0
 80023e0:	2201      	movs	r2, #1
 80023e2:	701a      	strb	r2, [r3, #0]
    }
    
    if(HAL_IS_BIT_CLR(PWR->CR, PWR_CR_DBP))
 80023e4:	4b18      	ldr	r3, [pc, #96]	; (8002448 <HAL_RCC_OscConfig+0x338>)
 80023e6:	681a      	ldr	r2, [r3, #0]
 80023e8:	2380      	movs	r3, #128	; 0x80
 80023ea:	005b      	lsls	r3, r3, #1
 80023ec:	4013      	ands	r3, r2
 80023ee:	d11a      	bne.n	8002426 <HAL_RCC_OscConfig+0x316>
    {
      /* Enable write access to Backup domain */
      SET_BIT(PWR->CR, PWR_CR_DBP);
 80023f0:	4b15      	ldr	r3, [pc, #84]	; (8002448 <HAL_RCC_OscConfig+0x338>)
 80023f2:	681a      	ldr	r2, [r3, #0]
 80023f4:	4b14      	ldr	r3, [pc, #80]	; (8002448 <HAL_RCC_OscConfig+0x338>)
 80023f6:	2180      	movs	r1, #128	; 0x80
 80023f8:	0049      	lsls	r1, r1, #1
 80023fa:	430a      	orrs	r2, r1
 80023fc:	601a      	str	r2, [r3, #0]
      
      /* Wait for Backup domain Write protection disable */
      tickstart = HAL_GetTick();
 80023fe:	f7fe fc91 	bl	8000d24 <HAL_GetTick>
 8002402:	0003      	movs	r3, r0
 8002404:	61bb      	str	r3, [r7, #24]

      while(HAL_IS_BIT_CLR(PWR->CR, PWR_CR_DBP))
 8002406:	e008      	b.n	800241a <HAL_RCC_OscConfig+0x30a>
      {
        if((HAL_GetTick() - tickstart) > RCC_DBP_TIMEOUT_VALUE)
 8002408:	f7fe fc8c 	bl	8000d24 <HAL_GetTick>
 800240c:	0002      	movs	r2, r0
 800240e:	69bb      	ldr	r3, [r7, #24]
 8002410:	1ad3      	subs	r3, r2, r3
 8002412:	2b64      	cmp	r3, #100	; 0x64
 8002414:	d901      	bls.n	800241a <HAL_RCC_OscConfig+0x30a>
        {
          return HAL_TIMEOUT;
 8002416:	2303      	movs	r3, #3
 8002418:	e185      	b.n	8002726 <HAL_RCC_OscConfig+0x616>
      while(HAL_IS_BIT_CLR(PWR->CR, PWR_CR_DBP))
 800241a:	4b0b      	ldr	r3, [pc, #44]	; (8002448 <HAL_RCC_OscConfig+0x338>)
 800241c:	681a      	ldr	r2, [r3, #0]
 800241e:	2380      	movs	r3, #128	; 0x80
 8002420:	005b      	lsls	r3, r3, #1
 8002422:	4013      	ands	r3, r2
 8002424:	d0f0      	beq.n	8002408 <HAL_RCC_OscConfig+0x2f8>
        }
      }
    }

    /* Set the new LSE configuration -----------------------------------------*/
    __HAL_RCC_LSE_CONFIG(RCC_OscInitStruct->LSEState);
 8002426:	687b      	ldr	r3, [r7, #4]
 8002428:	689b      	ldr	r3, [r3, #8]
 800242a:	2b01      	cmp	r3, #1
 800242c:	d10e      	bne.n	800244c <HAL_RCC_OscConfig+0x33c>
 800242e:	4b03      	ldr	r3, [pc, #12]	; (800243c <HAL_RCC_OscConfig+0x32c>)
 8002430:	6a1a      	ldr	r2, [r3, #32]
 8002432:	4b02      	ldr	r3, [pc, #8]	; (800243c <HAL_RCC_OscConfig+0x32c>)
 8002434:	2101      	movs	r1, #1
 8002436:	430a      	orrs	r2, r1
 8002438:	621a      	str	r2, [r3, #32]
 800243a:	e035      	b.n	80024a8 <HAL_RCC_OscConfig+0x398>
 800243c:	40021000 	.word	0x40021000
 8002440:	fffeffff 	.word	0xfffeffff
 8002444:	fffbffff 	.word	0xfffbffff
 8002448:	40007000 	.word	0x40007000
 800244c:	687b      	ldr	r3, [r7, #4]
 800244e:	689b      	ldr	r3, [r3, #8]
 8002450:	2b00      	cmp	r3, #0
 8002452:	d10c      	bne.n	800246e <HAL_RCC_OscConfig+0x35e>
 8002454:	4bb6      	ldr	r3, [pc, #728]	; (8002730 <HAL_RCC_OscConfig+0x620>)
 8002456:	6a1a      	ldr	r2, [r3, #32]
 8002458:	4bb5      	ldr	r3, [pc, #724]	; (8002730 <HAL_RCC_OscConfig+0x620>)
 800245a:	2101      	movs	r1, #1
 800245c:	438a      	bics	r2, r1
 800245e:	621a      	str	r2, [r3, #32]
 8002460:	4bb3      	ldr	r3, [pc, #716]	; (8002730 <HAL_RCC_OscConfig+0x620>)
 8002462:	6a1a      	ldr	r2, [r3, #32]
 8002464:	4bb2      	ldr	r3, [pc, #712]	; (8002730 <HAL_RCC_OscConfig+0x620>)
 8002466:	2104      	movs	r1, #4
 8002468:	438a      	bics	r2, r1
 800246a:	621a      	str	r2, [r3, #32]
 800246c:	e01c      	b.n	80024a8 <HAL_RCC_OscConfig+0x398>
 800246e:	687b      	ldr	r3, [r7, #4]
 8002470:	689b      	ldr	r3, [r3, #8]
 8002472:	2b05      	cmp	r3, #5
 8002474:	d10c      	bne.n	8002490 <HAL_RCC_OscConfig+0x380>
 8002476:	4bae      	ldr	r3, [pc, #696]	; (8002730 <HAL_RCC_OscConfig+0x620>)
 8002478:	6a1a      	ldr	r2, [r3, #32]
 800247a:	4bad      	ldr	r3, [pc, #692]	; (8002730 <HAL_RCC_OscConfig+0x620>)
 800247c:	2104      	movs	r1, #4
 800247e:	430a      	orrs	r2, r1
 8002480:	621a      	str	r2, [r3, #32]
 8002482:	4bab      	ldr	r3, [pc, #684]	; (8002730 <HAL_RCC_OscConfig+0x620>)
 8002484:	6a1a      	ldr	r2, [r3, #32]
 8002486:	4baa      	ldr	r3, [pc, #680]	; (8002730 <HAL_RCC_OscConfig+0x620>)
 8002488:	2101      	movs	r1, #1
 800248a:	430a      	orrs	r2, r1
 800248c:	621a      	str	r2, [r3, #32]
 800248e:	e00b      	b.n	80024a8 <HAL_RCC_OscConfig+0x398>
 8002490:	4ba7      	ldr	r3, [pc, #668]	; (8002730 <HAL_RCC_OscConfig+0x620>)
 8002492:	6a1a      	ldr	r2, [r3, #32]
 8002494:	4ba6      	ldr	r3, [pc, #664]	; (8002730 <HAL_RCC_OscConfig+0x620>)
 8002496:	2101      	movs	r1, #1
 8002498:	438a      	bics	r2, r1
 800249a:	621a      	str	r2, [r3, #32]
 800249c:	4ba4      	ldr	r3, [pc, #656]	; (8002730 <HAL_RCC_OscConfig+0x620>)
 800249e:	6a1a      	ldr	r2, [r3, #32]
 80024a0:	4ba3      	ldr	r3, [pc, #652]	; (8002730 <HAL_RCC_OscConfig+0x620>)
 80024a2:	2104      	movs	r1, #4
 80024a4:	438a      	bics	r2, r1
 80024a6:	621a      	str	r2, [r3, #32]
    /* Check the LSE State */
    if(RCC_OscInitStruct->LSEState != RCC_LSE_OFF)
 80024a8:	687b      	ldr	r3, [r7, #4]
 80024aa:	689b      	ldr	r3, [r3, #8]
 80024ac:	2b00      	cmp	r3, #0
 80024ae:	d014      	beq.n	80024da <HAL_RCC_OscConfig+0x3ca>
    {
      /* Get Start Tick */
      tickstart = HAL_GetTick();
 80024b0:	f7fe fc38 	bl	8000d24 <HAL_GetTick>
 80024b4:	0003      	movs	r3, r0
 80024b6:	61bb      	str	r3, [r7, #24]
      
      /* Wait till LSE is ready */  
      while(__HAL_RCC_GET_FLAG(RCC_FLAG_LSERDY) == RESET)
 80024b8:	e009      	b.n	80024ce <HAL_RCC_OscConfig+0x3be>
      {
        if((HAL_GetTick() - tickstart ) > RCC_LSE_TIMEOUT_VALUE)
 80024ba:	f7fe fc33 	bl	8000d24 <HAL_GetTick>
 80024be:	0002      	movs	r2, r0
 80024c0:	69bb      	ldr	r3, [r7, #24]
 80024c2:	1ad3      	subs	r3, r2, r3
 80024c4:	4a9b      	ldr	r2, [pc, #620]	; (8002734 <HAL_RCC_OscConfig+0x624>)
 80024c6:	4293      	cmp	r3, r2
 80024c8:	d901      	bls.n	80024ce <HAL_RCC_OscConfig+0x3be>
        {
          return HAL_TIMEOUT;
 80024ca:	2303      	movs	r3, #3
 80024cc:	e12b      	b.n	8002726 <HAL_RCC_OscConfig+0x616>
      while(__HAL_RCC_GET_FLAG(RCC_FLAG_LSERDY) == RESET)
 80024ce:	4b98      	ldr	r3, [pc, #608]	; (8002730 <HAL_RCC_OscConfig+0x620>)
 80024d0:	6a1b      	ldr	r3, [r3, #32]
 80024d2:	2202      	movs	r2, #2
 80024d4:	4013      	ands	r3, r2
 80024d6:	d0f0      	beq.n	80024ba <HAL_RCC_OscConfig+0x3aa>
 80024d8:	e013      	b.n	8002502 <HAL_RCC_OscConfig+0x3f2>
      }
    }
    else
    {
      /* Get Start Tick */
      tickstart = HAL_GetTick();
 80024da:	f7fe fc23 	bl	8000d24 <HAL_GetTick>
 80024de:	0003      	movs	r3, r0
 80024e0:	61bb      	str	r3, [r7, #24]
      
      /* Wait till LSE is disabled */  
      while(__HAL_RCC_GET_FLAG(RCC_FLAG_LSERDY) != RESET)
 80024e2:	e009      	b.n	80024f8 <HAL_RCC_OscConfig+0x3e8>
      {
        if((HAL_GetTick() - tickstart ) > RCC_LSE_TIMEOUT_VALUE)
 80024e4:	f7fe fc1e 	bl	8000d24 <HAL_GetTick>
 80024e8:	0002      	movs	r2, r0
 80024ea:	69bb      	ldr	r3, [r7, #24]
 80024ec:	1ad3      	subs	r3, r2, r3
 80024ee:	4a91      	ldr	r2, [pc, #580]	; (8002734 <HAL_RCC_OscConfig+0x624>)
 80024f0:	4293      	cmp	r3, r2
 80024f2:	d901      	bls.n	80024f8 <HAL_RCC_OscConfig+0x3e8>
        {
          return HAL_TIMEOUT;
 80024f4:	2303      	movs	r3, #3
 80024f6:	e116      	b.n	8002726 <HAL_RCC_OscConfig+0x616>
      while(__HAL_RCC_GET_FLAG(RCC_FLAG_LSERDY) != RESET)
 80024f8:	4b8d      	ldr	r3, [pc, #564]	; (8002730 <HAL_RCC_OscConfig+0x620>)
 80024fa:	6a1b      	ldr	r3, [r3, #32]
 80024fc:	2202      	movs	r2, #2
 80024fe:	4013      	ands	r3, r2
 8002500:	d1f0      	bne.n	80024e4 <HAL_RCC_OscConfig+0x3d4>
        }
      }
    }

    /* Require to disable power clock if necessary */
    if(pwrclkchanged == SET)
 8002502:	231f      	movs	r3, #31
 8002504:	18fb      	adds	r3, r7, r3
 8002506:	781b      	ldrb	r3, [r3, #0]
 8002508:	2b01      	cmp	r3, #1
 800250a:	d105      	bne.n	8002518 <HAL_RCC_OscConfig+0x408>
    {
      __HAL_RCC_PWR_CLK_DISABLE();
 800250c:	4b88      	ldr	r3, [pc, #544]	; (8002730 <HAL_RCC_OscConfig+0x620>)
 800250e:	69da      	ldr	r2, [r3, #28]
 8002510:	4b87      	ldr	r3, [pc, #540]	; (8002730 <HAL_RCC_OscConfig+0x620>)
 8002512:	4989      	ldr	r1, [pc, #548]	; (8002738 <HAL_RCC_OscConfig+0x628>)
 8002514:	400a      	ands	r2, r1
 8002516:	61da      	str	r2, [r3, #28]
    }
  }

  /*----------------------------- HSI14 Configuration --------------------------*/
  if(((RCC_OscInitStruct->OscillatorType) & RCC_OSCILLATORTYPE_HSI14) == RCC_OSCILLATORTYPE_HSI14)
 8002518:	687b      	ldr	r3, [r7, #4]
 800251a:	681b      	ldr	r3, [r3, #0]
 800251c:	2210      	movs	r2, #16
 800251e:	4013      	ands	r3, r2
 8002520:	d063      	beq.n	80025ea <HAL_RCC_OscConfig+0x4da>
    /* Check the parameters */
    assert_param(IS_RCC_HSI14(RCC_OscInitStruct->HSI14State));
    assert_param(IS_RCC_CALIBRATION_VALUE(RCC_OscInitStruct->HSI14CalibrationValue));

    /* Check the HSI14 State */
    if(RCC_OscInitStruct->HSI14State == RCC_HSI14_ON)
 8002522:	687b      	ldr	r3, [r7, #4]
 8002524:	695b      	ldr	r3, [r3, #20]
 8002526:	2b01      	cmp	r3, #1
 8002528:	d12a      	bne.n	8002580 <HAL_RCC_OscConfig+0x470>
    {
      /* Disable ADC control of the Internal High Speed oscillator HSI14 */
      __HAL_RCC_HSI14ADC_DISABLE();
 800252a:	4b81      	ldr	r3, [pc, #516]	; (8002730 <HAL_RCC_OscConfig+0x620>)
 800252c:	6b5a      	ldr	r2, [r3, #52]	; 0x34
 800252e:	4b80      	ldr	r3, [pc, #512]	; (8002730 <HAL_RCC_OscConfig+0x620>)
 8002530:	2104      	movs	r1, #4
 8002532:	430a      	orrs	r2, r1
 8002534:	635a      	str	r2, [r3, #52]	; 0x34

      /* Enable the Internal High Speed oscillator (HSI). */
      __HAL_RCC_HSI14_ENABLE();
 8002536:	4b7e      	ldr	r3, [pc, #504]	; (8002730 <HAL_RCC_OscConfig+0x620>)
 8002538:	6b5a      	ldr	r2, [r3, #52]	; 0x34
 800253a:	4b7d      	ldr	r3, [pc, #500]	; (8002730 <HAL_RCC_OscConfig+0x620>)
 800253c:	2101      	movs	r1, #1
 800253e:	430a      	orrs	r2, r1
 8002540:	635a      	str	r2, [r3, #52]	; 0x34

      /* Get Start Tick */
      tickstart = HAL_GetTick();
 8002542:	f7fe fbef 	bl	8000d24 <HAL_GetTick>
 8002546:	0003      	movs	r3, r0
 8002548:	61bb      	str	r3, [r7, #24]
      
      /* Wait till HSI is ready */  
      while(__HAL_RCC_GET_FLAG(RCC_FLAG_HSI14RDY) == RESET)
 800254a:	e008      	b.n	800255e <HAL_RCC_OscConfig+0x44e>
      {
        if((HAL_GetTick() - tickstart) > HSI14_TIMEOUT_VALUE)
 800254c:	f7fe fbea 	bl	8000d24 <HAL_GetTick>
 8002550:	0002      	movs	r2, r0
 8002552:	69bb      	ldr	r3, [r7, #24]
 8002554:	1ad3      	subs	r3, r2, r3
 8002556:	2b02      	cmp	r3, #2
 8002558:	d901      	bls.n	800255e <HAL_RCC_OscConfig+0x44e>
        {
          return HAL_TIMEOUT;
 800255a:	2303      	movs	r3, #3
 800255c:	e0e3      	b.n	8002726 <HAL_RCC_OscConfig+0x616>
      while(__HAL_RCC_GET_FLAG(RCC_FLAG_HSI14RDY) == RESET)
 800255e:	4b74      	ldr	r3, [pc, #464]	; (8002730 <HAL_RCC_OscConfig+0x620>)
 8002560:	6b5b      	ldr	r3, [r3, #52]	; 0x34
 8002562:	2202      	movs	r2, #2
 8002564:	4013      	ands	r3, r2
 8002566:	d0f1      	beq.n	800254c <HAL_RCC_OscConfig+0x43c>
        }      
      } 

      /* Adjusts the Internal High Speed oscillator 14Mhz (HSI14) calibration value. */
      __HAL_RCC_HSI14_CALIBRATIONVALUE_ADJUST(RCC_OscInitStruct->HSI14CalibrationValue);
 8002568:	4b71      	ldr	r3, [pc, #452]	; (8002730 <HAL_RCC_OscConfig+0x620>)
 800256a:	6b5b      	ldr	r3, [r3, #52]	; 0x34
 800256c:	22f8      	movs	r2, #248	; 0xf8
 800256e:	4393      	bics	r3, r2
 8002570:	0019      	movs	r1, r3
 8002572:	687b      	ldr	r3, [r7, #4]
 8002574:	699b      	ldr	r3, [r3, #24]
 8002576:	00da      	lsls	r2, r3, #3
 8002578:	4b6d      	ldr	r3, [pc, #436]	; (8002730 <HAL_RCC_OscConfig+0x620>)
 800257a:	430a      	orrs	r2, r1
 800257c:	635a      	str	r2, [r3, #52]	; 0x34
 800257e:	e034      	b.n	80025ea <HAL_RCC_OscConfig+0x4da>
    }
    else if(RCC_OscInitStruct->HSI14State == RCC_HSI14_ADC_CONTROL)
 8002580:	687b      	ldr	r3, [r7, #4]
 8002582:	695b      	ldr	r3, [r3, #20]
 8002584:	3305      	adds	r3, #5
 8002586:	d111      	bne.n	80025ac <HAL_RCC_OscConfig+0x49c>
    {
      /* Enable ADC control of the Internal High Speed oscillator HSI14 */
      __HAL_RCC_HSI14ADC_ENABLE();
 8002588:	4b69      	ldr	r3, [pc, #420]	; (8002730 <HAL_RCC_OscConfig+0x620>)
 800258a:	6b5a      	ldr	r2, [r3, #52]	; 0x34
 800258c:	4b68      	ldr	r3, [pc, #416]	; (8002730 <HAL_RCC_OscConfig+0x620>)
 800258e:	2104      	movs	r1, #4
 8002590:	438a      	bics	r2, r1
 8002592:	635a      	str	r2, [r3, #52]	; 0x34

      /* Adjusts the Internal High Speed oscillator 14Mhz (HSI14) calibration value. */
      __HAL_RCC_HSI14_CALIBRATIONVALUE_ADJUST(RCC_OscInitStruct->HSI14CalibrationValue);
 8002594:	4b66      	ldr	r3, [pc, #408]	; (8002730 <HAL_RCC_OscConfig+0x620>)
 8002596:	6b5b      	ldr	r3, [r3, #52]	; 0x34
 8002598:	22f8      	movs	r2, #248	; 0xf8
 800259a:	4393      	bics	r3, r2
 800259c:	0019      	movs	r1, r3
 800259e:	687b      	ldr	r3, [r7, #4]
 80025a0:	699b      	ldr	r3, [r3, #24]
 80025a2:	00da      	lsls	r2, r3, #3
 80025a4:	4b62      	ldr	r3, [pc, #392]	; (8002730 <HAL_RCC_OscConfig+0x620>)
 80025a6:	430a      	orrs	r2, r1
 80025a8:	635a      	str	r2, [r3, #52]	; 0x34
 80025aa:	e01e      	b.n	80025ea <HAL_RCC_OscConfig+0x4da>
    }
    else
    {
      /* Disable ADC control of the Internal High Speed oscillator HSI14 */
      __HAL_RCC_HSI14ADC_DISABLE();
 80025ac:	4b60      	ldr	r3, [pc, #384]	; (8002730 <HAL_RCC_OscConfig+0x620>)
 80025ae:	6b5a      	ldr	r2, [r3, #52]	; 0x34
 80025b0:	4b5f      	ldr	r3, [pc, #380]	; (8002730 <HAL_RCC_OscConfig+0x620>)
 80025b2:	2104      	movs	r1, #4
 80025b4:	430a      	orrs	r2, r1
 80025b6:	635a      	str	r2, [r3, #52]	; 0x34

      /* Disable the Internal High Speed oscillator (HSI). */
      __HAL_RCC_HSI14_DISABLE();
 80025b8:	4b5d      	ldr	r3, [pc, #372]	; (8002730 <HAL_RCC_OscConfig+0x620>)
 80025ba:	6b5a      	ldr	r2, [r3, #52]	; 0x34
 80025bc:	4b5c      	ldr	r3, [pc, #368]	; (8002730 <HAL_RCC_OscConfig+0x620>)
 80025be:	2101      	movs	r1, #1
 80025c0:	438a      	bics	r2, r1
 80025c2:	635a      	str	r2, [r3, #52]	; 0x34

      /* Get Start Tick */
      tickstart = HAL_GetTick();
 80025c4:	f7fe fbae 	bl	8000d24 <HAL_GetTick>
 80025c8:	0003      	movs	r3, r0
 80025ca:	61bb      	str	r3, [r7, #24]
      
      /* Wait till HSI is ready */  
      while(__HAL_RCC_GET_FLAG(RCC_FLAG_HSI14RDY) != RESET)
 80025cc:	e008      	b.n	80025e0 <HAL_RCC_OscConfig+0x4d0>
      {
        if((HAL_GetTick() - tickstart) > HSI14_TIMEOUT_VALUE)
 80025ce:	f7fe fba9 	bl	8000d24 <HAL_GetTick>
 80025d2:	0002      	movs	r2, r0
 80025d4:	69bb      	ldr	r3, [r7, #24]
 80025d6:	1ad3      	subs	r3, r2, r3
 80025d8:	2b02      	cmp	r3, #2
 80025da:	d901      	bls.n	80025e0 <HAL_RCC_OscConfig+0x4d0>
        {
          return HAL_TIMEOUT;
 80025dc:	2303      	movs	r3, #3
 80025de:	e0a2      	b.n	8002726 <HAL_RCC_OscConfig+0x616>
      while(__HAL_RCC_GET_FLAG(RCC_FLAG_HSI14RDY) != RESET)
 80025e0:	4b53      	ldr	r3, [pc, #332]	; (8002730 <HAL_RCC_OscConfig+0x620>)
 80025e2:	6b5b      	ldr	r3, [r3, #52]	; 0x34
 80025e4:	2202      	movs	r2, #2
 80025e6:	4013      	ands	r3, r2
 80025e8:	d1f1      	bne.n	80025ce <HAL_RCC_OscConfig+0x4be>
#endif /* RCC_HSI48_SUPPORT */
       
  /*-------------------------------- PLL Configuration -----------------------*/
  /* Check the parameters */
  assert_param(IS_RCC_PLL(RCC_OscInitStruct->PLL.PLLState));
  if ((RCC_OscInitStruct->PLL.PLLState) != RCC_PLL_NONE)
 80025ea:	687b      	ldr	r3, [r7, #4]
 80025ec:	6a1b      	ldr	r3, [r3, #32]
 80025ee:	2b00      	cmp	r3, #0
 80025f0:	d100      	bne.n	80025f4 <HAL_RCC_OscConfig+0x4e4>
 80025f2:	e097      	b.n	8002724 <HAL_RCC_OscConfig+0x614>
  {
    /* Check if the PLL is used as system clock or not */
    if(__HAL_RCC_GET_SYSCLK_SOURCE() != RCC_SYSCLKSOURCE_STATUS_PLLCLK)
 80025f4:	4b4e      	ldr	r3, [pc, #312]	; (8002730 <HAL_RCC_OscConfig+0x620>)
 80025f6:	685b      	ldr	r3, [r3, #4]
 80025f8:	220c      	movs	r2, #12
 80025fa:	4013      	ands	r3, r2
 80025fc:	2b08      	cmp	r3, #8
 80025fe:	d100      	bne.n	8002602 <HAL_RCC_OscConfig+0x4f2>
 8002600:	e06b      	b.n	80026da <HAL_RCC_OscConfig+0x5ca>
    { 
      if((RCC_OscInitStruct->PLL.PLLState) == RCC_PLL_ON)
 8002602:	687b      	ldr	r3, [r7, #4]
 8002604:	6a1b      	ldr	r3, [r3, #32]
 8002606:	2b02      	cmp	r3, #2
 8002608:	d14c      	bne.n	80026a4 <HAL_RCC_OscConfig+0x594>
        assert_param(IS_RCC_PLLSOURCE(RCC_OscInitStruct->PLL.PLLSource));
        assert_param(IS_RCC_PLL_MUL(RCC_OscInitStruct->PLL.PLLMUL));
        assert_param(IS_RCC_PREDIV(RCC_OscInitStruct->PLL.PREDIV));
  
        /* Disable the main PLL. */
        __HAL_RCC_PLL_DISABLE();
 800260a:	4b49      	ldr	r3, [pc, #292]	; (8002730 <HAL_RCC_OscConfig+0x620>)
 800260c:	681a      	ldr	r2, [r3, #0]
 800260e:	4b48      	ldr	r3, [pc, #288]	; (8002730 <HAL_RCC_OscConfig+0x620>)
 8002610:	494a      	ldr	r1, [pc, #296]	; (800273c <HAL_RCC_OscConfig+0x62c>)
 8002612:	400a      	ands	r2, r1
 8002614:	601a      	str	r2, [r3, #0]
        
        /* Get Start Tick */
        tickstart = HAL_GetTick();
 8002616:	f7fe fb85 	bl	8000d24 <HAL_GetTick>
 800261a:	0003      	movs	r3, r0
 800261c:	61bb      	str	r3, [r7, #24]
        
        /* Wait till PLL is disabled */
        while(__HAL_RCC_GET_FLAG(RCC_FLAG_PLLRDY)  != RESET)
 800261e:	e008      	b.n	8002632 <HAL_RCC_OscConfig+0x522>
        {
          if((HAL_GetTick() - tickstart ) > PLL_TIMEOUT_VALUE)
 8002620:	f7fe fb80 	bl	8000d24 <HAL_GetTick>
 8002624:	0002      	movs	r2, r0
 8002626:	69bb      	ldr	r3, [r7, #24]
 8002628:	1ad3      	subs	r3, r2, r3
 800262a:	2b02      	cmp	r3, #2
 800262c:	d901      	bls.n	8002632 <HAL_RCC_OscConfig+0x522>
          {
            return HAL_TIMEOUT;
 800262e:	2303      	movs	r3, #3
 8002630:	e079      	b.n	8002726 <HAL_RCC_OscConfig+0x616>
        while(__HAL_RCC_GET_FLAG(RCC_FLAG_PLLRDY)  != RESET)
 8002632:	4b3f      	ldr	r3, [pc, #252]	; (8002730 <HAL_RCC_OscConfig+0x620>)
 8002634:	681a      	ldr	r2, [r3, #0]
 8002636:	2380      	movs	r3, #128	; 0x80
 8002638:	049b      	lsls	r3, r3, #18
 800263a:	4013      	ands	r3, r2
 800263c:	d1f0      	bne.n	8002620 <HAL_RCC_OscConfig+0x510>
          }
        }

        /* Configure the main PLL clock source, predivider and multiplication factor. */
        __HAL_RCC_PLL_CONFIG(RCC_OscInitStruct->PLL.PLLSource,
 800263e:	4b3c      	ldr	r3, [pc, #240]	; (8002730 <HAL_RCC_OscConfig+0x620>)
 8002640:	6adb      	ldr	r3, [r3, #44]	; 0x2c
 8002642:	220f      	movs	r2, #15
 8002644:	4393      	bics	r3, r2
 8002646:	0019      	movs	r1, r3
 8002648:	687b      	ldr	r3, [r7, #4]
 800264a:	6ada      	ldr	r2, [r3, #44]	; 0x2c
 800264c:	4b38      	ldr	r3, [pc, #224]	; (8002730 <HAL_RCC_OscConfig+0x620>)
 800264e:	430a      	orrs	r2, r1
 8002650:	62da      	str	r2, [r3, #44]	; 0x2c
 8002652:	4b37      	ldr	r3, [pc, #220]	; (8002730 <HAL_RCC_OscConfig+0x620>)
 8002654:	685b      	ldr	r3, [r3, #4]
 8002656:	4a3a      	ldr	r2, [pc, #232]	; (8002740 <HAL_RCC_OscConfig+0x630>)
 8002658:	4013      	ands	r3, r2
 800265a:	0019      	movs	r1, r3
 800265c:	687b      	ldr	r3, [r7, #4]
 800265e:	6a9a      	ldr	r2, [r3, #40]	; 0x28
 8002660:	687b      	ldr	r3, [r7, #4]
 8002662:	6a5b      	ldr	r3, [r3, #36]	; 0x24
 8002664:	431a      	orrs	r2, r3
 8002666:	4b32      	ldr	r3, [pc, #200]	; (8002730 <HAL_RCC_OscConfig+0x620>)
 8002668:	430a      	orrs	r2, r1
 800266a:	605a      	str	r2, [r3, #4]
                             RCC_OscInitStruct->PLL.PREDIV,
                             RCC_OscInitStruct->PLL.PLLMUL);
        /* Enable the main PLL. */
        __HAL_RCC_PLL_ENABLE();
 800266c:	4b30      	ldr	r3, [pc, #192]	; (8002730 <HAL_RCC_OscConfig+0x620>)
 800266e:	681a      	ldr	r2, [r3, #0]
 8002670:	4b2f      	ldr	r3, [pc, #188]	; (8002730 <HAL_RCC_OscConfig+0x620>)
 8002672:	2180      	movs	r1, #128	; 0x80
 8002674:	0449      	lsls	r1, r1, #17
 8002676:	430a      	orrs	r2, r1
 8002678:	601a      	str	r2, [r3, #0]
        
        /* Get Start Tick */
        tickstart = HAL_GetTick();
 800267a:	f7fe fb53 	bl	8000d24 <HAL_GetTick>
 800267e:	0003      	movs	r3, r0
 8002680:	61bb      	str	r3, [r7, #24]
        
        /* Wait till PLL is ready */
        while(__HAL_RCC_GET_FLAG(RCC_FLAG_PLLRDY)  == RESET)
 8002682:	e008      	b.n	8002696 <HAL_RCC_OscConfig+0x586>
        {
          if((HAL_GetTick() - tickstart ) > PLL_TIMEOUT_VALUE)
 8002684:	f7fe fb4e 	bl	8000d24 <HAL_GetTick>
 8002688:	0002      	movs	r2, r0
 800268a:	69bb      	ldr	r3, [r7, #24]
 800268c:	1ad3      	subs	r3, r2, r3
 800268e:	2b02      	cmp	r3, #2
 8002690:	d901      	bls.n	8002696 <HAL_RCC_OscConfig+0x586>
          {
            return HAL_TIMEOUT;
 8002692:	2303      	movs	r3, #3
 8002694:	e047      	b.n	8002726 <HAL_RCC_OscConfig+0x616>
        while(__HAL_RCC_GET_FLAG(RCC_FLAG_PLLRDY)  == RESET)
 8002696:	4b26      	ldr	r3, [pc, #152]	; (8002730 <HAL_RCC_OscConfig+0x620>)
 8002698:	681a      	ldr	r2, [r3, #0]
 800269a:	2380      	movs	r3, #128	; 0x80
 800269c:	049b      	lsls	r3, r3, #18
 800269e:	4013      	ands	r3, r2
 80026a0:	d0f0      	beq.n	8002684 <HAL_RCC_OscConfig+0x574>
 80026a2:	e03f      	b.n	8002724 <HAL_RCC_OscConfig+0x614>
        }
      }
      else
      {
        /* Disable the main PLL. */
        __HAL_RCC_PLL_DISABLE();
 80026a4:	4b22      	ldr	r3, [pc, #136]	; (8002730 <HAL_RCC_OscConfig+0x620>)
 80026a6:	681a      	ldr	r2, [r3, #0]
 80026a8:	4b21      	ldr	r3, [pc, #132]	; (8002730 <HAL_RCC_OscConfig+0x620>)
 80026aa:	4924      	ldr	r1, [pc, #144]	; (800273c <HAL_RCC_OscConfig+0x62c>)
 80026ac:	400a      	ands	r2, r1
 80026ae:	601a      	str	r2, [r3, #0]
 
        /* Get Start Tick */
        tickstart = HAL_GetTick();
 80026b0:	f7fe fb38 	bl	8000d24 <HAL_GetTick>
 80026b4:	0003      	movs	r3, r0
 80026b6:	61bb      	str	r3, [r7, #24]
        
        /* Wait till PLL is disabled */  
        while(__HAL_RCC_GET_FLAG(RCC_FLAG_PLLRDY)  != RESET)
 80026b8:	e008      	b.n	80026cc <HAL_RCC_OscConfig+0x5bc>
        {
          if((HAL_GetTick() - tickstart ) > PLL_TIMEOUT_VALUE)
 80026ba:	f7fe fb33 	bl	8000d24 <HAL_GetTick>
 80026be:	0002      	movs	r2, r0
 80026c0:	69bb      	ldr	r3, [r7, #24]
 80026c2:	1ad3      	subs	r3, r2, r3
 80026c4:	2b02      	cmp	r3, #2
 80026c6:	d901      	bls.n	80026cc <HAL_RCC_OscConfig+0x5bc>
          {
            return HAL_TIMEOUT;
 80026c8:	2303      	movs	r3, #3
 80026ca:	e02c      	b.n	8002726 <HAL_RCC_OscConfig+0x616>
        while(__HAL_RCC_GET_FLAG(RCC_FLAG_PLLRDY)  != RESET)
 80026cc:	4b18      	ldr	r3, [pc, #96]	; (8002730 <HAL_RCC_OscConfig+0x620>)
 80026ce:	681a      	ldr	r2, [r3, #0]
 80026d0:	2380      	movs	r3, #128	; 0x80
 80026d2:	049b      	lsls	r3, r3, #18
 80026d4:	4013      	ands	r3, r2
 80026d6:	d1f0      	bne.n	80026ba <HAL_RCC_OscConfig+0x5aa>
 80026d8:	e024      	b.n	8002724 <HAL_RCC_OscConfig+0x614>
      }
    }
    else
    {
      /* Check if there is a request to disable the PLL used as System clock source */
      if((RCC_OscInitStruct->PLL.PLLState) == RCC_PLL_OFF)
 80026da:	687b      	ldr	r3, [r7, #4]
 80026dc:	6a1b      	ldr	r3, [r3, #32]
 80026de:	2b01      	cmp	r3, #1
 80026e0:	d101      	bne.n	80026e6 <HAL_RCC_OscConfig+0x5d6>
      {
        return HAL_ERROR;
 80026e2:	2301      	movs	r3, #1
 80026e4:	e01f      	b.n	8002726 <HAL_RCC_OscConfig+0x616>
      }
      else
      {
        /* Do not return HAL_ERROR if request repeats the current configuration */
        pll_config  = RCC->CFGR;
 80026e6:	4b12      	ldr	r3, [pc, #72]	; (8002730 <HAL_RCC_OscConfig+0x620>)
 80026e8:	685b      	ldr	r3, [r3, #4]
 80026ea:	617b      	str	r3, [r7, #20]
        pll_config2 = RCC->CFGR2;
 80026ec:	4b10      	ldr	r3, [pc, #64]	; (8002730 <HAL_RCC_OscConfig+0x620>)
 80026ee:	6adb      	ldr	r3, [r3, #44]	; 0x2c
 80026f0:	613b      	str	r3, [r7, #16]
        if((READ_BIT(pll_config,  RCC_CFGR_PLLSRC)  != RCC_OscInitStruct->PLL.PLLSource) ||
 80026f2:	697a      	ldr	r2, [r7, #20]
 80026f4:	2380      	movs	r3, #128	; 0x80
 80026f6:	025b      	lsls	r3, r3, #9
 80026f8:	401a      	ands	r2, r3
 80026fa:	687b      	ldr	r3, [r7, #4]
 80026fc:	6a5b      	ldr	r3, [r3, #36]	; 0x24
 80026fe:	429a      	cmp	r2, r3
 8002700:	d10e      	bne.n	8002720 <HAL_RCC_OscConfig+0x610>
           (READ_BIT(pll_config2, RCC_CFGR2_PREDIV) != RCC_OscInitStruct->PLL.PREDIV)    ||
 8002702:	693b      	ldr	r3, [r7, #16]
 8002704:	220f      	movs	r2, #15
 8002706:	401a      	ands	r2, r3
 8002708:	687b      	ldr	r3, [r7, #4]
 800270a:	6adb      	ldr	r3, [r3, #44]	; 0x2c
        if((READ_BIT(pll_config,  RCC_CFGR_PLLSRC)  != RCC_OscInitStruct->PLL.PLLSource) ||
 800270c:	429a      	cmp	r2, r3
 800270e:	d107      	bne.n	8002720 <HAL_RCC_OscConfig+0x610>
           (READ_BIT(pll_config,  RCC_CFGR_PLLMUL)  != RCC_OscInitStruct->PLL.PLLMUL))
 8002710:	697a      	ldr	r2, [r7, #20]
 8002712:	23f0      	movs	r3, #240	; 0xf0
 8002714:	039b      	lsls	r3, r3, #14
 8002716:	401a      	ands	r2, r3
 8002718:	687b      	ldr	r3, [r7, #4]
 800271a:	6a9b      	ldr	r3, [r3, #40]	; 0x28
           (READ_BIT(pll_config2, RCC_CFGR2_PREDIV) != RCC_OscInitStruct->PLL.PREDIV)    ||
 800271c:	429a      	cmp	r2, r3
 800271e:	d001      	beq.n	8002724 <HAL_RCC_OscConfig+0x614>
        {
          return HAL_ERROR;
 8002720:	2301      	movs	r3, #1
 8002722:	e000      	b.n	8002726 <HAL_RCC_OscConfig+0x616>
        }
      }
    }
  }

  return HAL_OK;
 8002724:	2300      	movs	r3, #0
}
 8002726:	0018      	movs	r0, r3
 8002728:	46bd      	mov	sp, r7
 800272a:	b008      	add	sp, #32
 800272c:	bd80      	pop	{r7, pc}
 800272e:	46c0      	nop			; (mov r8, r8)
 8002730:	40021000 	.word	0x40021000
 8002734:	00001388 	.word	0x00001388
 8002738:	efffffff 	.word	0xefffffff
 800273c:	feffffff 	.word	0xfeffffff
 8002740:	ffc2ffff 	.word	0xffc2ffff

08002744 <HAL_RCC_ClockConfig>:
  *         You can use @ref HAL_RCC_GetClockConfig() function to know which clock is
  *         currently used as system clock source.
  * @retval HAL status
  */
HAL_StatusTypeDef HAL_RCC_ClockConfig(RCC_ClkInitTypeDef  *RCC_ClkInitStruct, uint32_t FLatency)
{
 8002744:	b580      	push	{r7, lr}
 8002746:	b084      	sub	sp, #16
 8002748:	af00      	add	r7, sp, #0
 800274a:	6078      	str	r0, [r7, #4]
 800274c:	6039      	str	r1, [r7, #0]
  uint32_t tickstart;

  /* Check Null pointer */
  if(RCC_ClkInitStruct == NULL)
 800274e:	687b      	ldr	r3, [r7, #4]
 8002750:	2b00      	cmp	r3, #0
 8002752:	d101      	bne.n	8002758 <HAL_RCC_ClockConfig+0x14>
  {
    return HAL_ERROR;
 8002754:	2301      	movs	r3, #1
 8002756:	e0b3      	b.n	80028c0 <HAL_RCC_ClockConfig+0x17c>
  /* To correctly read data from FLASH memory, the number of wait states (LATENCY) 
  must be correctly programmed according to the frequency of the CPU clock 
    (HCLK) of the device. */

  /* Increasing the number of wait states because of higher CPU frequency */
  if(FLatency > __HAL_FLASH_GET_LATENCY())
 8002758:	4b5b      	ldr	r3, [pc, #364]	; (80028c8 <HAL_RCC_ClockConfig+0x184>)
 800275a:	681b      	ldr	r3, [r3, #0]
 800275c:	2201      	movs	r2, #1
 800275e:	4013      	ands	r3, r2
 8002760:	683a      	ldr	r2, [r7, #0]
 8002762:	429a      	cmp	r2, r3
 8002764:	d911      	bls.n	800278a <HAL_RCC_ClockConfig+0x46>
  {    
    /* Program the new number of wait states to the LATENCY bits in the FLASH_ACR register */
    __HAL_FLASH_SET_LATENCY(FLatency);
 8002766:	4b58      	ldr	r3, [pc, #352]	; (80028c8 <HAL_RCC_ClockConfig+0x184>)
 8002768:	681b      	ldr	r3, [r3, #0]
 800276a:	2201      	movs	r2, #1
 800276c:	4393      	bics	r3, r2
 800276e:	0019      	movs	r1, r3
 8002770:	4b55      	ldr	r3, [pc, #340]	; (80028c8 <HAL_RCC_ClockConfig+0x184>)
 8002772:	683a      	ldr	r2, [r7, #0]
 8002774:	430a      	orrs	r2, r1
 8002776:	601a      	str	r2, [r3, #0]
    
    /* Check that the new number of wait states is taken into account to access the Flash
    memory by reading the FLASH_ACR register */
    if(__HAL_FLASH_GET_LATENCY() != FLatency)
 8002778:	4b53      	ldr	r3, [pc, #332]	; (80028c8 <HAL_RCC_ClockConfig+0x184>)
 800277a:	681b      	ldr	r3, [r3, #0]
 800277c:	2201      	movs	r2, #1
 800277e:	4013      	ands	r3, r2
 8002780:	683a      	ldr	r2, [r7, #0]
 8002782:	429a      	cmp	r2, r3
 8002784:	d001      	beq.n	800278a <HAL_RCC_ClockConfig+0x46>
    {
      return HAL_ERROR;
 8002786:	2301      	movs	r3, #1
 8002788:	e09a      	b.n	80028c0 <HAL_RCC_ClockConfig+0x17c>
    }
  }

  /*-------------------------- HCLK Configuration --------------------------*/
  if(((RCC_ClkInitStruct->ClockType) & RCC_CLOCKTYPE_HCLK) == RCC_CLOCKTYPE_HCLK)
 800278a:	687b      	ldr	r3, [r7, #4]
 800278c:	681b      	ldr	r3, [r3, #0]
 800278e:	2202      	movs	r2, #2
 8002790:	4013      	ands	r3, r2
 8002792:	d015      	beq.n	80027c0 <HAL_RCC_ClockConfig+0x7c>
  {
    /* Set the highest APB divider in order to ensure that we do not go through
       a non-spec phase whatever we decrease or increase HCLK. */
    if(((RCC_ClkInitStruct->ClockType) & RCC_CLOCKTYPE_PCLK1) == RCC_CLOCKTYPE_PCLK1)
 8002794:	687b      	ldr	r3, [r7, #4]
 8002796:	681b      	ldr	r3, [r3, #0]
 8002798:	2204      	movs	r2, #4
 800279a:	4013      	ands	r3, r2
 800279c:	d006      	beq.n	80027ac <HAL_RCC_ClockConfig+0x68>
    {
      MODIFY_REG(RCC->CFGR, RCC_CFGR_PPRE, RCC_HCLK_DIV16);
 800279e:	4b4b      	ldr	r3, [pc, #300]	; (80028cc <HAL_RCC_ClockConfig+0x188>)
 80027a0:	685a      	ldr	r2, [r3, #4]
 80027a2:	4b4a      	ldr	r3, [pc, #296]	; (80028cc <HAL_RCC_ClockConfig+0x188>)
 80027a4:	21e0      	movs	r1, #224	; 0xe0
 80027a6:	00c9      	lsls	r1, r1, #3
 80027a8:	430a      	orrs	r2, r1
 80027aa:	605a      	str	r2, [r3, #4]
    }

    /* Set the new HCLK clock divider */
    assert_param(IS_RCC_HCLK(RCC_ClkInitStruct->AHBCLKDivider));
    MODIFY_REG(RCC->CFGR, RCC_CFGR_HPRE, RCC_ClkInitStruct->AHBCLKDivider);
 80027ac:	4b47      	ldr	r3, [pc, #284]	; (80028cc <HAL_RCC_ClockConfig+0x188>)
 80027ae:	685b      	ldr	r3, [r3, #4]
 80027b0:	22f0      	movs	r2, #240	; 0xf0
 80027b2:	4393      	bics	r3, r2
 80027b4:	0019      	movs	r1, r3
 80027b6:	687b      	ldr	r3, [r7, #4]
 80027b8:	689a      	ldr	r2, [r3, #8]
 80027ba:	4b44      	ldr	r3, [pc, #272]	; (80028cc <HAL_RCC_ClockConfig+0x188>)
 80027bc:	430a      	orrs	r2, r1
 80027be:	605a      	str	r2, [r3, #4]
  }

  /*------------------------- SYSCLK Configuration ---------------------------*/ 
  if(((RCC_ClkInitStruct->ClockType) & RCC_CLOCKTYPE_SYSCLK) == RCC_CLOCKTYPE_SYSCLK)
 80027c0:	687b      	ldr	r3, [r7, #4]
 80027c2:	681b      	ldr	r3, [r3, #0]
 80027c4:	2201      	movs	r2, #1
 80027c6:	4013      	ands	r3, r2
 80027c8:	d040      	beq.n	800284c <HAL_RCC_ClockConfig+0x108>
  {
    assert_param(IS_RCC_SYSCLKSOURCE(RCC_ClkInitStruct->SYSCLKSource));
    
    /* HSE is selected as System Clock Source */
    if(RCC_ClkInitStruct->SYSCLKSource == RCC_SYSCLKSOURCE_HSE)
 80027ca:	687b      	ldr	r3, [r7, #4]
 80027cc:	685b      	ldr	r3, [r3, #4]
 80027ce:	2b01      	cmp	r3, #1
 80027d0:	d107      	bne.n	80027e2 <HAL_RCC_ClockConfig+0x9e>
    {
      /* Check the HSE ready flag */  
      if(__HAL_RCC_GET_FLAG(RCC_FLAG_HSERDY) == RESET)
 80027d2:	4b3e      	ldr	r3, [pc, #248]	; (80028cc <HAL_RCC_ClockConfig+0x188>)
 80027d4:	681a      	ldr	r2, [r3, #0]
 80027d6:	2380      	movs	r3, #128	; 0x80
 80027d8:	029b      	lsls	r3, r3, #10
 80027da:	4013      	ands	r3, r2
 80027dc:	d114      	bne.n	8002808 <HAL_RCC_ClockConfig+0xc4>
      {
        return HAL_ERROR;
 80027de:	2301      	movs	r3, #1
 80027e0:	e06e      	b.n	80028c0 <HAL_RCC_ClockConfig+0x17c>
      }
    }
    /* PLL is selected as System Clock Source */
    else if(RCC_ClkInitStruct->SYSCLKSource == RCC_SYSCLKSOURCE_PLLCLK)
 80027e2:	687b      	ldr	r3, [r7, #4]
 80027e4:	685b      	ldr	r3, [r3, #4]
 80027e6:	2b02      	cmp	r3, #2
 80027e8:	d107      	bne.n	80027fa <HAL_RCC_ClockConfig+0xb6>
    {
      /* Check the PLL ready flag */  
      if(__HAL_RCC_GET_FLAG(RCC_FLAG_PLLRDY) == RESET)
 80027ea:	4b38      	ldr	r3, [pc, #224]	; (80028cc <HAL_RCC_ClockConfig+0x188>)
 80027ec:	681a      	ldr	r2, [r3, #0]
 80027ee:	2380      	movs	r3, #128	; 0x80
 80027f0:	049b      	lsls	r3, r3, #18
 80027f2:	4013      	ands	r3, r2
 80027f4:	d108      	bne.n	8002808 <HAL_RCC_ClockConfig+0xc4>
      {
        return HAL_ERROR;
 80027f6:	2301      	movs	r3, #1
 80027f8:	e062      	b.n	80028c0 <HAL_RCC_ClockConfig+0x17c>
#endif /* RCC_CFGR_SWS_HSI48 */
    /* HSI is selected as System Clock Source */
    else
    {
      /* Check the HSI ready flag */  
      if(__HAL_RCC_GET_FLAG(RCC_FLAG_HSIRDY) == RESET)
 80027fa:	4b34      	ldr	r3, [pc, #208]	; (80028cc <HAL_RCC_ClockConfig+0x188>)
 80027fc:	681b      	ldr	r3, [r3, #0]
 80027fe:	2202      	movs	r2, #2
 8002800:	4013      	ands	r3, r2
 8002802:	d101      	bne.n	8002808 <HAL_RCC_ClockConfig+0xc4>
      {
        return HAL_ERROR;
 8002804:	2301      	movs	r3, #1
 8002806:	e05b      	b.n	80028c0 <HAL_RCC_ClockConfig+0x17c>
      }
    }
    __HAL_RCC_SYSCLK_CONFIG(RCC_ClkInitStruct->SYSCLKSource);
 8002808:	4b30      	ldr	r3, [pc, #192]	; (80028cc <HAL_RCC_ClockConfig+0x188>)
 800280a:	685b      	ldr	r3, [r3, #4]
 800280c:	2203      	movs	r2, #3
 800280e:	4393      	bics	r3, r2
 8002810:	0019      	movs	r1, r3
 8002812:	687b      	ldr	r3, [r7, #4]
 8002814:	685a      	ldr	r2, [r3, #4]
 8002816:	4b2d      	ldr	r3, [pc, #180]	; (80028cc <HAL_RCC_ClockConfig+0x188>)
 8002818:	430a      	orrs	r2, r1
 800281a:	605a      	str	r2, [r3, #4]

    /* Get Start Tick */
    tickstart = HAL_GetTick();
 800281c:	f7fe fa82 	bl	8000d24 <HAL_GetTick>
 8002820:	0003      	movs	r3, r0
 8002822:	60fb      	str	r3, [r7, #12]
    
    while (__HAL_RCC_GET_SYSCLK_SOURCE() != (RCC_ClkInitStruct->SYSCLKSource << RCC_CFGR_SWS_Pos))
 8002824:	e009      	b.n	800283a <HAL_RCC_ClockConfig+0xf6>
    {
      if((HAL_GetTick() - tickstart ) > CLOCKSWITCH_TIMEOUT_VALUE)
 8002826:	f7fe fa7d 	bl	8000d24 <HAL_GetTick>
 800282a:	0002      	movs	r2, r0
 800282c:	68fb      	ldr	r3, [r7, #12]
 800282e:	1ad3      	subs	r3, r2, r3
 8002830:	4a27      	ldr	r2, [pc, #156]	; (80028d0 <HAL_RCC_ClockConfig+0x18c>)
 8002832:	4293      	cmp	r3, r2
 8002834:	d901      	bls.n	800283a <HAL_RCC_ClockConfig+0xf6>
      {
        return HAL_TIMEOUT;
 8002836:	2303      	movs	r3, #3
 8002838:	e042      	b.n	80028c0 <HAL_RCC_ClockConfig+0x17c>
    while (__HAL_RCC_GET_SYSCLK_SOURCE() != (RCC_ClkInitStruct->SYSCLKSource << RCC_CFGR_SWS_Pos))
 800283a:	4b24      	ldr	r3, [pc, #144]	; (80028cc <HAL_RCC_ClockConfig+0x188>)
 800283c:	685b      	ldr	r3, [r3, #4]
 800283e:	220c      	movs	r2, #12
 8002840:	401a      	ands	r2, r3
 8002842:	687b      	ldr	r3, [r7, #4]
 8002844:	685b      	ldr	r3, [r3, #4]
 8002846:	009b      	lsls	r3, r3, #2
 8002848:	429a      	cmp	r2, r3
 800284a:	d1ec      	bne.n	8002826 <HAL_RCC_ClockConfig+0xe2>
      }
    }
  }

  /* Decreasing the number of wait states because of lower CPU frequency */
  if(FLatency < __HAL_FLASH_GET_LATENCY())
 800284c:	4b1e      	ldr	r3, [pc, #120]	; (80028c8 <HAL_RCC_ClockConfig+0x184>)
 800284e:	681b      	ldr	r3, [r3, #0]
 8002850:	2201      	movs	r2, #1
 8002852:	4013      	ands	r3, r2
 8002854:	683a      	ldr	r2, [r7, #0]
 8002856:	429a      	cmp	r2, r3
 8002858:	d211      	bcs.n	800287e <HAL_RCC_ClockConfig+0x13a>
  {    
    /* Program the new number of wait states to the LATENCY bits in the FLASH_ACR register */
    __HAL_FLASH_SET_LATENCY(FLatency);
 800285a:	4b1b      	ldr	r3, [pc, #108]	; (80028c8 <HAL_RCC_ClockConfig+0x184>)
 800285c:	681b      	ldr	r3, [r3, #0]
 800285e:	2201      	movs	r2, #1
 8002860:	4393      	bics	r3, r2
 8002862:	0019      	movs	r1, r3
 8002864:	4b18      	ldr	r3, [pc, #96]	; (80028c8 <HAL_RCC_ClockConfig+0x184>)
 8002866:	683a      	ldr	r2, [r7, #0]
 8002868:	430a      	orrs	r2, r1
 800286a:	601a      	str	r2, [r3, #0]
    
    /* Check that the new number of wait states is taken into account to access the Flash
    memory by reading the FLASH_ACR register */
    if(__HAL_FLASH_GET_LATENCY() != FLatency)
 800286c:	4b16      	ldr	r3, [pc, #88]	; (80028c8 <HAL_RCC_ClockConfig+0x184>)
 800286e:	681b      	ldr	r3, [r3, #0]
 8002870:	2201      	movs	r2, #1
 8002872:	4013      	ands	r3, r2
 8002874:	683a      	ldr	r2, [r7, #0]
 8002876:	429a      	cmp	r2, r3
 8002878:	d001      	beq.n	800287e <HAL_RCC_ClockConfig+0x13a>
    {
      return HAL_ERROR;
 800287a:	2301      	movs	r3, #1
 800287c:	e020      	b.n	80028c0 <HAL_RCC_ClockConfig+0x17c>
    }
  }    

  /*-------------------------- PCLK1 Configuration ---------------------------*/ 
  if(((RCC_ClkInitStruct->ClockType) & RCC_CLOCKTYPE_PCLK1) == RCC_CLOCKTYPE_PCLK1)
 800287e:	687b      	ldr	r3, [r7, #4]
 8002880:	681b      	ldr	r3, [r3, #0]
 8002882:	2204      	movs	r2, #4
 8002884:	4013      	ands	r3, r2
 8002886:	d009      	beq.n	800289c <HAL_RCC_ClockConfig+0x158>
  {
    assert_param(IS_RCC_PCLK(RCC_ClkInitStruct->APB1CLKDivider));
    MODIFY_REG(RCC->CFGR, RCC_CFGR_PPRE, RCC_ClkInitStruct->APB1CLKDivider);
 8002888:	4b10      	ldr	r3, [pc, #64]	; (80028cc <HAL_RCC_ClockConfig+0x188>)
 800288a:	685b      	ldr	r3, [r3, #4]
 800288c:	4a11      	ldr	r2, [pc, #68]	; (80028d4 <HAL_RCC_ClockConfig+0x190>)
 800288e:	4013      	ands	r3, r2
 8002890:	0019      	movs	r1, r3
 8002892:	687b      	ldr	r3, [r7, #4]
 8002894:	68da      	ldr	r2, [r3, #12]
 8002896:	4b0d      	ldr	r3, [pc, #52]	; (80028cc <HAL_RCC_ClockConfig+0x188>)
 8002898:	430a      	orrs	r2, r1
 800289a:	605a      	str	r2, [r3, #4]
  }
  
  /* Update the SystemCoreClock global variable */
  SystemCoreClock = HAL_RCC_GetSysClockFreq() >> AHBPrescTable[(RCC->CFGR & RCC_CFGR_HPRE)>> RCC_CFGR_HPRE_BITNUMBER];
 800289c:	f000 f820 	bl	80028e0 <HAL_RCC_GetSysClockFreq>
 80028a0:	0001      	movs	r1, r0
 80028a2:	4b0a      	ldr	r3, [pc, #40]	; (80028cc <HAL_RCC_ClockConfig+0x188>)
 80028a4:	685b      	ldr	r3, [r3, #4]
 80028a6:	091b      	lsrs	r3, r3, #4
 80028a8:	220f      	movs	r2, #15
 80028aa:	4013      	ands	r3, r2
 80028ac:	4a0a      	ldr	r2, [pc, #40]	; (80028d8 <HAL_RCC_ClockConfig+0x194>)
 80028ae:	5cd3      	ldrb	r3, [r2, r3]
 80028b0:	000a      	movs	r2, r1
 80028b2:	40da      	lsrs	r2, r3
 80028b4:	4b09      	ldr	r3, [pc, #36]	; (80028dc <HAL_RCC_ClockConfig+0x198>)
 80028b6:	601a      	str	r2, [r3, #0]

  /* Configure the source of time base considering new system clocks settings*/
  HAL_InitTick (TICK_INT_PRIORITY);
 80028b8:	2000      	movs	r0, #0
 80028ba:	f7fe f9ed 	bl	8000c98 <HAL_InitTick>
  
  return HAL_OK;
 80028be:	2300      	movs	r3, #0
}
 80028c0:	0018      	movs	r0, r3
 80028c2:	46bd      	mov	sp, r7
 80028c4:	b004      	add	sp, #16
 80028c6:	bd80      	pop	{r7, pc}
 80028c8:	40022000 	.word	0x40022000
 80028cc:	40021000 	.word	0x40021000
 80028d0:	00001388 	.word	0x00001388
 80028d4:	fffff8ff 	.word	0xfffff8ff
 80028d8:	08004fe0 	.word	0x08004fe0
 80028dc:	20000004 	.word	0x20000004

080028e0 <HAL_RCC_GetSysClockFreq>:
  *         right SYSCLK value. Otherwise, any configuration based on this function will be incorrect.
  *         
  * @retval SYSCLK frequency
  */
uint32_t HAL_RCC_GetSysClockFreq(void)
{
 80028e0:	b590      	push	{r4, r7, lr}
 80028e2:	b08f      	sub	sp, #60	; 0x3c
 80028e4:	af00      	add	r7, sp, #0
  const uint8_t aPLLMULFactorTable[16] = { 2U,  3U,  4U,  5U,  6U,  7U,  8U,  9U,
 80028e6:	2314      	movs	r3, #20
 80028e8:	18fb      	adds	r3, r7, r3
 80028ea:	4a2b      	ldr	r2, [pc, #172]	; (8002998 <HAL_RCC_GetSysClockFreq+0xb8>)
 80028ec:	ca13      	ldmia	r2!, {r0, r1, r4}
 80028ee:	c313      	stmia	r3!, {r0, r1, r4}
 80028f0:	6812      	ldr	r2, [r2, #0]
 80028f2:	601a      	str	r2, [r3, #0]
                                         10U, 11U, 12U, 13U, 14U, 15U, 16U, 16U};
  const uint8_t aPredivFactorTable[16] = { 1U, 2U,  3U,  4U,  5U,  6U,  7U,  8U,
 80028f4:	1d3b      	adds	r3, r7, #4
 80028f6:	4a29      	ldr	r2, [pc, #164]	; (800299c <HAL_RCC_GetSysClockFreq+0xbc>)
 80028f8:	ca13      	ldmia	r2!, {r0, r1, r4}
 80028fa:	c313      	stmia	r3!, {r0, r1, r4}
 80028fc:	6812      	ldr	r2, [r2, #0]
 80028fe:	601a      	str	r2, [r3, #0]
                                           9U,10U, 11U, 12U, 13U, 14U, 15U, 16U};

  uint32_t tmpreg = 0U, prediv = 0U, pllclk = 0U, pllmul = 0U;
 8002900:	2300      	movs	r3, #0
 8002902:	62fb      	str	r3, [r7, #44]	; 0x2c
 8002904:	2300      	movs	r3, #0
 8002906:	62bb      	str	r3, [r7, #40]	; 0x28
 8002908:	2300      	movs	r3, #0
 800290a:	637b      	str	r3, [r7, #52]	; 0x34
 800290c:	2300      	movs	r3, #0
 800290e:	627b      	str	r3, [r7, #36]	; 0x24
  uint32_t sysclockfreq = 0U;
 8002910:	2300      	movs	r3, #0
 8002912:	633b      	str	r3, [r7, #48]	; 0x30
  
  tmpreg = RCC->CFGR;
 8002914:	4b22      	ldr	r3, [pc, #136]	; (80029a0 <HAL_RCC_GetSysClockFreq+0xc0>)
 8002916:	685b      	ldr	r3, [r3, #4]
 8002918:	62fb      	str	r3, [r7, #44]	; 0x2c
  
  /* Get SYSCLK source -------------------------------------------------------*/
  switch (tmpreg & RCC_CFGR_SWS)
 800291a:	6afb      	ldr	r3, [r7, #44]	; 0x2c
 800291c:	220c      	movs	r2, #12
 800291e:	4013      	ands	r3, r2
 8002920:	2b04      	cmp	r3, #4
 8002922:	d002      	beq.n	800292a <HAL_RCC_GetSysClockFreq+0x4a>
 8002924:	2b08      	cmp	r3, #8
 8002926:	d003      	beq.n	8002930 <HAL_RCC_GetSysClockFreq+0x50>
 8002928:	e02d      	b.n	8002986 <HAL_RCC_GetSysClockFreq+0xa6>
  {
    case RCC_SYSCLKSOURCE_STATUS_HSE:  /* HSE used as system clock */
    {
      sysclockfreq = HSE_VALUE;
 800292a:	4b1e      	ldr	r3, [pc, #120]	; (80029a4 <HAL_RCC_GetSysClockFreq+0xc4>)
 800292c:	633b      	str	r3, [r7, #48]	; 0x30
      break;
 800292e:	e02d      	b.n	800298c <HAL_RCC_GetSysClockFreq+0xac>
    }
    case RCC_SYSCLKSOURCE_STATUS_PLLCLK:  /* PLL used as system clock */
    {
      pllmul = aPLLMULFactorTable[(uint32_t)(tmpreg & RCC_CFGR_PLLMUL) >> RCC_CFGR_PLLMUL_BITNUMBER];
 8002930:	6afb      	ldr	r3, [r7, #44]	; 0x2c
 8002932:	0c9b      	lsrs	r3, r3, #18
 8002934:	220f      	movs	r2, #15
 8002936:	4013      	ands	r3, r2
 8002938:	2214      	movs	r2, #20
 800293a:	18ba      	adds	r2, r7, r2
 800293c:	5cd3      	ldrb	r3, [r2, r3]
 800293e:	627b      	str	r3, [r7, #36]	; 0x24
      prediv = aPredivFactorTable[(uint32_t)(RCC->CFGR2 & RCC_CFGR2_PREDIV) >> RCC_CFGR2_PREDIV_BITNUMBER];
 8002940:	4b17      	ldr	r3, [pc, #92]	; (80029a0 <HAL_RCC_GetSysClockFreq+0xc0>)
 8002942:	6adb      	ldr	r3, [r3, #44]	; 0x2c
 8002944:	220f      	movs	r2, #15
 8002946:	4013      	ands	r3, r2
 8002948:	1d3a      	adds	r2, r7, #4
 800294a:	5cd3      	ldrb	r3, [r2, r3]
 800294c:	62bb      	str	r3, [r7, #40]	; 0x28
      if ((tmpreg & RCC_CFGR_PLLSRC) == RCC_PLLSOURCE_HSE)
 800294e:	6afa      	ldr	r2, [r7, #44]	; 0x2c
 8002950:	2380      	movs	r3, #128	; 0x80
 8002952:	025b      	lsls	r3, r3, #9
 8002954:	4013      	ands	r3, r2
 8002956:	d009      	beq.n	800296c <HAL_RCC_GetSysClockFreq+0x8c>
      {
        /* HSE used as PLL clock source : PLLCLK = HSE/PREDIV * PLLMUL */
        pllclk = (uint32_t)((uint64_t) HSE_VALUE / (uint64_t) (prediv)) * ((uint64_t) pllmul);
 8002958:	6ab9      	ldr	r1, [r7, #40]	; 0x28
 800295a:	4812      	ldr	r0, [pc, #72]	; (80029a4 <HAL_RCC_GetSysClockFreq+0xc4>)
 800295c:	f7fd fbde 	bl	800011c <__udivsi3>
 8002960:	0003      	movs	r3, r0
 8002962:	001a      	movs	r2, r3
 8002964:	6a7b      	ldr	r3, [r7, #36]	; 0x24
 8002966:	4353      	muls	r3, r2
 8002968:	637b      	str	r3, [r7, #52]	; 0x34
 800296a:	e009      	b.n	8002980 <HAL_RCC_GetSysClockFreq+0xa0>
#if  (defined(STM32F042x6) || defined(STM32F048xx) || defined(STM32F070x6) || defined(STM32F071xB) || defined(STM32F072xB) || defined(STM32F078xx) || defined(STM32F070xB) || defined(STM32F091xC) || defined(STM32F098xx) || defined(STM32F030xC))
        /* HSI used as PLL clock source : PLLCLK = HSI/PREDIV * PLLMUL */
        pllclk = (uint32_t)((uint64_t) HSI_VALUE / (uint64_t) (prediv)) * ((uint64_t) pllmul);
#else
        /* HSI used as PLL clock source : PLLCLK = HSI/2 * PLLMUL */
        pllclk = (uint32_t)((uint64_t) (HSI_VALUE >> 1U) * ((uint64_t) pllmul));
 800296c:	6a79      	ldr	r1, [r7, #36]	; 0x24
 800296e:	000a      	movs	r2, r1
 8002970:	0152      	lsls	r2, r2, #5
 8002972:	1a52      	subs	r2, r2, r1
 8002974:	0193      	lsls	r3, r2, #6
 8002976:	1a9b      	subs	r3, r3, r2
 8002978:	00db      	lsls	r3, r3, #3
 800297a:	185b      	adds	r3, r3, r1
 800297c:	021b      	lsls	r3, r3, #8
 800297e:	637b      	str	r3, [r7, #52]	; 0x34
#endif
      }
      sysclockfreq = pllclk;
 8002980:	6b7b      	ldr	r3, [r7, #52]	; 0x34
 8002982:	633b      	str	r3, [r7, #48]	; 0x30
      break;
 8002984:	e002      	b.n	800298c <HAL_RCC_GetSysClockFreq+0xac>
    }
#endif /* RCC_CFGR_SWS_HSI48 */
    case RCC_SYSCLKSOURCE_STATUS_HSI:  /* HSI used as system clock source */
    default: /* HSI used as system clock */
    {
      sysclockfreq = HSI_VALUE;
 8002986:	4b07      	ldr	r3, [pc, #28]	; (80029a4 <HAL_RCC_GetSysClockFreq+0xc4>)
 8002988:	633b      	str	r3, [r7, #48]	; 0x30
      break;
 800298a:	46c0      	nop			; (mov r8, r8)
    }
  }
  return sysclockfreq;
 800298c:	6b3b      	ldr	r3, [r7, #48]	; 0x30
}
 800298e:	0018      	movs	r0, r3
 8002990:	46bd      	mov	sp, r7
 8002992:	b00f      	add	sp, #60	; 0x3c
 8002994:	bd90      	pop	{r4, r7, pc}
 8002996:	46c0      	nop			; (mov r8, r8)
 8002998:	08004fc0 	.word	0x08004fc0
 800299c:	08004fd0 	.word	0x08004fd0
 80029a0:	40021000 	.word	0x40021000
 80029a4:	007a1200 	.word	0x007a1200

080029a8 <HAL_RCC_GetHCLKFreq>:
  * @note   The SystemCoreClock CMSIS variable is used to store System Clock Frequency 
  *         and updated within this function
  * @retval HCLK frequency
  */
uint32_t HAL_RCC_GetHCLKFreq(void)
{
 80029a8:	b580      	push	{r7, lr}
 80029aa:	af00      	add	r7, sp, #0
  return SystemCoreClock;
 80029ac:	4b02      	ldr	r3, [pc, #8]	; (80029b8 <HAL_RCC_GetHCLKFreq+0x10>)
 80029ae:	681b      	ldr	r3, [r3, #0]
}
 80029b0:	0018      	movs	r0, r3
 80029b2:	46bd      	mov	sp, r7
 80029b4:	bd80      	pop	{r7, pc}
 80029b6:	46c0      	nop			; (mov r8, r8)
 80029b8:	20000004 	.word	0x20000004

080029bc <HAL_RCC_GetPCLK1Freq>:
  * @note   Each time PCLK1 changes, this function must be called to update the
  *         right PCLK1 value. Otherwise, any configuration based on this function will be incorrect.
  * @retval PCLK1 frequency
  */
uint32_t HAL_RCC_GetPCLK1Freq(void)
{
 80029bc:	b580      	push	{r7, lr}
 80029be:	af00      	add	r7, sp, #0
  /* Get HCLK source and Compute PCLK1 frequency ---------------------------*/
  return (HAL_RCC_GetHCLKFreq() >> APBPrescTable[(RCC->CFGR & RCC_CFGR_PPRE) >> RCC_CFGR_PPRE_BITNUMBER]);
 80029c0:	f7ff fff2 	bl	80029a8 <HAL_RCC_GetHCLKFreq>
 80029c4:	0001      	movs	r1, r0
 80029c6:	4b06      	ldr	r3, [pc, #24]	; (80029e0 <HAL_RCC_GetPCLK1Freq+0x24>)
 80029c8:	685b      	ldr	r3, [r3, #4]
 80029ca:	0a1b      	lsrs	r3, r3, #8
 80029cc:	2207      	movs	r2, #7
 80029ce:	4013      	ands	r3, r2
 80029d0:	4a04      	ldr	r2, [pc, #16]	; (80029e4 <HAL_RCC_GetPCLK1Freq+0x28>)
 80029d2:	5cd3      	ldrb	r3, [r2, r3]
 80029d4:	40d9      	lsrs	r1, r3
 80029d6:	000b      	movs	r3, r1
}    
 80029d8:	0018      	movs	r0, r3
 80029da:	46bd      	mov	sp, r7
 80029dc:	bd80      	pop	{r7, pc}
 80029de:	46c0      	nop			; (mov r8, r8)
 80029e0:	40021000 	.word	0x40021000
 80029e4:	08004ff0 	.word	0x08004ff0

080029e8 <HAL_TIM_Base_Init>:
  *         Ex: call @ref HAL_TIM_Base_DeInit() before HAL_TIM_Base_Init()
  * @param  htim TIM Base handle
  * @retval HAL status
  */
HAL_StatusTypeDef HAL_TIM_Base_Init(TIM_HandleTypeDef *htim)
{
 80029e8:	b580      	push	{r7, lr}
 80029ea:	b082      	sub	sp, #8
 80029ec:	af00      	add	r7, sp, #0
 80029ee:	6078      	str	r0, [r7, #4]
  /* Check the TIM handle allocation */
  if (htim == NULL)
 80029f0:	687b      	ldr	r3, [r7, #4]
 80029f2:	2b00      	cmp	r3, #0
 80029f4:	d101      	bne.n	80029fa <HAL_TIM_Base_Init+0x12>
  {
    return HAL_ERROR;
 80029f6:	2301      	movs	r3, #1
 80029f8:	e042      	b.n	8002a80 <HAL_TIM_Base_Init+0x98>
  assert_param(IS_TIM_INSTANCE(htim->Instance));
  assert_param(IS_TIM_COUNTER_MODE(htim->Init.CounterMode));
  assert_param(IS_TIM_CLOCKDIVISION_DIV(htim->Init.ClockDivision));
  assert_param(IS_TIM_AUTORELOAD_PRELOAD(htim->Init.AutoReloadPreload));

  if (htim->State == HAL_TIM_STATE_RESET)
 80029fa:	687b      	ldr	r3, [r7, #4]
 80029fc:	223d      	movs	r2, #61	; 0x3d
 80029fe:	5c9b      	ldrb	r3, [r3, r2]
 8002a00:	b2db      	uxtb	r3, r3
 8002a02:	2b00      	cmp	r3, #0
 8002a04:	d107      	bne.n	8002a16 <HAL_TIM_Base_Init+0x2e>
  {
    /* Allocate lock resource and initialize it */
    htim->Lock = HAL_UNLOCKED;
 8002a06:	687b      	ldr	r3, [r7, #4]
 8002a08:	223c      	movs	r2, #60	; 0x3c
 8002a0a:	2100      	movs	r1, #0
 8002a0c:	5499      	strb	r1, [r3, r2]
    }
    /* Init the low level hardware : GPIO, CLOCK, NVIC */
    htim->Base_MspInitCallback(htim);
#else
    /* Init the low level hardware : GPIO, CLOCK, NVIC */
    HAL_TIM_Base_MspInit(htim);
 8002a0e:	687b      	ldr	r3, [r7, #4]
 8002a10:	0018      	movs	r0, r3
 8002a12:	f7fd ffa3 	bl	800095c <HAL_TIM_Base_MspInit>
#endif /* USE_HAL_TIM_REGISTER_CALLBACKS */
  }

  /* Set the TIM state */
  htim->State = HAL_TIM_STATE_BUSY;
 8002a16:	687b      	ldr	r3, [r7, #4]
 8002a18:	223d      	movs	r2, #61	; 0x3d
 8002a1a:	2102      	movs	r1, #2
 8002a1c:	5499      	strb	r1, [r3, r2]

  /* Set the Time Base configuration */
  TIM_Base_SetConfig(htim->Instance, &htim->Init);
 8002a1e:	687b      	ldr	r3, [r7, #4]
 8002a20:	681a      	ldr	r2, [r3, #0]
 8002a22:	687b      	ldr	r3, [r7, #4]
 8002a24:	3304      	adds	r3, #4
 8002a26:	0019      	movs	r1, r3
 8002a28:	0010      	movs	r0, r2
 8002a2a:	f000 fad7 	bl	8002fdc <TIM_Base_SetConfig>

  /* Initialize the DMA burst operation state */
  htim->DMABurstState = HAL_DMA_BURST_STATE_READY;
 8002a2e:	687b      	ldr	r3, [r7, #4]
 8002a30:	2246      	movs	r2, #70	; 0x46
 8002a32:	2101      	movs	r1, #1
 8002a34:	5499      	strb	r1, [r3, r2]

  /* Initialize the TIM channels state */
  TIM_CHANNEL_STATE_SET_ALL(htim, HAL_TIM_CHANNEL_STATE_READY);
 8002a36:	687b      	ldr	r3, [r7, #4]
 8002a38:	223e      	movs	r2, #62	; 0x3e
 8002a3a:	2101      	movs	r1, #1
 8002a3c:	5499      	strb	r1, [r3, r2]
 8002a3e:	687b      	ldr	r3, [r7, #4]
 8002a40:	223f      	movs	r2, #63	; 0x3f
 8002a42:	2101      	movs	r1, #1
 8002a44:	5499      	strb	r1, [r3, r2]
 8002a46:	687b      	ldr	r3, [r7, #4]
 8002a48:	2240      	movs	r2, #64	; 0x40
 8002a4a:	2101      	movs	r1, #1
 8002a4c:	5499      	strb	r1, [r3, r2]
 8002a4e:	687b      	ldr	r3, [r7, #4]
 8002a50:	2241      	movs	r2, #65	; 0x41
 8002a52:	2101      	movs	r1, #1
 8002a54:	5499      	strb	r1, [r3, r2]
  TIM_CHANNEL_N_STATE_SET_ALL(htim, HAL_TIM_CHANNEL_STATE_READY);
 8002a56:	687b      	ldr	r3, [r7, #4]
 8002a58:	2242      	movs	r2, #66	; 0x42
 8002a5a:	2101      	movs	r1, #1
 8002a5c:	5499      	strb	r1, [r3, r2]
 8002a5e:	687b      	ldr	r3, [r7, #4]
 8002a60:	2243      	movs	r2, #67	; 0x43
 8002a62:	2101      	movs	r1, #1
 8002a64:	5499      	strb	r1, [r3, r2]
 8002a66:	687b      	ldr	r3, [r7, #4]
 8002a68:	2244      	movs	r2, #68	; 0x44
 8002a6a:	2101      	movs	r1, #1
 8002a6c:	5499      	strb	r1, [r3, r2]
 8002a6e:	687b      	ldr	r3, [r7, #4]
 8002a70:	2245      	movs	r2, #69	; 0x45
 8002a72:	2101      	movs	r1, #1
 8002a74:	5499      	strb	r1, [r3, r2]

  /* Initialize the TIM state*/
  htim->State = HAL_TIM_STATE_READY;
 8002a76:	687b      	ldr	r3, [r7, #4]
 8002a78:	223d      	movs	r2, #61	; 0x3d
 8002a7a:	2101      	movs	r1, #1
 8002a7c:	5499      	strb	r1, [r3, r2]

  return HAL_OK;
 8002a7e:	2300      	movs	r3, #0
}
 8002a80:	0018      	movs	r0, r3
 8002a82:	46bd      	mov	sp, r7
 8002a84:	b002      	add	sp, #8
 8002a86:	bd80      	pop	{r7, pc}

08002a88 <HAL_TIM_PWM_Init>:
  *         Ex: call @ref HAL_TIM_PWM_DeInit() before HAL_TIM_PWM_Init()
  * @param  htim TIM PWM handle
  * @retval HAL status
  */
HAL_StatusTypeDef HAL_TIM_PWM_Init(TIM_HandleTypeDef *htim)
{
 8002a88:	b580      	push	{r7, lr}
 8002a8a:	b082      	sub	sp, #8
 8002a8c:	af00      	add	r7, sp, #0
 8002a8e:	6078      	str	r0, [r7, #4]
  /* Check the TIM handle allocation */
  if (htim == NULL)
 8002a90:	687b      	ldr	r3, [r7, #4]
 8002a92:	2b00      	cmp	r3, #0
 8002a94:	d101      	bne.n	8002a9a <HAL_TIM_PWM_Init+0x12>
  {
    return HAL_ERROR;
 8002a96:	2301      	movs	r3, #1
 8002a98:	e042      	b.n	8002b20 <HAL_TIM_PWM_Init+0x98>
  assert_param(IS_TIM_INSTANCE(htim->Instance));
  assert_param(IS_TIM_COUNTER_MODE(htim->Init.CounterMode));
  assert_param(IS_TIM_CLOCKDIVISION_DIV(htim->Init.ClockDivision));
  assert_param(IS_TIM_AUTORELOAD_PRELOAD(htim->Init.AutoReloadPreload));

  if (htim->State == HAL_TIM_STATE_RESET)
 8002a9a:	687b      	ldr	r3, [r7, #4]
 8002a9c:	223d      	movs	r2, #61	; 0x3d
 8002a9e:	5c9b      	ldrb	r3, [r3, r2]
 8002aa0:	b2db      	uxtb	r3, r3
 8002aa2:	2b00      	cmp	r3, #0
 8002aa4:	d107      	bne.n	8002ab6 <HAL_TIM_PWM_Init+0x2e>
  {
    /* Allocate lock resource and initialize it */
    htim->Lock = HAL_UNLOCKED;
 8002aa6:	687b      	ldr	r3, [r7, #4]
 8002aa8:	223c      	movs	r2, #60	; 0x3c
 8002aaa:	2100      	movs	r1, #0
 8002aac:	5499      	strb	r1, [r3, r2]
    }
    /* Init the low level hardware : GPIO, CLOCK, NVIC */
    htim->PWM_MspInitCallback(htim);
#else
    /* Init the low level hardware : GPIO, CLOCK, NVIC and DMA */
    HAL_TIM_PWM_MspInit(htim);
 8002aae:	687b      	ldr	r3, [r7, #4]
 8002ab0:	0018      	movs	r0, r3
 8002ab2:	f000 f839 	bl	8002b28 <HAL_TIM_PWM_MspInit>
#endif /* USE_HAL_TIM_REGISTER_CALLBACKS */
  }

  /* Set the TIM state */
  htim->State = HAL_TIM_STATE_BUSY;
 8002ab6:	687b      	ldr	r3, [r7, #4]
 8002ab8:	223d      	movs	r2, #61	; 0x3d
 8002aba:	2102      	movs	r1, #2
 8002abc:	5499      	strb	r1, [r3, r2]

  /* Init the base time for the PWM */
  TIM_Base_SetConfig(htim->Instance, &htim->Init);
 8002abe:	687b      	ldr	r3, [r7, #4]
 8002ac0:	681a      	ldr	r2, [r3, #0]
 8002ac2:	687b      	ldr	r3, [r7, #4]
 8002ac4:	3304      	adds	r3, #4
 8002ac6:	0019      	movs	r1, r3
 8002ac8:	0010      	movs	r0, r2
 8002aca:	f000 fa87 	bl	8002fdc <TIM_Base_SetConfig>

  /* Initialize the DMA burst operation state */
  htim->DMABurstState = HAL_DMA_BURST_STATE_READY;
 8002ace:	687b      	ldr	r3, [r7, #4]
 8002ad0:	2246      	movs	r2, #70	; 0x46
 8002ad2:	2101      	movs	r1, #1
 8002ad4:	5499      	strb	r1, [r3, r2]

  /* Initialize the TIM channels state */
  TIM_CHANNEL_STATE_SET_ALL(htim, HAL_TIM_CHANNEL_STATE_READY);
 8002ad6:	687b      	ldr	r3, [r7, #4]
 8002ad8:	223e      	movs	r2, #62	; 0x3e
 8002ada:	2101      	movs	r1, #1
 8002adc:	5499      	strb	r1, [r3, r2]
 8002ade:	687b      	ldr	r3, [r7, #4]
 8002ae0:	223f      	movs	r2, #63	; 0x3f
 8002ae2:	2101      	movs	r1, #1
 8002ae4:	5499      	strb	r1, [r3, r2]
 8002ae6:	687b      	ldr	r3, [r7, #4]
 8002ae8:	2240      	movs	r2, #64	; 0x40
 8002aea:	2101      	movs	r1, #1
 8002aec:	5499      	strb	r1, [r3, r2]
 8002aee:	687b      	ldr	r3, [r7, #4]
 8002af0:	2241      	movs	r2, #65	; 0x41
 8002af2:	2101      	movs	r1, #1
 8002af4:	5499      	strb	r1, [r3, r2]
  TIM_CHANNEL_N_STATE_SET_ALL(htim, HAL_TIM_CHANNEL_STATE_READY);
 8002af6:	687b      	ldr	r3, [r7, #4]
 8002af8:	2242      	movs	r2, #66	; 0x42
 8002afa:	2101      	movs	r1, #1
 8002afc:	5499      	strb	r1, [r3, r2]
 8002afe:	687b      	ldr	r3, [r7, #4]
 8002b00:	2243      	movs	r2, #67	; 0x43
 8002b02:	2101      	movs	r1, #1
 8002b04:	5499      	strb	r1, [r3, r2]
 8002b06:	687b      	ldr	r3, [r7, #4]
 8002b08:	2244      	movs	r2, #68	; 0x44
 8002b0a:	2101      	movs	r1, #1
 8002b0c:	5499      	strb	r1, [r3, r2]
 8002b0e:	687b      	ldr	r3, [r7, #4]
 8002b10:	2245      	movs	r2, #69	; 0x45
 8002b12:	2101      	movs	r1, #1
 8002b14:	5499      	strb	r1, [r3, r2]

  /* Initialize the TIM state*/
  htim->State = HAL_TIM_STATE_READY;
 8002b16:	687b      	ldr	r3, [r7, #4]
 8002b18:	223d      	movs	r2, #61	; 0x3d
 8002b1a:	2101      	movs	r1, #1
 8002b1c:	5499      	strb	r1, [r3, r2]

  return HAL_OK;
 8002b1e:	2300      	movs	r3, #0
}
 8002b20:	0018      	movs	r0, r3
 8002b22:	46bd      	mov	sp, r7
 8002b24:	b002      	add	sp, #8
 8002b26:	bd80      	pop	{r7, pc}

08002b28 <HAL_TIM_PWM_MspInit>:
  * @brief  Initializes the TIM PWM MSP.
  * @param  htim TIM PWM handle
  * @retval None
  */
__weak void HAL_TIM_PWM_MspInit(TIM_HandleTypeDef *htim)
{
 8002b28:	b580      	push	{r7, lr}
 8002b2a:	b082      	sub	sp, #8
 8002b2c:	af00      	add	r7, sp, #0
 8002b2e:	6078      	str	r0, [r7, #4]
  UNUSED(htim);

  /* NOTE : This function should not be modified, when the callback is needed,
            the HAL_TIM_PWM_MspInit could be implemented in the user file
   */
}
 8002b30:	46c0      	nop			; (mov r8, r8)
 8002b32:	46bd      	mov	sp, r7
 8002b34:	b002      	add	sp, #8
 8002b36:	bd80      	pop	{r7, pc}

08002b38 <HAL_TIM_PWM_Start>:
  *            @arg TIM_CHANNEL_3: TIM Channel 3 selected
  *            @arg TIM_CHANNEL_4: TIM Channel 4 selected
  * @retval HAL status
  */
HAL_StatusTypeDef HAL_TIM_PWM_Start(TIM_HandleTypeDef *htim, uint32_t Channel)
{
 8002b38:	b580      	push	{r7, lr}
 8002b3a:	b084      	sub	sp, #16
 8002b3c:	af00      	add	r7, sp, #0
 8002b3e:	6078      	str	r0, [r7, #4]
 8002b40:	6039      	str	r1, [r7, #0]

  /* Check the parameters */
  assert_param(IS_TIM_CCX_INSTANCE(htim->Instance, Channel));

  /* Check the TIM channel state */
  if (TIM_CHANNEL_STATE_GET(htim, Channel) != HAL_TIM_CHANNEL_STATE_READY)
 8002b42:	683b      	ldr	r3, [r7, #0]
 8002b44:	2b00      	cmp	r3, #0
 8002b46:	d108      	bne.n	8002b5a <HAL_TIM_PWM_Start+0x22>
 8002b48:	687b      	ldr	r3, [r7, #4]
 8002b4a:	223e      	movs	r2, #62	; 0x3e
 8002b4c:	5c9b      	ldrb	r3, [r3, r2]
 8002b4e:	b2db      	uxtb	r3, r3
 8002b50:	3b01      	subs	r3, #1
 8002b52:	1e5a      	subs	r2, r3, #1
 8002b54:	4193      	sbcs	r3, r2
 8002b56:	b2db      	uxtb	r3, r3
 8002b58:	e01f      	b.n	8002b9a <HAL_TIM_PWM_Start+0x62>
 8002b5a:	683b      	ldr	r3, [r7, #0]
 8002b5c:	2b04      	cmp	r3, #4
 8002b5e:	d108      	bne.n	8002b72 <HAL_TIM_PWM_Start+0x3a>
 8002b60:	687b      	ldr	r3, [r7, #4]
 8002b62:	223f      	movs	r2, #63	; 0x3f
 8002b64:	5c9b      	ldrb	r3, [r3, r2]
 8002b66:	b2db      	uxtb	r3, r3
 8002b68:	3b01      	subs	r3, #1
 8002b6a:	1e5a      	subs	r2, r3, #1
 8002b6c:	4193      	sbcs	r3, r2
 8002b6e:	b2db      	uxtb	r3, r3
 8002b70:	e013      	b.n	8002b9a <HAL_TIM_PWM_Start+0x62>
 8002b72:	683b      	ldr	r3, [r7, #0]
 8002b74:	2b08      	cmp	r3, #8
 8002b76:	d108      	bne.n	8002b8a <HAL_TIM_PWM_Start+0x52>
 8002b78:	687b      	ldr	r3, [r7, #4]
 8002b7a:	2240      	movs	r2, #64	; 0x40
 8002b7c:	5c9b      	ldrb	r3, [r3, r2]
 8002b7e:	b2db      	uxtb	r3, r3
 8002b80:	3b01      	subs	r3, #1
 8002b82:	1e5a      	subs	r2, r3, #1
 8002b84:	4193      	sbcs	r3, r2
 8002b86:	b2db      	uxtb	r3, r3
 8002b88:	e007      	b.n	8002b9a <HAL_TIM_PWM_Start+0x62>
 8002b8a:	687b      	ldr	r3, [r7, #4]
 8002b8c:	2241      	movs	r2, #65	; 0x41
 8002b8e:	5c9b      	ldrb	r3, [r3, r2]
 8002b90:	b2db      	uxtb	r3, r3
 8002b92:	3b01      	subs	r3, #1
 8002b94:	1e5a      	subs	r2, r3, #1
 8002b96:	4193      	sbcs	r3, r2
 8002b98:	b2db      	uxtb	r3, r3
 8002b9a:	2b00      	cmp	r3, #0
 8002b9c:	d001      	beq.n	8002ba2 <HAL_TIM_PWM_Start+0x6a>
  {
    return HAL_ERROR;
 8002b9e:	2301      	movs	r3, #1
 8002ba0:	e074      	b.n	8002c8c <HAL_TIM_PWM_Start+0x154>
  }

  /* Set the TIM channel state */
  TIM_CHANNEL_STATE_SET(htim, Channel, HAL_TIM_CHANNEL_STATE_BUSY);
 8002ba2:	683b      	ldr	r3, [r7, #0]
 8002ba4:	2b00      	cmp	r3, #0
 8002ba6:	d104      	bne.n	8002bb2 <HAL_TIM_PWM_Start+0x7a>
 8002ba8:	687b      	ldr	r3, [r7, #4]
 8002baa:	223e      	movs	r2, #62	; 0x3e
 8002bac:	2102      	movs	r1, #2
 8002bae:	5499      	strb	r1, [r3, r2]
 8002bb0:	e013      	b.n	8002bda <HAL_TIM_PWM_Start+0xa2>
 8002bb2:	683b      	ldr	r3, [r7, #0]
 8002bb4:	2b04      	cmp	r3, #4
 8002bb6:	d104      	bne.n	8002bc2 <HAL_TIM_PWM_Start+0x8a>
 8002bb8:	687b      	ldr	r3, [r7, #4]
 8002bba:	223f      	movs	r2, #63	; 0x3f
 8002bbc:	2102      	movs	r1, #2
 8002bbe:	5499      	strb	r1, [r3, r2]
 8002bc0:	e00b      	b.n	8002bda <HAL_TIM_PWM_Start+0xa2>
 8002bc2:	683b      	ldr	r3, [r7, #0]
 8002bc4:	2b08      	cmp	r3, #8
 8002bc6:	d104      	bne.n	8002bd2 <HAL_TIM_PWM_Start+0x9a>
 8002bc8:	687b      	ldr	r3, [r7, #4]
 8002bca:	2240      	movs	r2, #64	; 0x40
 8002bcc:	2102      	movs	r1, #2
 8002bce:	5499      	strb	r1, [r3, r2]
 8002bd0:	e003      	b.n	8002bda <HAL_TIM_PWM_Start+0xa2>
 8002bd2:	687b      	ldr	r3, [r7, #4]
 8002bd4:	2241      	movs	r2, #65	; 0x41
 8002bd6:	2102      	movs	r1, #2
 8002bd8:	5499      	strb	r1, [r3, r2]

  /* Enable the Capture compare channel */
  TIM_CCxChannelCmd(htim->Instance, Channel, TIM_CCx_ENABLE);
 8002bda:	687b      	ldr	r3, [r7, #4]
 8002bdc:	681b      	ldr	r3, [r3, #0]
 8002bde:	6839      	ldr	r1, [r7, #0]
 8002be0:	2201      	movs	r2, #1
 8002be2:	0018      	movs	r0, r3
 8002be4:	f000 fd10 	bl	8003608 <TIM_CCxChannelCmd>

  if (IS_TIM_BREAK_INSTANCE(htim->Instance) != RESET)
 8002be8:	687b      	ldr	r3, [r7, #4]
 8002bea:	681b      	ldr	r3, [r3, #0]
 8002bec:	4a29      	ldr	r2, [pc, #164]	; (8002c94 <HAL_TIM_PWM_Start+0x15c>)
 8002bee:	4293      	cmp	r3, r2
 8002bf0:	d00e      	beq.n	8002c10 <HAL_TIM_PWM_Start+0xd8>
 8002bf2:	687b      	ldr	r3, [r7, #4]
 8002bf4:	681b      	ldr	r3, [r3, #0]
 8002bf6:	4a28      	ldr	r2, [pc, #160]	; (8002c98 <HAL_TIM_PWM_Start+0x160>)
 8002bf8:	4293      	cmp	r3, r2
 8002bfa:	d009      	beq.n	8002c10 <HAL_TIM_PWM_Start+0xd8>
 8002bfc:	687b      	ldr	r3, [r7, #4]
 8002bfe:	681b      	ldr	r3, [r3, #0]
 8002c00:	4a26      	ldr	r2, [pc, #152]	; (8002c9c <HAL_TIM_PWM_Start+0x164>)
 8002c02:	4293      	cmp	r3, r2
 8002c04:	d004      	beq.n	8002c10 <HAL_TIM_PWM_Start+0xd8>
 8002c06:	687b      	ldr	r3, [r7, #4]
 8002c08:	681b      	ldr	r3, [r3, #0]
 8002c0a:	4a25      	ldr	r2, [pc, #148]	; (8002ca0 <HAL_TIM_PWM_Start+0x168>)
 8002c0c:	4293      	cmp	r3, r2
 8002c0e:	d101      	bne.n	8002c14 <HAL_TIM_PWM_Start+0xdc>
 8002c10:	2301      	movs	r3, #1
 8002c12:	e000      	b.n	8002c16 <HAL_TIM_PWM_Start+0xde>
 8002c14:	2300      	movs	r3, #0
 8002c16:	2b00      	cmp	r3, #0
 8002c18:	d008      	beq.n	8002c2c <HAL_TIM_PWM_Start+0xf4>
  {
    /* Enable the main output */
    __HAL_TIM_MOE_ENABLE(htim);
 8002c1a:	687b      	ldr	r3, [r7, #4]
 8002c1c:	681b      	ldr	r3, [r3, #0]
 8002c1e:	6c5a      	ldr	r2, [r3, #68]	; 0x44
 8002c20:	687b      	ldr	r3, [r7, #4]
 8002c22:	681b      	ldr	r3, [r3, #0]
 8002c24:	2180      	movs	r1, #128	; 0x80
 8002c26:	0209      	lsls	r1, r1, #8
 8002c28:	430a      	orrs	r2, r1
 8002c2a:	645a      	str	r2, [r3, #68]	; 0x44
  }

  /* Enable the Peripheral, except in trigger mode where enable is automatically done with trigger */
  if (IS_TIM_SLAVE_INSTANCE(htim->Instance))
 8002c2c:	687b      	ldr	r3, [r7, #4]
 8002c2e:	681b      	ldr	r3, [r3, #0]
 8002c30:	4a18      	ldr	r2, [pc, #96]	; (8002c94 <HAL_TIM_PWM_Start+0x15c>)
 8002c32:	4293      	cmp	r3, r2
 8002c34:	d00f      	beq.n	8002c56 <HAL_TIM_PWM_Start+0x11e>
 8002c36:	687b      	ldr	r3, [r7, #4]
 8002c38:	681a      	ldr	r2, [r3, #0]
 8002c3a:	2380      	movs	r3, #128	; 0x80
 8002c3c:	05db      	lsls	r3, r3, #23
 8002c3e:	429a      	cmp	r2, r3
 8002c40:	d009      	beq.n	8002c56 <HAL_TIM_PWM_Start+0x11e>
 8002c42:	687b      	ldr	r3, [r7, #4]
 8002c44:	681b      	ldr	r3, [r3, #0]
 8002c46:	4a17      	ldr	r2, [pc, #92]	; (8002ca4 <HAL_TIM_PWM_Start+0x16c>)
 8002c48:	4293      	cmp	r3, r2
 8002c4a:	d004      	beq.n	8002c56 <HAL_TIM_PWM_Start+0x11e>
 8002c4c:	687b      	ldr	r3, [r7, #4]
 8002c4e:	681b      	ldr	r3, [r3, #0]
 8002c50:	4a11      	ldr	r2, [pc, #68]	; (8002c98 <HAL_TIM_PWM_Start+0x160>)
 8002c52:	4293      	cmp	r3, r2
 8002c54:	d111      	bne.n	8002c7a <HAL_TIM_PWM_Start+0x142>
  {
    tmpsmcr = htim->Instance->SMCR & TIM_SMCR_SMS;
 8002c56:	687b      	ldr	r3, [r7, #4]
 8002c58:	681b      	ldr	r3, [r3, #0]
 8002c5a:	689b      	ldr	r3, [r3, #8]
 8002c5c:	2207      	movs	r2, #7
 8002c5e:	4013      	ands	r3, r2
 8002c60:	60fb      	str	r3, [r7, #12]
    if (!IS_TIM_SLAVEMODE_TRIGGER_ENABLED(tmpsmcr))
 8002c62:	68fb      	ldr	r3, [r7, #12]
 8002c64:	2b06      	cmp	r3, #6
 8002c66:	d010      	beq.n	8002c8a <HAL_TIM_PWM_Start+0x152>
    {
      __HAL_TIM_ENABLE(htim);
 8002c68:	687b      	ldr	r3, [r7, #4]
 8002c6a:	681b      	ldr	r3, [r3, #0]
 8002c6c:	681a      	ldr	r2, [r3, #0]
 8002c6e:	687b      	ldr	r3, [r7, #4]
 8002c70:	681b      	ldr	r3, [r3, #0]
 8002c72:	2101      	movs	r1, #1
 8002c74:	430a      	orrs	r2, r1
 8002c76:	601a      	str	r2, [r3, #0]
    if (!IS_TIM_SLAVEMODE_TRIGGER_ENABLED(tmpsmcr))
 8002c78:	e007      	b.n	8002c8a <HAL_TIM_PWM_Start+0x152>
    }
  }
  else
  {
    __HAL_TIM_ENABLE(htim);
 8002c7a:	687b      	ldr	r3, [r7, #4]
 8002c7c:	681b      	ldr	r3, [r3, #0]
 8002c7e:	681a      	ldr	r2, [r3, #0]
 8002c80:	687b      	ldr	r3, [r7, #4]
 8002c82:	681b      	ldr	r3, [r3, #0]
 8002c84:	2101      	movs	r1, #1
 8002c86:	430a      	orrs	r2, r1
 8002c88:	601a      	str	r2, [r3, #0]
  }

  /* Return function status */
  return HAL_OK;
 8002c8a:	2300      	movs	r3, #0
}
 8002c8c:	0018      	movs	r0, r3
 8002c8e:	46bd      	mov	sp, r7
 8002c90:	b004      	add	sp, #16
 8002c92:	bd80      	pop	{r7, pc}
 8002c94:	40012c00 	.word	0x40012c00
 8002c98:	40014000 	.word	0x40014000
 8002c9c:	40014400 	.word	0x40014400
 8002ca0:	40014800 	.word	0x40014800
 8002ca4:	40000400 	.word	0x40000400

08002ca8 <HAL_TIM_PWM_ConfigChannel>:
  * @retval HAL status
  */
HAL_StatusTypeDef HAL_TIM_PWM_ConfigChannel(TIM_HandleTypeDef *htim,
                                            TIM_OC_InitTypeDef *sConfig,
                                            uint32_t Channel)
{
 8002ca8:	b580      	push	{r7, lr}
 8002caa:	b086      	sub	sp, #24
 8002cac:	af00      	add	r7, sp, #0
 8002cae:	60f8      	str	r0, [r7, #12]
 8002cb0:	60b9      	str	r1, [r7, #8]
 8002cb2:	607a      	str	r2, [r7, #4]
  HAL_StatusTypeDef status = HAL_OK;
 8002cb4:	2317      	movs	r3, #23
 8002cb6:	18fb      	adds	r3, r7, r3
 8002cb8:	2200      	movs	r2, #0
 8002cba:	701a      	strb	r2, [r3, #0]
  assert_param(IS_TIM_PWM_MODE(sConfig->OCMode));
  assert_param(IS_TIM_OC_POLARITY(sConfig->OCPolarity));
  assert_param(IS_TIM_FAST_STATE(sConfig->OCFastMode));

  /* Process Locked */
  __HAL_LOCK(htim);
 8002cbc:	68fb      	ldr	r3, [r7, #12]
 8002cbe:	223c      	movs	r2, #60	; 0x3c
 8002cc0:	5c9b      	ldrb	r3, [r3, r2]
 8002cc2:	2b01      	cmp	r3, #1
 8002cc4:	d101      	bne.n	8002cca <HAL_TIM_PWM_ConfigChannel+0x22>
 8002cc6:	2302      	movs	r3, #2
 8002cc8:	e0ad      	b.n	8002e26 <HAL_TIM_PWM_ConfigChannel+0x17e>
 8002cca:	68fb      	ldr	r3, [r7, #12]
 8002ccc:	223c      	movs	r2, #60	; 0x3c
 8002cce:	2101      	movs	r1, #1
 8002cd0:	5499      	strb	r1, [r3, r2]

  switch (Channel)
 8002cd2:	687b      	ldr	r3, [r7, #4]
 8002cd4:	2b0c      	cmp	r3, #12
 8002cd6:	d100      	bne.n	8002cda <HAL_TIM_PWM_ConfigChannel+0x32>
 8002cd8:	e076      	b.n	8002dc8 <HAL_TIM_PWM_ConfigChannel+0x120>
 8002cda:	687b      	ldr	r3, [r7, #4]
 8002cdc:	2b0c      	cmp	r3, #12
 8002cde:	d900      	bls.n	8002ce2 <HAL_TIM_PWM_ConfigChannel+0x3a>
 8002ce0:	e095      	b.n	8002e0e <HAL_TIM_PWM_ConfigChannel+0x166>
 8002ce2:	687b      	ldr	r3, [r7, #4]
 8002ce4:	2b08      	cmp	r3, #8
 8002ce6:	d04e      	beq.n	8002d86 <HAL_TIM_PWM_ConfigChannel+0xde>
 8002ce8:	687b      	ldr	r3, [r7, #4]
 8002cea:	2b08      	cmp	r3, #8
 8002cec:	d900      	bls.n	8002cf0 <HAL_TIM_PWM_ConfigChannel+0x48>
 8002cee:	e08e      	b.n	8002e0e <HAL_TIM_PWM_ConfigChannel+0x166>
 8002cf0:	687b      	ldr	r3, [r7, #4]
 8002cf2:	2b00      	cmp	r3, #0
 8002cf4:	d003      	beq.n	8002cfe <HAL_TIM_PWM_ConfigChannel+0x56>
 8002cf6:	687b      	ldr	r3, [r7, #4]
 8002cf8:	2b04      	cmp	r3, #4
 8002cfa:	d021      	beq.n	8002d40 <HAL_TIM_PWM_ConfigChannel+0x98>
 8002cfc:	e087      	b.n	8002e0e <HAL_TIM_PWM_ConfigChannel+0x166>
    {
      /* Check the parameters */
      assert_param(IS_TIM_CC1_INSTANCE(htim->Instance));

      /* Configure the Channel 1 in PWM mode */
      TIM_OC1_SetConfig(htim->Instance, sConfig);
 8002cfe:	68fb      	ldr	r3, [r7, #12]
 8002d00:	681b      	ldr	r3, [r3, #0]
 8002d02:	68ba      	ldr	r2, [r7, #8]
 8002d04:	0011      	movs	r1, r2
 8002d06:	0018      	movs	r0, r3
 8002d08:	f000 f9e8 	bl	80030dc <TIM_OC1_SetConfig>

      /* Set the Preload enable bit for channel1 */
      htim->Instance->CCMR1 |= TIM_CCMR1_OC1PE;
 8002d0c:	68fb      	ldr	r3, [r7, #12]
 8002d0e:	681b      	ldr	r3, [r3, #0]
 8002d10:	699a      	ldr	r2, [r3, #24]
 8002d12:	68fb      	ldr	r3, [r7, #12]
 8002d14:	681b      	ldr	r3, [r3, #0]
 8002d16:	2108      	movs	r1, #8
 8002d18:	430a      	orrs	r2, r1
 8002d1a:	619a      	str	r2, [r3, #24]

      /* Configure the Output Fast mode */
      htim->Instance->CCMR1 &= ~TIM_CCMR1_OC1FE;
 8002d1c:	68fb      	ldr	r3, [r7, #12]
 8002d1e:	681b      	ldr	r3, [r3, #0]
 8002d20:	699a      	ldr	r2, [r3, #24]
 8002d22:	68fb      	ldr	r3, [r7, #12]
 8002d24:	681b      	ldr	r3, [r3, #0]
 8002d26:	2104      	movs	r1, #4
 8002d28:	438a      	bics	r2, r1
 8002d2a:	619a      	str	r2, [r3, #24]
      htim->Instance->CCMR1 |= sConfig->OCFastMode;
 8002d2c:	68fb      	ldr	r3, [r7, #12]
 8002d2e:	681b      	ldr	r3, [r3, #0]
 8002d30:	6999      	ldr	r1, [r3, #24]
 8002d32:	68bb      	ldr	r3, [r7, #8]
 8002d34:	691a      	ldr	r2, [r3, #16]
 8002d36:	68fb      	ldr	r3, [r7, #12]
 8002d38:	681b      	ldr	r3, [r3, #0]
 8002d3a:	430a      	orrs	r2, r1
 8002d3c:	619a      	str	r2, [r3, #24]
      break;
 8002d3e:	e06b      	b.n	8002e18 <HAL_TIM_PWM_ConfigChannel+0x170>
    {
      /* Check the parameters */
      assert_param(IS_TIM_CC2_INSTANCE(htim->Instance));

      /* Configure the Channel 2 in PWM mode */
      TIM_OC2_SetConfig(htim->Instance, sConfig);
 8002d40:	68fb      	ldr	r3, [r7, #12]
 8002d42:	681b      	ldr	r3, [r3, #0]
 8002d44:	68ba      	ldr	r2, [r7, #8]
 8002d46:	0011      	movs	r1, r2
 8002d48:	0018      	movs	r0, r3
 8002d4a:	f000 fa4f 	bl	80031ec <TIM_OC2_SetConfig>

      /* Set the Preload enable bit for channel2 */
      htim->Instance->CCMR1 |= TIM_CCMR1_OC2PE;
 8002d4e:	68fb      	ldr	r3, [r7, #12]
 8002d50:	681b      	ldr	r3, [r3, #0]
 8002d52:	699a      	ldr	r2, [r3, #24]
 8002d54:	68fb      	ldr	r3, [r7, #12]
 8002d56:	681b      	ldr	r3, [r3, #0]
 8002d58:	2180      	movs	r1, #128	; 0x80
 8002d5a:	0109      	lsls	r1, r1, #4
 8002d5c:	430a      	orrs	r2, r1
 8002d5e:	619a      	str	r2, [r3, #24]

      /* Configure the Output Fast mode */
      htim->Instance->CCMR1 &= ~TIM_CCMR1_OC2FE;
 8002d60:	68fb      	ldr	r3, [r7, #12]
 8002d62:	681b      	ldr	r3, [r3, #0]
 8002d64:	699a      	ldr	r2, [r3, #24]
 8002d66:	68fb      	ldr	r3, [r7, #12]
 8002d68:	681b      	ldr	r3, [r3, #0]
 8002d6a:	4931      	ldr	r1, [pc, #196]	; (8002e30 <HAL_TIM_PWM_ConfigChannel+0x188>)
 8002d6c:	400a      	ands	r2, r1
 8002d6e:	619a      	str	r2, [r3, #24]
      htim->Instance->CCMR1 |= sConfig->OCFastMode << 8U;
 8002d70:	68fb      	ldr	r3, [r7, #12]
 8002d72:	681b      	ldr	r3, [r3, #0]
 8002d74:	6999      	ldr	r1, [r3, #24]
 8002d76:	68bb      	ldr	r3, [r7, #8]
 8002d78:	691b      	ldr	r3, [r3, #16]
 8002d7a:	021a      	lsls	r2, r3, #8
 8002d7c:	68fb      	ldr	r3, [r7, #12]
 8002d7e:	681b      	ldr	r3, [r3, #0]
 8002d80:	430a      	orrs	r2, r1
 8002d82:	619a      	str	r2, [r3, #24]
      break;
 8002d84:	e048      	b.n	8002e18 <HAL_TIM_PWM_ConfigChannel+0x170>
    {
      /* Check the parameters */
      assert_param(IS_TIM_CC3_INSTANCE(htim->Instance));

      /* Configure the Channel 3 in PWM mode */
      TIM_OC3_SetConfig(htim->Instance, sConfig);
 8002d86:	68fb      	ldr	r3, [r7, #12]
 8002d88:	681b      	ldr	r3, [r3, #0]
 8002d8a:	68ba      	ldr	r2, [r7, #8]
 8002d8c:	0011      	movs	r1, r2
 8002d8e:	0018      	movs	r0, r3
 8002d90:	f000 fab0 	bl	80032f4 <TIM_OC3_SetConfig>

      /* Set the Preload enable bit for channel3 */
      htim->Instance->CCMR2 |= TIM_CCMR2_OC3PE;
 8002d94:	68fb      	ldr	r3, [r7, #12]
 8002d96:	681b      	ldr	r3, [r3, #0]
 8002d98:	69da      	ldr	r2, [r3, #28]
 8002d9a:	68fb      	ldr	r3, [r7, #12]
 8002d9c:	681b      	ldr	r3, [r3, #0]
 8002d9e:	2108      	movs	r1, #8
 8002da0:	430a      	orrs	r2, r1
 8002da2:	61da      	str	r2, [r3, #28]

      /* Configure the Output Fast mode */
      htim->Instance->CCMR2 &= ~TIM_CCMR2_OC3FE;
 8002da4:	68fb      	ldr	r3, [r7, #12]
 8002da6:	681b      	ldr	r3, [r3, #0]
 8002da8:	69da      	ldr	r2, [r3, #28]
 8002daa:	68fb      	ldr	r3, [r7, #12]
 8002dac:	681b      	ldr	r3, [r3, #0]
 8002dae:	2104      	movs	r1, #4
 8002db0:	438a      	bics	r2, r1
 8002db2:	61da      	str	r2, [r3, #28]
      htim->Instance->CCMR2 |= sConfig->OCFastMode;
 8002db4:	68fb      	ldr	r3, [r7, #12]
 8002db6:	681b      	ldr	r3, [r3, #0]
 8002db8:	69d9      	ldr	r1, [r3, #28]
 8002dba:	68bb      	ldr	r3, [r7, #8]
 8002dbc:	691a      	ldr	r2, [r3, #16]
 8002dbe:	68fb      	ldr	r3, [r7, #12]
 8002dc0:	681b      	ldr	r3, [r3, #0]
 8002dc2:	430a      	orrs	r2, r1
 8002dc4:	61da      	str	r2, [r3, #28]
      break;
 8002dc6:	e027      	b.n	8002e18 <HAL_TIM_PWM_ConfigChannel+0x170>
    {
      /* Check the parameters */
      assert_param(IS_TIM_CC4_INSTANCE(htim->Instance));

      /* Configure the Channel 4 in PWM mode */
      TIM_OC4_SetConfig(htim->Instance, sConfig);
 8002dc8:	68fb      	ldr	r3, [r7, #12]
 8002dca:	681b      	ldr	r3, [r3, #0]
 8002dcc:	68ba      	ldr	r2, [r7, #8]
 8002dce:	0011      	movs	r1, r2
 8002dd0:	0018      	movs	r0, r3
 8002dd2:	f000 fb15 	bl	8003400 <TIM_OC4_SetConfig>

      /* Set the Preload enable bit for channel4 */
      htim->Instance->CCMR2 |= TIM_CCMR2_OC4PE;
 8002dd6:	68fb      	ldr	r3, [r7, #12]
 8002dd8:	681b      	ldr	r3, [r3, #0]
 8002dda:	69da      	ldr	r2, [r3, #28]
 8002ddc:	68fb      	ldr	r3, [r7, #12]
 8002dde:	681b      	ldr	r3, [r3, #0]
 8002de0:	2180      	movs	r1, #128	; 0x80
 8002de2:	0109      	lsls	r1, r1, #4
 8002de4:	430a      	orrs	r2, r1
 8002de6:	61da      	str	r2, [r3, #28]

      /* Configure the Output Fast mode */
      htim->Instance->CCMR2 &= ~TIM_CCMR2_OC4FE;
 8002de8:	68fb      	ldr	r3, [r7, #12]
 8002dea:	681b      	ldr	r3, [r3, #0]
 8002dec:	69da      	ldr	r2, [r3, #28]
 8002dee:	68fb      	ldr	r3, [r7, #12]
 8002df0:	681b      	ldr	r3, [r3, #0]
 8002df2:	490f      	ldr	r1, [pc, #60]	; (8002e30 <HAL_TIM_PWM_ConfigChannel+0x188>)
 8002df4:	400a      	ands	r2, r1
 8002df6:	61da      	str	r2, [r3, #28]
      htim->Instance->CCMR2 |= sConfig->OCFastMode << 8U;
 8002df8:	68fb      	ldr	r3, [r7, #12]
 8002dfa:	681b      	ldr	r3, [r3, #0]
 8002dfc:	69d9      	ldr	r1, [r3, #28]
 8002dfe:	68bb      	ldr	r3, [r7, #8]
 8002e00:	691b      	ldr	r3, [r3, #16]
 8002e02:	021a      	lsls	r2, r3, #8
 8002e04:	68fb      	ldr	r3, [r7, #12]
 8002e06:	681b      	ldr	r3, [r3, #0]
 8002e08:	430a      	orrs	r2, r1
 8002e0a:	61da      	str	r2, [r3, #28]
      break;
 8002e0c:	e004      	b.n	8002e18 <HAL_TIM_PWM_ConfigChannel+0x170>
    }

    default:
      status = HAL_ERROR;
 8002e0e:	2317      	movs	r3, #23
 8002e10:	18fb      	adds	r3, r7, r3
 8002e12:	2201      	movs	r2, #1
 8002e14:	701a      	strb	r2, [r3, #0]
      break;
 8002e16:	46c0      	nop			; (mov r8, r8)
  }

  __HAL_UNLOCK(htim);
 8002e18:	68fb      	ldr	r3, [r7, #12]
 8002e1a:	223c      	movs	r2, #60	; 0x3c
 8002e1c:	2100      	movs	r1, #0
 8002e1e:	5499      	strb	r1, [r3, r2]

  return status;
 8002e20:	2317      	movs	r3, #23
 8002e22:	18fb      	adds	r3, r7, r3
 8002e24:	781b      	ldrb	r3, [r3, #0]
}
 8002e26:	0018      	movs	r0, r3
 8002e28:	46bd      	mov	sp, r7
 8002e2a:	b006      	add	sp, #24
 8002e2c:	bd80      	pop	{r7, pc}
 8002e2e:	46c0      	nop			; (mov r8, r8)
 8002e30:	fffffbff 	.word	0xfffffbff

08002e34 <HAL_TIM_ConfigClockSource>:
  * @param  sClockSourceConfig pointer to a TIM_ClockConfigTypeDef structure that
  *         contains the clock source information for the TIM peripheral.
  * @retval HAL status
  */
HAL_StatusTypeDef HAL_TIM_ConfigClockSource(TIM_HandleTypeDef *htim, TIM_ClockConfigTypeDef *sClockSourceConfig)
{
 8002e34:	b580      	push	{r7, lr}
 8002e36:	b084      	sub	sp, #16
 8002e38:	af00      	add	r7, sp, #0
 8002e3a:	6078      	str	r0, [r7, #4]
 8002e3c:	6039      	str	r1, [r7, #0]
  HAL_StatusTypeDef status = HAL_OK;
 8002e3e:	230f      	movs	r3, #15
 8002e40:	18fb      	adds	r3, r7, r3
 8002e42:	2200      	movs	r2, #0
 8002e44:	701a      	strb	r2, [r3, #0]
  uint32_t tmpsmcr;

  /* Process Locked */
  __HAL_LOCK(htim);
 8002e46:	687b      	ldr	r3, [r7, #4]
 8002e48:	223c      	movs	r2, #60	; 0x3c
 8002e4a:	5c9b      	ldrb	r3, [r3, r2]
 8002e4c:	2b01      	cmp	r3, #1
 8002e4e:	d101      	bne.n	8002e54 <HAL_TIM_ConfigClockSource+0x20>
 8002e50:	2302      	movs	r3, #2
 8002e52:	e0bc      	b.n	8002fce <HAL_TIM_ConfigClockSource+0x19a>
 8002e54:	687b      	ldr	r3, [r7, #4]
 8002e56:	223c      	movs	r2, #60	; 0x3c
 8002e58:	2101      	movs	r1, #1
 8002e5a:	5499      	strb	r1, [r3, r2]

  htim->State = HAL_TIM_STATE_BUSY;
 8002e5c:	687b      	ldr	r3, [r7, #4]
 8002e5e:	223d      	movs	r2, #61	; 0x3d
 8002e60:	2102      	movs	r1, #2
 8002e62:	5499      	strb	r1, [r3, r2]

  /* Check the parameters */
  assert_param(IS_TIM_CLOCKSOURCE(sClockSourceConfig->ClockSource));

  /* Reset the SMS, TS, ECE, ETPS and ETRF bits */
  tmpsmcr = htim->Instance->SMCR;
 8002e64:	687b      	ldr	r3, [r7, #4]
 8002e66:	681b      	ldr	r3, [r3, #0]
 8002e68:	689b      	ldr	r3, [r3, #8]
 8002e6a:	60bb      	str	r3, [r7, #8]
  tmpsmcr &= ~(TIM_SMCR_SMS | TIM_SMCR_TS);
 8002e6c:	68bb      	ldr	r3, [r7, #8]
 8002e6e:	2277      	movs	r2, #119	; 0x77
 8002e70:	4393      	bics	r3, r2
 8002e72:	60bb      	str	r3, [r7, #8]
  tmpsmcr &= ~(TIM_SMCR_ETF | TIM_SMCR_ETPS | TIM_SMCR_ECE | TIM_SMCR_ETP);
 8002e74:	68bb      	ldr	r3, [r7, #8]
 8002e76:	4a58      	ldr	r2, [pc, #352]	; (8002fd8 <HAL_TIM_ConfigClockSource+0x1a4>)
 8002e78:	4013      	ands	r3, r2
 8002e7a:	60bb      	str	r3, [r7, #8]
  htim->Instance->SMCR = tmpsmcr;
 8002e7c:	687b      	ldr	r3, [r7, #4]
 8002e7e:	681b      	ldr	r3, [r3, #0]
 8002e80:	68ba      	ldr	r2, [r7, #8]
 8002e82:	609a      	str	r2, [r3, #8]

  switch (sClockSourceConfig->ClockSource)
 8002e84:	683b      	ldr	r3, [r7, #0]
 8002e86:	681b      	ldr	r3, [r3, #0]
 8002e88:	2280      	movs	r2, #128	; 0x80
 8002e8a:	0192      	lsls	r2, r2, #6
 8002e8c:	4293      	cmp	r3, r2
 8002e8e:	d040      	beq.n	8002f12 <HAL_TIM_ConfigClockSource+0xde>
 8002e90:	2280      	movs	r2, #128	; 0x80
 8002e92:	0192      	lsls	r2, r2, #6
 8002e94:	4293      	cmp	r3, r2
 8002e96:	d900      	bls.n	8002e9a <HAL_TIM_ConfigClockSource+0x66>
 8002e98:	e088      	b.n	8002fac <HAL_TIM_ConfigClockSource+0x178>
 8002e9a:	2280      	movs	r2, #128	; 0x80
 8002e9c:	0152      	lsls	r2, r2, #5
 8002e9e:	4293      	cmp	r3, r2
 8002ea0:	d100      	bne.n	8002ea4 <HAL_TIM_ConfigClockSource+0x70>
 8002ea2:	e088      	b.n	8002fb6 <HAL_TIM_ConfigClockSource+0x182>
 8002ea4:	2280      	movs	r2, #128	; 0x80
 8002ea6:	0152      	lsls	r2, r2, #5
 8002ea8:	4293      	cmp	r3, r2
 8002eaa:	d900      	bls.n	8002eae <HAL_TIM_ConfigClockSource+0x7a>
 8002eac:	e07e      	b.n	8002fac <HAL_TIM_ConfigClockSource+0x178>
 8002eae:	2b70      	cmp	r3, #112	; 0x70
 8002eb0:	d018      	beq.n	8002ee4 <HAL_TIM_ConfigClockSource+0xb0>
 8002eb2:	d900      	bls.n	8002eb6 <HAL_TIM_ConfigClockSource+0x82>
 8002eb4:	e07a      	b.n	8002fac <HAL_TIM_ConfigClockSource+0x178>
 8002eb6:	2b60      	cmp	r3, #96	; 0x60
 8002eb8:	d04f      	beq.n	8002f5a <HAL_TIM_ConfigClockSource+0x126>
 8002eba:	d900      	bls.n	8002ebe <HAL_TIM_ConfigClockSource+0x8a>
 8002ebc:	e076      	b.n	8002fac <HAL_TIM_ConfigClockSource+0x178>
 8002ebe:	2b50      	cmp	r3, #80	; 0x50
 8002ec0:	d03b      	beq.n	8002f3a <HAL_TIM_ConfigClockSource+0x106>
 8002ec2:	d900      	bls.n	8002ec6 <HAL_TIM_ConfigClockSource+0x92>
 8002ec4:	e072      	b.n	8002fac <HAL_TIM_ConfigClockSource+0x178>
 8002ec6:	2b40      	cmp	r3, #64	; 0x40
 8002ec8:	d057      	beq.n	8002f7a <HAL_TIM_ConfigClockSource+0x146>
 8002eca:	d900      	bls.n	8002ece <HAL_TIM_ConfigClockSource+0x9a>
 8002ecc:	e06e      	b.n	8002fac <HAL_TIM_ConfigClockSource+0x178>
 8002ece:	2b30      	cmp	r3, #48	; 0x30
 8002ed0:	d063      	beq.n	8002f9a <HAL_TIM_ConfigClockSource+0x166>
 8002ed2:	d86b      	bhi.n	8002fac <HAL_TIM_ConfigClockSource+0x178>
 8002ed4:	2b20      	cmp	r3, #32
 8002ed6:	d060      	beq.n	8002f9a <HAL_TIM_ConfigClockSource+0x166>
 8002ed8:	d868      	bhi.n	8002fac <HAL_TIM_ConfigClockSource+0x178>
 8002eda:	2b00      	cmp	r3, #0
 8002edc:	d05d      	beq.n	8002f9a <HAL_TIM_ConfigClockSource+0x166>
 8002ede:	2b10      	cmp	r3, #16
 8002ee0:	d05b      	beq.n	8002f9a <HAL_TIM_ConfigClockSource+0x166>
 8002ee2:	e063      	b.n	8002fac <HAL_TIM_ConfigClockSource+0x178>
      assert_param(IS_TIM_CLOCKPRESCALER(sClockSourceConfig->ClockPrescaler));
      assert_param(IS_TIM_CLOCKPOLARITY(sClockSourceConfig->ClockPolarity));
      assert_param(IS_TIM_CLOCKFILTER(sClockSourceConfig->ClockFilter));

      /* Configure the ETR Clock source */
      TIM_ETR_SetConfig(htim->Instance,
 8002ee4:	687b      	ldr	r3, [r7, #4]
 8002ee6:	6818      	ldr	r0, [r3, #0]
 8002ee8:	683b      	ldr	r3, [r7, #0]
 8002eea:	6899      	ldr	r1, [r3, #8]
 8002eec:	683b      	ldr	r3, [r7, #0]
 8002eee:	685a      	ldr	r2, [r3, #4]
 8002ef0:	683b      	ldr	r3, [r7, #0]
 8002ef2:	68db      	ldr	r3, [r3, #12]
 8002ef4:	f000 fb68 	bl	80035c8 <TIM_ETR_SetConfig>
                        sClockSourceConfig->ClockPrescaler,
                        sClockSourceConfig->ClockPolarity,
                        sClockSourceConfig->ClockFilter);

      /* Select the External clock mode1 and the ETRF trigger */
      tmpsmcr = htim->Instance->SMCR;
 8002ef8:	687b      	ldr	r3, [r7, #4]
 8002efa:	681b      	ldr	r3, [r3, #0]
 8002efc:	689b      	ldr	r3, [r3, #8]
 8002efe:	60bb      	str	r3, [r7, #8]
      tmpsmcr |= (TIM_SLAVEMODE_EXTERNAL1 | TIM_CLOCKSOURCE_ETRMODE1);
 8002f00:	68bb      	ldr	r3, [r7, #8]
 8002f02:	2277      	movs	r2, #119	; 0x77
 8002f04:	4313      	orrs	r3, r2
 8002f06:	60bb      	str	r3, [r7, #8]
      /* Write to TIMx SMCR */
      htim->Instance->SMCR = tmpsmcr;
 8002f08:	687b      	ldr	r3, [r7, #4]
 8002f0a:	681b      	ldr	r3, [r3, #0]
 8002f0c:	68ba      	ldr	r2, [r7, #8]
 8002f0e:	609a      	str	r2, [r3, #8]
      break;
 8002f10:	e052      	b.n	8002fb8 <HAL_TIM_ConfigClockSource+0x184>
      assert_param(IS_TIM_CLOCKPRESCALER(sClockSourceConfig->ClockPrescaler));
      assert_param(IS_TIM_CLOCKPOLARITY(sClockSourceConfig->ClockPolarity));
      assert_param(IS_TIM_CLOCKFILTER(sClockSourceConfig->ClockFilter));

      /* Configure the ETR Clock source */
      TIM_ETR_SetConfig(htim->Instance,
 8002f12:	687b      	ldr	r3, [r7, #4]
 8002f14:	6818      	ldr	r0, [r3, #0]
 8002f16:	683b      	ldr	r3, [r7, #0]
 8002f18:	6899      	ldr	r1, [r3, #8]
 8002f1a:	683b      	ldr	r3, [r7, #0]
 8002f1c:	685a      	ldr	r2, [r3, #4]
 8002f1e:	683b      	ldr	r3, [r7, #0]
 8002f20:	68db      	ldr	r3, [r3, #12]
 8002f22:	f000 fb51 	bl	80035c8 <TIM_ETR_SetConfig>
                        sClockSourceConfig->ClockPrescaler,
                        sClockSourceConfig->ClockPolarity,
                        sClockSourceConfig->ClockFilter);
      /* Enable the External clock mode2 */
      htim->Instance->SMCR |= TIM_SMCR_ECE;
 8002f26:	687b      	ldr	r3, [r7, #4]
 8002f28:	681b      	ldr	r3, [r3, #0]
 8002f2a:	689a      	ldr	r2, [r3, #8]
 8002f2c:	687b      	ldr	r3, [r7, #4]
 8002f2e:	681b      	ldr	r3, [r3, #0]
 8002f30:	2180      	movs	r1, #128	; 0x80
 8002f32:	01c9      	lsls	r1, r1, #7
 8002f34:	430a      	orrs	r2, r1
 8002f36:	609a      	str	r2, [r3, #8]
      break;
 8002f38:	e03e      	b.n	8002fb8 <HAL_TIM_ConfigClockSource+0x184>

      /* Check TI1 input conditioning related parameters */
      assert_param(IS_TIM_CLOCKPOLARITY(sClockSourceConfig->ClockPolarity));
      assert_param(IS_TIM_CLOCKFILTER(sClockSourceConfig->ClockFilter));

      TIM_TI1_ConfigInputStage(htim->Instance,
 8002f3a:	687b      	ldr	r3, [r7, #4]
 8002f3c:	6818      	ldr	r0, [r3, #0]
 8002f3e:	683b      	ldr	r3, [r7, #0]
 8002f40:	6859      	ldr	r1, [r3, #4]
 8002f42:	683b      	ldr	r3, [r7, #0]
 8002f44:	68db      	ldr	r3, [r3, #12]
 8002f46:	001a      	movs	r2, r3
 8002f48:	f000 fac4 	bl	80034d4 <TIM_TI1_ConfigInputStage>
                               sClockSourceConfig->ClockPolarity,
                               sClockSourceConfig->ClockFilter);
      TIM_ITRx_SetConfig(htim->Instance, TIM_CLOCKSOURCE_TI1);
 8002f4c:	687b      	ldr	r3, [r7, #4]
 8002f4e:	681b      	ldr	r3, [r3, #0]
 8002f50:	2150      	movs	r1, #80	; 0x50
 8002f52:	0018      	movs	r0, r3
 8002f54:	f000 fb1e 	bl	8003594 <TIM_ITRx_SetConfig>
      break;
 8002f58:	e02e      	b.n	8002fb8 <HAL_TIM_ConfigClockSource+0x184>

      /* Check TI2 input conditioning related parameters */
      assert_param(IS_TIM_CLOCKPOLARITY(sClockSourceConfig->ClockPolarity));
      assert_param(IS_TIM_CLOCKFILTER(sClockSourceConfig->ClockFilter));

      TIM_TI2_ConfigInputStage(htim->Instance,
 8002f5a:	687b      	ldr	r3, [r7, #4]
 8002f5c:	6818      	ldr	r0, [r3, #0]
 8002f5e:	683b      	ldr	r3, [r7, #0]
 8002f60:	6859      	ldr	r1, [r3, #4]
 8002f62:	683b      	ldr	r3, [r7, #0]
 8002f64:	68db      	ldr	r3, [r3, #12]
 8002f66:	001a      	movs	r2, r3
 8002f68:	f000 fae2 	bl	8003530 <TIM_TI2_ConfigInputStage>
                               sClockSourceConfig->ClockPolarity,
                               sClockSourceConfig->ClockFilter);
      TIM_ITRx_SetConfig(htim->Instance, TIM_CLOCKSOURCE_TI2);
 8002f6c:	687b      	ldr	r3, [r7, #4]
 8002f6e:	681b      	ldr	r3, [r3, #0]
 8002f70:	2160      	movs	r1, #96	; 0x60
 8002f72:	0018      	movs	r0, r3
 8002f74:	f000 fb0e 	bl	8003594 <TIM_ITRx_SetConfig>
      break;
 8002f78:	e01e      	b.n	8002fb8 <HAL_TIM_ConfigClockSource+0x184>

      /* Check TI1 input conditioning related parameters */
      assert_param(IS_TIM_CLOCKPOLARITY(sClockSourceConfig->ClockPolarity));
      assert_param(IS_TIM_CLOCKFILTER(sClockSourceConfig->ClockFilter));

      TIM_TI1_ConfigInputStage(htim->Instance,
 8002f7a:	687b      	ldr	r3, [r7, #4]
 8002f7c:	6818      	ldr	r0, [r3, #0]
 8002f7e:	683b      	ldr	r3, [r7, #0]
 8002f80:	6859      	ldr	r1, [r3, #4]
 8002f82:	683b      	ldr	r3, [r7, #0]
 8002f84:	68db      	ldr	r3, [r3, #12]
 8002f86:	001a      	movs	r2, r3
 8002f88:	f000 faa4 	bl	80034d4 <TIM_TI1_ConfigInputStage>
                               sClockSourceConfig->ClockPolarity,
                               sClockSourceConfig->ClockFilter);
      TIM_ITRx_SetConfig(htim->Instance, TIM_CLOCKSOURCE_TI1ED);
 8002f8c:	687b      	ldr	r3, [r7, #4]
 8002f8e:	681b      	ldr	r3, [r3, #0]
 8002f90:	2140      	movs	r1, #64	; 0x40
 8002f92:	0018      	movs	r0, r3
 8002f94:	f000 fafe 	bl	8003594 <TIM_ITRx_SetConfig>
      break;
 8002f98:	e00e      	b.n	8002fb8 <HAL_TIM_ConfigClockSource+0x184>
    case TIM_CLOCKSOURCE_ITR3:
    {
      /* Check whether or not the timer instance supports internal trigger input */
      assert_param(IS_TIM_CLOCKSOURCE_ITRX_INSTANCE(htim->Instance));

      TIM_ITRx_SetConfig(htim->Instance, sClockSourceConfig->ClockSource);
 8002f9a:	687b      	ldr	r3, [r7, #4]
 8002f9c:	681a      	ldr	r2, [r3, #0]
 8002f9e:	683b      	ldr	r3, [r7, #0]
 8002fa0:	681b      	ldr	r3, [r3, #0]
 8002fa2:	0019      	movs	r1, r3
 8002fa4:	0010      	movs	r0, r2
 8002fa6:	f000 faf5 	bl	8003594 <TIM_ITRx_SetConfig>
      break;
 8002faa:	e005      	b.n	8002fb8 <HAL_TIM_ConfigClockSource+0x184>
    }

    default:
      status = HAL_ERROR;
 8002fac:	230f      	movs	r3, #15
 8002fae:	18fb      	adds	r3, r7, r3
 8002fb0:	2201      	movs	r2, #1
 8002fb2:	701a      	strb	r2, [r3, #0]
      break;
 8002fb4:	e000      	b.n	8002fb8 <HAL_TIM_ConfigClockSource+0x184>
      break;
 8002fb6:	46c0      	nop			; (mov r8, r8)
  }
  htim->State = HAL_TIM_STATE_READY;
 8002fb8:	687b      	ldr	r3, [r7, #4]
 8002fba:	223d      	movs	r2, #61	; 0x3d
 8002fbc:	2101      	movs	r1, #1
 8002fbe:	5499      	strb	r1, [r3, r2]

  __HAL_UNLOCK(htim);
 8002fc0:	687b      	ldr	r3, [r7, #4]
 8002fc2:	223c      	movs	r2, #60	; 0x3c
 8002fc4:	2100      	movs	r1, #0
 8002fc6:	5499      	strb	r1, [r3, r2]

  return status;
 8002fc8:	230f      	movs	r3, #15
 8002fca:	18fb      	adds	r3, r7, r3
 8002fcc:	781b      	ldrb	r3, [r3, #0]
}
 8002fce:	0018      	movs	r0, r3
 8002fd0:	46bd      	mov	sp, r7
 8002fd2:	b004      	add	sp, #16
 8002fd4:	bd80      	pop	{r7, pc}
 8002fd6:	46c0      	nop			; (mov r8, r8)
 8002fd8:	ffff00ff 	.word	0xffff00ff

08002fdc <TIM_Base_SetConfig>:
  * @param  TIMx TIM peripheral
  * @param  Structure TIM Base configuration structure
  * @retval None
  */
void TIM_Base_SetConfig(TIM_TypeDef *TIMx, TIM_Base_InitTypeDef *Structure)
{
 8002fdc:	b580      	push	{r7, lr}
 8002fde:	b084      	sub	sp, #16
 8002fe0:	af00      	add	r7, sp, #0
 8002fe2:	6078      	str	r0, [r7, #4]
 8002fe4:	6039      	str	r1, [r7, #0]
  uint32_t tmpcr1;
  tmpcr1 = TIMx->CR1;
 8002fe6:	687b      	ldr	r3, [r7, #4]
 8002fe8:	681b      	ldr	r3, [r3, #0]
 8002fea:	60fb      	str	r3, [r7, #12]

  /* Set TIM Time Base Unit parameters ---------------------------------------*/
  if (IS_TIM_COUNTER_MODE_SELECT_INSTANCE(TIMx))
 8002fec:	687b      	ldr	r3, [r7, #4]
 8002fee:	4a34      	ldr	r2, [pc, #208]	; (80030c0 <TIM_Base_SetConfig+0xe4>)
 8002ff0:	4293      	cmp	r3, r2
 8002ff2:	d008      	beq.n	8003006 <TIM_Base_SetConfig+0x2a>
 8002ff4:	687a      	ldr	r2, [r7, #4]
 8002ff6:	2380      	movs	r3, #128	; 0x80
 8002ff8:	05db      	lsls	r3, r3, #23
 8002ffa:	429a      	cmp	r2, r3
 8002ffc:	d003      	beq.n	8003006 <TIM_Base_SetConfig+0x2a>
 8002ffe:	687b      	ldr	r3, [r7, #4]
 8003000:	4a30      	ldr	r2, [pc, #192]	; (80030c4 <TIM_Base_SetConfig+0xe8>)
 8003002:	4293      	cmp	r3, r2
 8003004:	d108      	bne.n	8003018 <TIM_Base_SetConfig+0x3c>
  {
    /* Select the Counter Mode */
    tmpcr1 &= ~(TIM_CR1_DIR | TIM_CR1_CMS);
 8003006:	68fb      	ldr	r3, [r7, #12]
 8003008:	2270      	movs	r2, #112	; 0x70
 800300a:	4393      	bics	r3, r2
 800300c:	60fb      	str	r3, [r7, #12]
    tmpcr1 |= Structure->CounterMode;
 800300e:	683b      	ldr	r3, [r7, #0]
 8003010:	685b      	ldr	r3, [r3, #4]
 8003012:	68fa      	ldr	r2, [r7, #12]
 8003014:	4313      	orrs	r3, r2
 8003016:	60fb      	str	r3, [r7, #12]
  }

  if (IS_TIM_CLOCK_DIVISION_INSTANCE(TIMx))
 8003018:	687b      	ldr	r3, [r7, #4]
 800301a:	4a29      	ldr	r2, [pc, #164]	; (80030c0 <TIM_Base_SetConfig+0xe4>)
 800301c:	4293      	cmp	r3, r2
 800301e:	d018      	beq.n	8003052 <TIM_Base_SetConfig+0x76>
 8003020:	687a      	ldr	r2, [r7, #4]
 8003022:	2380      	movs	r3, #128	; 0x80
 8003024:	05db      	lsls	r3, r3, #23
 8003026:	429a      	cmp	r2, r3
 8003028:	d013      	beq.n	8003052 <TIM_Base_SetConfig+0x76>
 800302a:	687b      	ldr	r3, [r7, #4]
 800302c:	4a25      	ldr	r2, [pc, #148]	; (80030c4 <TIM_Base_SetConfig+0xe8>)
 800302e:	4293      	cmp	r3, r2
 8003030:	d00f      	beq.n	8003052 <TIM_Base_SetConfig+0x76>
 8003032:	687b      	ldr	r3, [r7, #4]
 8003034:	4a24      	ldr	r2, [pc, #144]	; (80030c8 <TIM_Base_SetConfig+0xec>)
 8003036:	4293      	cmp	r3, r2
 8003038:	d00b      	beq.n	8003052 <TIM_Base_SetConfig+0x76>
 800303a:	687b      	ldr	r3, [r7, #4]
 800303c:	4a23      	ldr	r2, [pc, #140]	; (80030cc <TIM_Base_SetConfig+0xf0>)
 800303e:	4293      	cmp	r3, r2
 8003040:	d007      	beq.n	8003052 <TIM_Base_SetConfig+0x76>
 8003042:	687b      	ldr	r3, [r7, #4]
 8003044:	4a22      	ldr	r2, [pc, #136]	; (80030d0 <TIM_Base_SetConfig+0xf4>)
 8003046:	4293      	cmp	r3, r2
 8003048:	d003      	beq.n	8003052 <TIM_Base_SetConfig+0x76>
 800304a:	687b      	ldr	r3, [r7, #4]
 800304c:	4a21      	ldr	r2, [pc, #132]	; (80030d4 <TIM_Base_SetConfig+0xf8>)
 800304e:	4293      	cmp	r3, r2
 8003050:	d108      	bne.n	8003064 <TIM_Base_SetConfig+0x88>
  {
    /* Set the clock division */
    tmpcr1 &= ~TIM_CR1_CKD;
 8003052:	68fb      	ldr	r3, [r7, #12]
 8003054:	4a20      	ldr	r2, [pc, #128]	; (80030d8 <TIM_Base_SetConfig+0xfc>)
 8003056:	4013      	ands	r3, r2
 8003058:	60fb      	str	r3, [r7, #12]
    tmpcr1 |= (uint32_t)Structure->ClockDivision;
 800305a:	683b      	ldr	r3, [r7, #0]
 800305c:	68db      	ldr	r3, [r3, #12]
 800305e:	68fa      	ldr	r2, [r7, #12]
 8003060:	4313      	orrs	r3, r2
 8003062:	60fb      	str	r3, [r7, #12]
  }

  /* Set the auto-reload preload */
  MODIFY_REG(tmpcr1, TIM_CR1_ARPE, Structure->AutoReloadPreload);
 8003064:	68fb      	ldr	r3, [r7, #12]
 8003066:	2280      	movs	r2, #128	; 0x80
 8003068:	4393      	bics	r3, r2
 800306a:	001a      	movs	r2, r3
 800306c:	683b      	ldr	r3, [r7, #0]
 800306e:	695b      	ldr	r3, [r3, #20]
 8003070:	4313      	orrs	r3, r2
 8003072:	60fb      	str	r3, [r7, #12]

  TIMx->CR1 = tmpcr1;
 8003074:	687b      	ldr	r3, [r7, #4]
 8003076:	68fa      	ldr	r2, [r7, #12]
 8003078:	601a      	str	r2, [r3, #0]

  /* Set the Autoreload value */
  TIMx->ARR = (uint32_t)Structure->Period ;
 800307a:	683b      	ldr	r3, [r7, #0]
 800307c:	689a      	ldr	r2, [r3, #8]
 800307e:	687b      	ldr	r3, [r7, #4]
 8003080:	62da      	str	r2, [r3, #44]	; 0x2c

  /* Set the Prescaler value */
  TIMx->PSC = Structure->Prescaler;
 8003082:	683b      	ldr	r3, [r7, #0]
 8003084:	681a      	ldr	r2, [r3, #0]
 8003086:	687b      	ldr	r3, [r7, #4]
 8003088:	629a      	str	r2, [r3, #40]	; 0x28

  if (IS_TIM_REPETITION_COUNTER_INSTANCE(TIMx))
 800308a:	687b      	ldr	r3, [r7, #4]
 800308c:	4a0c      	ldr	r2, [pc, #48]	; (80030c0 <TIM_Base_SetConfig+0xe4>)
 800308e:	4293      	cmp	r3, r2
 8003090:	d00b      	beq.n	80030aa <TIM_Base_SetConfig+0xce>
 8003092:	687b      	ldr	r3, [r7, #4]
 8003094:	4a0d      	ldr	r2, [pc, #52]	; (80030cc <TIM_Base_SetConfig+0xf0>)
 8003096:	4293      	cmp	r3, r2
 8003098:	d007      	beq.n	80030aa <TIM_Base_SetConfig+0xce>
 800309a:	687b      	ldr	r3, [r7, #4]
 800309c:	4a0c      	ldr	r2, [pc, #48]	; (80030d0 <TIM_Base_SetConfig+0xf4>)
 800309e:	4293      	cmp	r3, r2
 80030a0:	d003      	beq.n	80030aa <TIM_Base_SetConfig+0xce>
 80030a2:	687b      	ldr	r3, [r7, #4]
 80030a4:	4a0b      	ldr	r2, [pc, #44]	; (80030d4 <TIM_Base_SetConfig+0xf8>)
 80030a6:	4293      	cmp	r3, r2
 80030a8:	d103      	bne.n	80030b2 <TIM_Base_SetConfig+0xd6>
  {
    /* Set the Repetition Counter value */
    TIMx->RCR = Structure->RepetitionCounter;
 80030aa:	683b      	ldr	r3, [r7, #0]
 80030ac:	691a      	ldr	r2, [r3, #16]
 80030ae:	687b      	ldr	r3, [r7, #4]
 80030b0:	631a      	str	r2, [r3, #48]	; 0x30
  }

  /* Generate an update event to reload the Prescaler
     and the repetition counter (only for advanced timer) value immediately */
  TIMx->EGR = TIM_EGR_UG;
 80030b2:	687b      	ldr	r3, [r7, #4]
 80030b4:	2201      	movs	r2, #1
 80030b6:	615a      	str	r2, [r3, #20]
}
 80030b8:	46c0      	nop			; (mov r8, r8)
 80030ba:	46bd      	mov	sp, r7
 80030bc:	b004      	add	sp, #16
 80030be:	bd80      	pop	{r7, pc}
 80030c0:	40012c00 	.word	0x40012c00
 80030c4:	40000400 	.word	0x40000400
 80030c8:	40002000 	.word	0x40002000
 80030cc:	40014000 	.word	0x40014000
 80030d0:	40014400 	.word	0x40014400
 80030d4:	40014800 	.word	0x40014800
 80030d8:	fffffcff 	.word	0xfffffcff

080030dc <TIM_OC1_SetConfig>:
  * @param  TIMx to select the TIM peripheral
  * @param  OC_Config The output configuration structure
  * @retval None
  */
static void TIM_OC1_SetConfig(TIM_TypeDef *TIMx, TIM_OC_InitTypeDef *OC_Config)
{
 80030dc:	b580      	push	{r7, lr}
 80030de:	b086      	sub	sp, #24
 80030e0:	af00      	add	r7, sp, #0
 80030e2:	6078      	str	r0, [r7, #4]
 80030e4:	6039      	str	r1, [r7, #0]
  uint32_t tmpccmrx;
  uint32_t tmpccer;
  uint32_t tmpcr2;

  /* Disable the Channel 1: Reset the CC1E Bit */
  TIMx->CCER &= ~TIM_CCER_CC1E;
 80030e6:	687b      	ldr	r3, [r7, #4]
 80030e8:	6a1b      	ldr	r3, [r3, #32]
 80030ea:	2201      	movs	r2, #1
 80030ec:	4393      	bics	r3, r2
 80030ee:	001a      	movs	r2, r3
 80030f0:	687b      	ldr	r3, [r7, #4]
 80030f2:	621a      	str	r2, [r3, #32]

  /* Get the TIMx CCER register value */
  tmpccer = TIMx->CCER;
 80030f4:	687b      	ldr	r3, [r7, #4]
 80030f6:	6a1b      	ldr	r3, [r3, #32]
 80030f8:	617b      	str	r3, [r7, #20]
  /* Get the TIMx CR2 register value */
  tmpcr2 =  TIMx->CR2;
 80030fa:	687b      	ldr	r3, [r7, #4]
 80030fc:	685b      	ldr	r3, [r3, #4]
 80030fe:	613b      	str	r3, [r7, #16]

  /* Get the TIMx CCMR1 register value */
  tmpccmrx = TIMx->CCMR1;
 8003100:	687b      	ldr	r3, [r7, #4]
 8003102:	699b      	ldr	r3, [r3, #24]
 8003104:	60fb      	str	r3, [r7, #12]

  /* Reset the Output Compare Mode Bits */
  tmpccmrx &= ~TIM_CCMR1_OC1M;
 8003106:	68fb      	ldr	r3, [r7, #12]
 8003108:	2270      	movs	r2, #112	; 0x70
 800310a:	4393      	bics	r3, r2
 800310c:	60fb      	str	r3, [r7, #12]
  tmpccmrx &= ~TIM_CCMR1_CC1S;
 800310e:	68fb      	ldr	r3, [r7, #12]
 8003110:	2203      	movs	r2, #3
 8003112:	4393      	bics	r3, r2
 8003114:	60fb      	str	r3, [r7, #12]
  /* Select the Output Compare Mode */
  tmpccmrx |= OC_Config->OCMode;
 8003116:	683b      	ldr	r3, [r7, #0]
 8003118:	681b      	ldr	r3, [r3, #0]
 800311a:	68fa      	ldr	r2, [r7, #12]
 800311c:	4313      	orrs	r3, r2
 800311e:	60fb      	str	r3, [r7, #12]

  /* Reset the Output Polarity level */
  tmpccer &= ~TIM_CCER_CC1P;
 8003120:	697b      	ldr	r3, [r7, #20]
 8003122:	2202      	movs	r2, #2
 8003124:	4393      	bics	r3, r2
 8003126:	617b      	str	r3, [r7, #20]
  /* Set the Output Compare Polarity */
  tmpccer |= OC_Config->OCPolarity;
 8003128:	683b      	ldr	r3, [r7, #0]
 800312a:	689b      	ldr	r3, [r3, #8]
 800312c:	697a      	ldr	r2, [r7, #20]
 800312e:	4313      	orrs	r3, r2
 8003130:	617b      	str	r3, [r7, #20]

  if (IS_TIM_CCXN_INSTANCE(TIMx, TIM_CHANNEL_1))
 8003132:	687b      	ldr	r3, [r7, #4]
 8003134:	4a27      	ldr	r2, [pc, #156]	; (80031d4 <TIM_OC1_SetConfig+0xf8>)
 8003136:	4293      	cmp	r3, r2
 8003138:	d00b      	beq.n	8003152 <TIM_OC1_SetConfig+0x76>
 800313a:	687b      	ldr	r3, [r7, #4]
 800313c:	4a26      	ldr	r2, [pc, #152]	; (80031d8 <TIM_OC1_SetConfig+0xfc>)
 800313e:	4293      	cmp	r3, r2
 8003140:	d007      	beq.n	8003152 <TIM_OC1_SetConfig+0x76>
 8003142:	687b      	ldr	r3, [r7, #4]
 8003144:	4a25      	ldr	r2, [pc, #148]	; (80031dc <TIM_OC1_SetConfig+0x100>)
 8003146:	4293      	cmp	r3, r2
 8003148:	d003      	beq.n	8003152 <TIM_OC1_SetConfig+0x76>
 800314a:	687b      	ldr	r3, [r7, #4]
 800314c:	4a24      	ldr	r2, [pc, #144]	; (80031e0 <TIM_OC1_SetConfig+0x104>)
 800314e:	4293      	cmp	r3, r2
 8003150:	d10c      	bne.n	800316c <TIM_OC1_SetConfig+0x90>
  {
    /* Check parameters */
    assert_param(IS_TIM_OCN_POLARITY(OC_Config->OCNPolarity));

    /* Reset the Output N Polarity level */
    tmpccer &= ~TIM_CCER_CC1NP;
 8003152:	697b      	ldr	r3, [r7, #20]
 8003154:	2208      	movs	r2, #8
 8003156:	4393      	bics	r3, r2
 8003158:	617b      	str	r3, [r7, #20]
    /* Set the Output N Polarity */
    tmpccer |= OC_Config->OCNPolarity;
 800315a:	683b      	ldr	r3, [r7, #0]
 800315c:	68db      	ldr	r3, [r3, #12]
 800315e:	697a      	ldr	r2, [r7, #20]
 8003160:	4313      	orrs	r3, r2
 8003162:	617b      	str	r3, [r7, #20]
    /* Reset the Output N State */
    tmpccer &= ~TIM_CCER_CC1NE;
 8003164:	697b      	ldr	r3, [r7, #20]
 8003166:	2204      	movs	r2, #4
 8003168:	4393      	bics	r3, r2
 800316a:	617b      	str	r3, [r7, #20]
  }

  if (IS_TIM_BREAK_INSTANCE(TIMx))
 800316c:	687b      	ldr	r3, [r7, #4]
 800316e:	4a19      	ldr	r2, [pc, #100]	; (80031d4 <TIM_OC1_SetConfig+0xf8>)
 8003170:	4293      	cmp	r3, r2
 8003172:	d00b      	beq.n	800318c <TIM_OC1_SetConfig+0xb0>
 8003174:	687b      	ldr	r3, [r7, #4]
 8003176:	4a18      	ldr	r2, [pc, #96]	; (80031d8 <TIM_OC1_SetConfig+0xfc>)
 8003178:	4293      	cmp	r3, r2
 800317a:	d007      	beq.n	800318c <TIM_OC1_SetConfig+0xb0>
 800317c:	687b      	ldr	r3, [r7, #4]
 800317e:	4a17      	ldr	r2, [pc, #92]	; (80031dc <TIM_OC1_SetConfig+0x100>)
 8003180:	4293      	cmp	r3, r2
 8003182:	d003      	beq.n	800318c <TIM_OC1_SetConfig+0xb0>
 8003184:	687b      	ldr	r3, [r7, #4]
 8003186:	4a16      	ldr	r2, [pc, #88]	; (80031e0 <TIM_OC1_SetConfig+0x104>)
 8003188:	4293      	cmp	r3, r2
 800318a:	d111      	bne.n	80031b0 <TIM_OC1_SetConfig+0xd4>
    /* Check parameters */
    assert_param(IS_TIM_OCNIDLE_STATE(OC_Config->OCNIdleState));
    assert_param(IS_TIM_OCIDLE_STATE(OC_Config->OCIdleState));

    /* Reset the Output Compare and Output Compare N IDLE State */
    tmpcr2 &= ~TIM_CR2_OIS1;
 800318c:	693b      	ldr	r3, [r7, #16]
 800318e:	4a15      	ldr	r2, [pc, #84]	; (80031e4 <TIM_OC1_SetConfig+0x108>)
 8003190:	4013      	ands	r3, r2
 8003192:	613b      	str	r3, [r7, #16]
    tmpcr2 &= ~TIM_CR2_OIS1N;
 8003194:	693b      	ldr	r3, [r7, #16]
 8003196:	4a14      	ldr	r2, [pc, #80]	; (80031e8 <TIM_OC1_SetConfig+0x10c>)
 8003198:	4013      	ands	r3, r2
 800319a:	613b      	str	r3, [r7, #16]
    /* Set the Output Idle state */
    tmpcr2 |= OC_Config->OCIdleState;
 800319c:	683b      	ldr	r3, [r7, #0]
 800319e:	695b      	ldr	r3, [r3, #20]
 80031a0:	693a      	ldr	r2, [r7, #16]
 80031a2:	4313      	orrs	r3, r2
 80031a4:	613b      	str	r3, [r7, #16]
    /* Set the Output N Idle state */
    tmpcr2 |= OC_Config->OCNIdleState;
 80031a6:	683b      	ldr	r3, [r7, #0]
 80031a8:	699b      	ldr	r3, [r3, #24]
 80031aa:	693a      	ldr	r2, [r7, #16]
 80031ac:	4313      	orrs	r3, r2
 80031ae:	613b      	str	r3, [r7, #16]
  }

  /* Write to TIMx CR2 */
  TIMx->CR2 = tmpcr2;
 80031b0:	687b      	ldr	r3, [r7, #4]
 80031b2:	693a      	ldr	r2, [r7, #16]
 80031b4:	605a      	str	r2, [r3, #4]

  /* Write to TIMx CCMR1 */
  TIMx->CCMR1 = tmpccmrx;
 80031b6:	687b      	ldr	r3, [r7, #4]
 80031b8:	68fa      	ldr	r2, [r7, #12]
 80031ba:	619a      	str	r2, [r3, #24]

  /* Set the Capture Compare Register value */
  TIMx->CCR1 = OC_Config->Pulse;
 80031bc:	683b      	ldr	r3, [r7, #0]
 80031be:	685a      	ldr	r2, [r3, #4]
 80031c0:	687b      	ldr	r3, [r7, #4]
 80031c2:	635a      	str	r2, [r3, #52]	; 0x34

  /* Write to TIMx CCER */
  TIMx->CCER = tmpccer;
 80031c4:	687b      	ldr	r3, [r7, #4]
 80031c6:	697a      	ldr	r2, [r7, #20]
 80031c8:	621a      	str	r2, [r3, #32]
}
 80031ca:	46c0      	nop			; (mov r8, r8)
 80031cc:	46bd      	mov	sp, r7
 80031ce:	b006      	add	sp, #24
 80031d0:	bd80      	pop	{r7, pc}
 80031d2:	46c0      	nop			; (mov r8, r8)
 80031d4:	40012c00 	.word	0x40012c00
 80031d8:	40014000 	.word	0x40014000
 80031dc:	40014400 	.word	0x40014400
 80031e0:	40014800 	.word	0x40014800
 80031e4:	fffffeff 	.word	0xfffffeff
 80031e8:	fffffdff 	.word	0xfffffdff

080031ec <TIM_OC2_SetConfig>:
  * @param  TIMx to select the TIM peripheral
  * @param  OC_Config The output configuration structure
  * @retval None
  */
void TIM_OC2_SetConfig(TIM_TypeDef *TIMx, TIM_OC_InitTypeDef *OC_Config)
{
 80031ec:	b580      	push	{r7, lr}
 80031ee:	b086      	sub	sp, #24
 80031f0:	af00      	add	r7, sp, #0
 80031f2:	6078      	str	r0, [r7, #4]
 80031f4:	6039      	str	r1, [r7, #0]
  uint32_t tmpccmrx;
  uint32_t tmpccer;
  uint32_t tmpcr2;

  /* Disable the Channel 2: Reset the CC2E Bit */
  TIMx->CCER &= ~TIM_CCER_CC2E;
 80031f6:	687b      	ldr	r3, [r7, #4]
 80031f8:	6a1b      	ldr	r3, [r3, #32]
 80031fa:	2210      	movs	r2, #16
 80031fc:	4393      	bics	r3, r2
 80031fe:	001a      	movs	r2, r3
 8003200:	687b      	ldr	r3, [r7, #4]
 8003202:	621a      	str	r2, [r3, #32]

  /* Get the TIMx CCER register value */
  tmpccer = TIMx->CCER;
 8003204:	687b      	ldr	r3, [r7, #4]
 8003206:	6a1b      	ldr	r3, [r3, #32]
 8003208:	617b      	str	r3, [r7, #20]
  /* Get the TIMx CR2 register value */
  tmpcr2 =  TIMx->CR2;
 800320a:	687b      	ldr	r3, [r7, #4]
 800320c:	685b      	ldr	r3, [r3, #4]
 800320e:	613b      	str	r3, [r7, #16]

  /* Get the TIMx CCMR1 register value */
  tmpccmrx = TIMx->CCMR1;
 8003210:	687b      	ldr	r3, [r7, #4]
 8003212:	699b      	ldr	r3, [r3, #24]
 8003214:	60fb      	str	r3, [r7, #12]

  /* Reset the Output Compare mode and Capture/Compare selection Bits */
  tmpccmrx &= ~TIM_CCMR1_OC2M;
 8003216:	68fb      	ldr	r3, [r7, #12]
 8003218:	4a2e      	ldr	r2, [pc, #184]	; (80032d4 <TIM_OC2_SetConfig+0xe8>)
 800321a:	4013      	ands	r3, r2
 800321c:	60fb      	str	r3, [r7, #12]
  tmpccmrx &= ~TIM_CCMR1_CC2S;
 800321e:	68fb      	ldr	r3, [r7, #12]
 8003220:	4a2d      	ldr	r2, [pc, #180]	; (80032d8 <TIM_OC2_SetConfig+0xec>)
 8003222:	4013      	ands	r3, r2
 8003224:	60fb      	str	r3, [r7, #12]

  /* Select the Output Compare Mode */
  tmpccmrx |= (OC_Config->OCMode << 8U);
 8003226:	683b      	ldr	r3, [r7, #0]
 8003228:	681b      	ldr	r3, [r3, #0]
 800322a:	021b      	lsls	r3, r3, #8
 800322c:	68fa      	ldr	r2, [r7, #12]
 800322e:	4313      	orrs	r3, r2
 8003230:	60fb      	str	r3, [r7, #12]

  /* Reset the Output Polarity level */
  tmpccer &= ~TIM_CCER_CC2P;
 8003232:	697b      	ldr	r3, [r7, #20]
 8003234:	2220      	movs	r2, #32
 8003236:	4393      	bics	r3, r2
 8003238:	617b      	str	r3, [r7, #20]
  /* Set the Output Compare Polarity */
  tmpccer |= (OC_Config->OCPolarity << 4U);
 800323a:	683b      	ldr	r3, [r7, #0]
 800323c:	689b      	ldr	r3, [r3, #8]
 800323e:	011b      	lsls	r3, r3, #4
 8003240:	697a      	ldr	r2, [r7, #20]
 8003242:	4313      	orrs	r3, r2
 8003244:	617b      	str	r3, [r7, #20]

  if (IS_TIM_CCXN_INSTANCE(TIMx, TIM_CHANNEL_2))
 8003246:	687b      	ldr	r3, [r7, #4]
 8003248:	4a24      	ldr	r2, [pc, #144]	; (80032dc <TIM_OC2_SetConfig+0xf0>)
 800324a:	4293      	cmp	r3, r2
 800324c:	d10d      	bne.n	800326a <TIM_OC2_SetConfig+0x7e>
  {
    assert_param(IS_TIM_OCN_POLARITY(OC_Config->OCNPolarity));

    /* Reset the Output N Polarity level */
    tmpccer &= ~TIM_CCER_CC2NP;
 800324e:	697b      	ldr	r3, [r7, #20]
 8003250:	2280      	movs	r2, #128	; 0x80
 8003252:	4393      	bics	r3, r2
 8003254:	617b      	str	r3, [r7, #20]
    /* Set the Output N Polarity */
    tmpccer |= (OC_Config->OCNPolarity << 4U);
 8003256:	683b      	ldr	r3, [r7, #0]
 8003258:	68db      	ldr	r3, [r3, #12]
 800325a:	011b      	lsls	r3, r3, #4
 800325c:	697a      	ldr	r2, [r7, #20]
 800325e:	4313      	orrs	r3, r2
 8003260:	617b      	str	r3, [r7, #20]
    /* Reset the Output N State */
    tmpccer &= ~TIM_CCER_CC2NE;
 8003262:	697b      	ldr	r3, [r7, #20]
 8003264:	2240      	movs	r2, #64	; 0x40
 8003266:	4393      	bics	r3, r2
 8003268:	617b      	str	r3, [r7, #20]

  }

  if (IS_TIM_BREAK_INSTANCE(TIMx))
 800326a:	687b      	ldr	r3, [r7, #4]
 800326c:	4a1b      	ldr	r2, [pc, #108]	; (80032dc <TIM_OC2_SetConfig+0xf0>)
 800326e:	4293      	cmp	r3, r2
 8003270:	d00b      	beq.n	800328a <TIM_OC2_SetConfig+0x9e>
 8003272:	687b      	ldr	r3, [r7, #4]
 8003274:	4a1a      	ldr	r2, [pc, #104]	; (80032e0 <TIM_OC2_SetConfig+0xf4>)
 8003276:	4293      	cmp	r3, r2
 8003278:	d007      	beq.n	800328a <TIM_OC2_SetConfig+0x9e>
 800327a:	687b      	ldr	r3, [r7, #4]
 800327c:	4a19      	ldr	r2, [pc, #100]	; (80032e4 <TIM_OC2_SetConfig+0xf8>)
 800327e:	4293      	cmp	r3, r2
 8003280:	d003      	beq.n	800328a <TIM_OC2_SetConfig+0x9e>
 8003282:	687b      	ldr	r3, [r7, #4]
 8003284:	4a18      	ldr	r2, [pc, #96]	; (80032e8 <TIM_OC2_SetConfig+0xfc>)
 8003286:	4293      	cmp	r3, r2
 8003288:	d113      	bne.n	80032b2 <TIM_OC2_SetConfig+0xc6>
    /* Check parameters */
    assert_param(IS_TIM_OCNIDLE_STATE(OC_Config->OCNIdleState));
    assert_param(IS_TIM_OCIDLE_STATE(OC_Config->OCIdleState));

    /* Reset the Output Compare and Output Compare N IDLE State */
    tmpcr2 &= ~TIM_CR2_OIS2;
 800328a:	693b      	ldr	r3, [r7, #16]
 800328c:	4a17      	ldr	r2, [pc, #92]	; (80032ec <TIM_OC2_SetConfig+0x100>)
 800328e:	4013      	ands	r3, r2
 8003290:	613b      	str	r3, [r7, #16]
    tmpcr2 &= ~TIM_CR2_OIS2N;
 8003292:	693b      	ldr	r3, [r7, #16]
 8003294:	4a16      	ldr	r2, [pc, #88]	; (80032f0 <TIM_OC2_SetConfig+0x104>)
 8003296:	4013      	ands	r3, r2
 8003298:	613b      	str	r3, [r7, #16]
    /* Set the Output Idle state */
    tmpcr2 |= (OC_Config->OCIdleState << 2U);
 800329a:	683b      	ldr	r3, [r7, #0]
 800329c:	695b      	ldr	r3, [r3, #20]
 800329e:	009b      	lsls	r3, r3, #2
 80032a0:	693a      	ldr	r2, [r7, #16]
 80032a2:	4313      	orrs	r3, r2
 80032a4:	613b      	str	r3, [r7, #16]
    /* Set the Output N Idle state */
    tmpcr2 |= (OC_Config->OCNIdleState << 2U);
 80032a6:	683b      	ldr	r3, [r7, #0]
 80032a8:	699b      	ldr	r3, [r3, #24]
 80032aa:	009b      	lsls	r3, r3, #2
 80032ac:	693a      	ldr	r2, [r7, #16]
 80032ae:	4313      	orrs	r3, r2
 80032b0:	613b      	str	r3, [r7, #16]
  }

  /* Write to TIMx CR2 */
  TIMx->CR2 = tmpcr2;
 80032b2:	687b      	ldr	r3, [r7, #4]
 80032b4:	693a      	ldr	r2, [r7, #16]
 80032b6:	605a      	str	r2, [r3, #4]

  /* Write to TIMx CCMR1 */
  TIMx->CCMR1 = tmpccmrx;
 80032b8:	687b      	ldr	r3, [r7, #4]
 80032ba:	68fa      	ldr	r2, [r7, #12]
 80032bc:	619a      	str	r2, [r3, #24]

  /* Set the Capture Compare Register value */
  TIMx->CCR2 = OC_Config->Pulse;
 80032be:	683b      	ldr	r3, [r7, #0]
 80032c0:	685a      	ldr	r2, [r3, #4]
 80032c2:	687b      	ldr	r3, [r7, #4]
 80032c4:	639a      	str	r2, [r3, #56]	; 0x38

  /* Write to TIMx CCER */
  TIMx->CCER = tmpccer;
 80032c6:	687b      	ldr	r3, [r7, #4]
 80032c8:	697a      	ldr	r2, [r7, #20]
 80032ca:	621a      	str	r2, [r3, #32]
}
 80032cc:	46c0      	nop			; (mov r8, r8)
 80032ce:	46bd      	mov	sp, r7
 80032d0:	b006      	add	sp, #24
 80032d2:	bd80      	pop	{r7, pc}
 80032d4:	ffff8fff 	.word	0xffff8fff
 80032d8:	fffffcff 	.word	0xfffffcff
 80032dc:	40012c00 	.word	0x40012c00
 80032e0:	40014000 	.word	0x40014000
 80032e4:	40014400 	.word	0x40014400
 80032e8:	40014800 	.word	0x40014800
 80032ec:	fffffbff 	.word	0xfffffbff
 80032f0:	fffff7ff 	.word	0xfffff7ff

080032f4 <TIM_OC3_SetConfig>:
  * @param  TIMx to select the TIM peripheral
  * @param  OC_Config The output configuration structure
  * @retval None
  */
static void TIM_OC3_SetConfig(TIM_TypeDef *TIMx, TIM_OC_InitTypeDef *OC_Config)
{
 80032f4:	b580      	push	{r7, lr}
 80032f6:	b086      	sub	sp, #24
 80032f8:	af00      	add	r7, sp, #0
 80032fa:	6078      	str	r0, [r7, #4]
 80032fc:	6039      	str	r1, [r7, #0]
  uint32_t tmpccmrx;
  uint32_t tmpccer;
  uint32_t tmpcr2;

  /* Disable the Channel 3: Reset the CC2E Bit */
  TIMx->CCER &= ~TIM_CCER_CC3E;
 80032fe:	687b      	ldr	r3, [r7, #4]
 8003300:	6a1b      	ldr	r3, [r3, #32]
 8003302:	4a35      	ldr	r2, [pc, #212]	; (80033d8 <TIM_OC3_SetConfig+0xe4>)
 8003304:	401a      	ands	r2, r3
 8003306:	687b      	ldr	r3, [r7, #4]
 8003308:	621a      	str	r2, [r3, #32]

  /* Get the TIMx CCER register value */
  tmpccer = TIMx->CCER;
 800330a:	687b      	ldr	r3, [r7, #4]
 800330c:	6a1b      	ldr	r3, [r3, #32]
 800330e:	617b      	str	r3, [r7, #20]
  /* Get the TIMx CR2 register value */
  tmpcr2 =  TIMx->CR2;
 8003310:	687b      	ldr	r3, [r7, #4]
 8003312:	685b      	ldr	r3, [r3, #4]
 8003314:	613b      	str	r3, [r7, #16]

  /* Get the TIMx CCMR2 register value */
  tmpccmrx = TIMx->CCMR2;
 8003316:	687b      	ldr	r3, [r7, #4]
 8003318:	69db      	ldr	r3, [r3, #28]
 800331a:	60fb      	str	r3, [r7, #12]

  /* Reset the Output Compare mode and Capture/Compare selection Bits */
  tmpccmrx &= ~TIM_CCMR2_OC3M;
 800331c:	68fb      	ldr	r3, [r7, #12]
 800331e:	2270      	movs	r2, #112	; 0x70
 8003320:	4393      	bics	r3, r2
 8003322:	60fb      	str	r3, [r7, #12]
  tmpccmrx &= ~TIM_CCMR2_CC3S;
 8003324:	68fb      	ldr	r3, [r7, #12]
 8003326:	2203      	movs	r2, #3
 8003328:	4393      	bics	r3, r2
 800332a:	60fb      	str	r3, [r7, #12]
  /* Select the Output Compare Mode */
  tmpccmrx |= OC_Config->OCMode;
 800332c:	683b      	ldr	r3, [r7, #0]
 800332e:	681b      	ldr	r3, [r3, #0]
 8003330:	68fa      	ldr	r2, [r7, #12]
 8003332:	4313      	orrs	r3, r2
 8003334:	60fb      	str	r3, [r7, #12]

  /* Reset the Output Polarity level */
  tmpccer &= ~TIM_CCER_CC3P;
 8003336:	697b      	ldr	r3, [r7, #20]
 8003338:	4a28      	ldr	r2, [pc, #160]	; (80033dc <TIM_OC3_SetConfig+0xe8>)
 800333a:	4013      	ands	r3, r2
 800333c:	617b      	str	r3, [r7, #20]
  /* Set the Output Compare Polarity */
  tmpccer |= (OC_Config->OCPolarity << 8U);
 800333e:	683b      	ldr	r3, [r7, #0]
 8003340:	689b      	ldr	r3, [r3, #8]
 8003342:	021b      	lsls	r3, r3, #8
 8003344:	697a      	ldr	r2, [r7, #20]
 8003346:	4313      	orrs	r3, r2
 8003348:	617b      	str	r3, [r7, #20]

  if (IS_TIM_CCXN_INSTANCE(TIMx, TIM_CHANNEL_3))
 800334a:	687b      	ldr	r3, [r7, #4]
 800334c:	4a24      	ldr	r2, [pc, #144]	; (80033e0 <TIM_OC3_SetConfig+0xec>)
 800334e:	4293      	cmp	r3, r2
 8003350:	d10d      	bne.n	800336e <TIM_OC3_SetConfig+0x7a>
  {
    assert_param(IS_TIM_OCN_POLARITY(OC_Config->OCNPolarity));

    /* Reset the Output N Polarity level */
    tmpccer &= ~TIM_CCER_CC3NP;
 8003352:	697b      	ldr	r3, [r7, #20]
 8003354:	4a23      	ldr	r2, [pc, #140]	; (80033e4 <TIM_OC3_SetConfig+0xf0>)
 8003356:	4013      	ands	r3, r2
 8003358:	617b      	str	r3, [r7, #20]
    /* Set the Output N Polarity */
    tmpccer |= (OC_Config->OCNPolarity << 8U);
 800335a:	683b      	ldr	r3, [r7, #0]
 800335c:	68db      	ldr	r3, [r3, #12]
 800335e:	021b      	lsls	r3, r3, #8
 8003360:	697a      	ldr	r2, [r7, #20]
 8003362:	4313      	orrs	r3, r2
 8003364:	617b      	str	r3, [r7, #20]
    /* Reset the Output N State */
    tmpccer &= ~TIM_CCER_CC3NE;
 8003366:	697b      	ldr	r3, [r7, #20]
 8003368:	4a1f      	ldr	r2, [pc, #124]	; (80033e8 <TIM_OC3_SetConfig+0xf4>)
 800336a:	4013      	ands	r3, r2
 800336c:	617b      	str	r3, [r7, #20]
  }

  if (IS_TIM_BREAK_INSTANCE(TIMx))
 800336e:	687b      	ldr	r3, [r7, #4]
 8003370:	4a1b      	ldr	r2, [pc, #108]	; (80033e0 <TIM_OC3_SetConfig+0xec>)
 8003372:	4293      	cmp	r3, r2
 8003374:	d00b      	beq.n	800338e <TIM_OC3_SetConfig+0x9a>
 8003376:	687b      	ldr	r3, [r7, #4]
 8003378:	4a1c      	ldr	r2, [pc, #112]	; (80033ec <TIM_OC3_SetConfig+0xf8>)
 800337a:	4293      	cmp	r3, r2
 800337c:	d007      	beq.n	800338e <TIM_OC3_SetConfig+0x9a>
 800337e:	687b      	ldr	r3, [r7, #4]
 8003380:	4a1b      	ldr	r2, [pc, #108]	; (80033f0 <TIM_OC3_SetConfig+0xfc>)
 8003382:	4293      	cmp	r3, r2
 8003384:	d003      	beq.n	800338e <TIM_OC3_SetConfig+0x9a>
 8003386:	687b      	ldr	r3, [r7, #4]
 8003388:	4a1a      	ldr	r2, [pc, #104]	; (80033f4 <TIM_OC3_SetConfig+0x100>)
 800338a:	4293      	cmp	r3, r2
 800338c:	d113      	bne.n	80033b6 <TIM_OC3_SetConfig+0xc2>
    /* Check parameters */
    assert_param(IS_TIM_OCNIDLE_STATE(OC_Config->OCNIdleState));
    assert_param(IS_TIM_OCIDLE_STATE(OC_Config->OCIdleState));

    /* Reset the Output Compare and Output Compare N IDLE State */
    tmpcr2 &= ~TIM_CR2_OIS3;
 800338e:	693b      	ldr	r3, [r7, #16]
 8003390:	4a19      	ldr	r2, [pc, #100]	; (80033f8 <TIM_OC3_SetConfig+0x104>)
 8003392:	4013      	ands	r3, r2
 8003394:	613b      	str	r3, [r7, #16]
    tmpcr2 &= ~TIM_CR2_OIS3N;
 8003396:	693b      	ldr	r3, [r7, #16]
 8003398:	4a18      	ldr	r2, [pc, #96]	; (80033fc <TIM_OC3_SetConfig+0x108>)
 800339a:	4013      	ands	r3, r2
 800339c:	613b      	str	r3, [r7, #16]
    /* Set the Output Idle state */
    tmpcr2 |= (OC_Config->OCIdleState << 4U);
 800339e:	683b      	ldr	r3, [r7, #0]
 80033a0:	695b      	ldr	r3, [r3, #20]
 80033a2:	011b      	lsls	r3, r3, #4
 80033a4:	693a      	ldr	r2, [r7, #16]
 80033a6:	4313      	orrs	r3, r2
 80033a8:	613b      	str	r3, [r7, #16]
    /* Set the Output N Idle state */
    tmpcr2 |= (OC_Config->OCNIdleState << 4U);
 80033aa:	683b      	ldr	r3, [r7, #0]
 80033ac:	699b      	ldr	r3, [r3, #24]
 80033ae:	011b      	lsls	r3, r3, #4
 80033b0:	693a      	ldr	r2, [r7, #16]
 80033b2:	4313      	orrs	r3, r2
 80033b4:	613b      	str	r3, [r7, #16]
  }

  /* Write to TIMx CR2 */
  TIMx->CR2 = tmpcr2;
 80033b6:	687b      	ldr	r3, [r7, #4]
 80033b8:	693a      	ldr	r2, [r7, #16]
 80033ba:	605a      	str	r2, [r3, #4]

  /* Write to TIMx CCMR2 */
  TIMx->CCMR2 = tmpccmrx;
 80033bc:	687b      	ldr	r3, [r7, #4]
 80033be:	68fa      	ldr	r2, [r7, #12]
 80033c0:	61da      	str	r2, [r3, #28]

  /* Set the Capture Compare Register value */
  TIMx->CCR3 = OC_Config->Pulse;
 80033c2:	683b      	ldr	r3, [r7, #0]
 80033c4:	685a      	ldr	r2, [r3, #4]
 80033c6:	687b      	ldr	r3, [r7, #4]
 80033c8:	63da      	str	r2, [r3, #60]	; 0x3c

  /* Write to TIMx CCER */
  TIMx->CCER = tmpccer;
 80033ca:	687b      	ldr	r3, [r7, #4]
 80033cc:	697a      	ldr	r2, [r7, #20]
 80033ce:	621a      	str	r2, [r3, #32]
}
 80033d0:	46c0      	nop			; (mov r8, r8)
 80033d2:	46bd      	mov	sp, r7
 80033d4:	b006      	add	sp, #24
 80033d6:	bd80      	pop	{r7, pc}
 80033d8:	fffffeff 	.word	0xfffffeff
 80033dc:	fffffdff 	.word	0xfffffdff
 80033e0:	40012c00 	.word	0x40012c00
 80033e4:	fffff7ff 	.word	0xfffff7ff
 80033e8:	fffffbff 	.word	0xfffffbff
 80033ec:	40014000 	.word	0x40014000
 80033f0:	40014400 	.word	0x40014400
 80033f4:	40014800 	.word	0x40014800
 80033f8:	ffffefff 	.word	0xffffefff
 80033fc:	ffffdfff 	.word	0xffffdfff

08003400 <TIM_OC4_SetConfig>:
  * @param  TIMx to select the TIM peripheral
  * @param  OC_Config The output configuration structure
  * @retval None
  */
static void TIM_OC4_SetConfig(TIM_TypeDef *TIMx, TIM_OC_InitTypeDef *OC_Config)
{
 8003400:	b580      	push	{r7, lr}
 8003402:	b086      	sub	sp, #24
 8003404:	af00      	add	r7, sp, #0
 8003406:	6078      	str	r0, [r7, #4]
 8003408:	6039      	str	r1, [r7, #0]
  uint32_t tmpccmrx;
  uint32_t tmpccer;
  uint32_t tmpcr2;

  /* Disable the Channel 4: Reset the CC4E Bit */
  TIMx->CCER &= ~TIM_CCER_CC4E;
 800340a:	687b      	ldr	r3, [r7, #4]
 800340c:	6a1b      	ldr	r3, [r3, #32]
 800340e:	4a28      	ldr	r2, [pc, #160]	; (80034b0 <TIM_OC4_SetConfig+0xb0>)
 8003410:	401a      	ands	r2, r3
 8003412:	687b      	ldr	r3, [r7, #4]
 8003414:	621a      	str	r2, [r3, #32]

  /* Get the TIMx CCER register value */
  tmpccer = TIMx->CCER;
 8003416:	687b      	ldr	r3, [r7, #4]
 8003418:	6a1b      	ldr	r3, [r3, #32]
 800341a:	613b      	str	r3, [r7, #16]
  /* Get the TIMx CR2 register value */
  tmpcr2 =  TIMx->CR2;
 800341c:	687b      	ldr	r3, [r7, #4]
 800341e:	685b      	ldr	r3, [r3, #4]
 8003420:	617b      	str	r3, [r7, #20]

  /* Get the TIMx CCMR2 register value */
  tmpccmrx = TIMx->CCMR2;
 8003422:	687b      	ldr	r3, [r7, #4]
 8003424:	69db      	ldr	r3, [r3, #28]
 8003426:	60fb      	str	r3, [r7, #12]

  /* Reset the Output Compare mode and Capture/Compare selection Bits */
  tmpccmrx &= ~TIM_CCMR2_OC4M;
 8003428:	68fb      	ldr	r3, [r7, #12]
 800342a:	4a22      	ldr	r2, [pc, #136]	; (80034b4 <TIM_OC4_SetConfig+0xb4>)
 800342c:	4013      	ands	r3, r2
 800342e:	60fb      	str	r3, [r7, #12]
  tmpccmrx &= ~TIM_CCMR2_CC4S;
 8003430:	68fb      	ldr	r3, [r7, #12]
 8003432:	4a21      	ldr	r2, [pc, #132]	; (80034b8 <TIM_OC4_SetConfig+0xb8>)
 8003434:	4013      	ands	r3, r2
 8003436:	60fb      	str	r3, [r7, #12]

  /* Select the Output Compare Mode */
  tmpccmrx |= (OC_Config->OCMode << 8U);
 8003438:	683b      	ldr	r3, [r7, #0]
 800343a:	681b      	ldr	r3, [r3, #0]
 800343c:	021b      	lsls	r3, r3, #8
 800343e:	68fa      	ldr	r2, [r7, #12]
 8003440:	4313      	orrs	r3, r2
 8003442:	60fb      	str	r3, [r7, #12]

  /* Reset the Output Polarity level */
  tmpccer &= ~TIM_CCER_CC4P;
 8003444:	693b      	ldr	r3, [r7, #16]
 8003446:	4a1d      	ldr	r2, [pc, #116]	; (80034bc <TIM_OC4_SetConfig+0xbc>)
 8003448:	4013      	ands	r3, r2
 800344a:	613b      	str	r3, [r7, #16]
  /* Set the Output Compare Polarity */
  tmpccer |= (OC_Config->OCPolarity << 12U);
 800344c:	683b      	ldr	r3, [r7, #0]
 800344e:	689b      	ldr	r3, [r3, #8]
 8003450:	031b      	lsls	r3, r3, #12
 8003452:	693a      	ldr	r2, [r7, #16]
 8003454:	4313      	orrs	r3, r2
 8003456:	613b      	str	r3, [r7, #16]

  if (IS_TIM_BREAK_INSTANCE(TIMx))
 8003458:	687b      	ldr	r3, [r7, #4]
 800345a:	4a19      	ldr	r2, [pc, #100]	; (80034c0 <TIM_OC4_SetConfig+0xc0>)
 800345c:	4293      	cmp	r3, r2
 800345e:	d00b      	beq.n	8003478 <TIM_OC4_SetConfig+0x78>
 8003460:	687b      	ldr	r3, [r7, #4]
 8003462:	4a18      	ldr	r2, [pc, #96]	; (80034c4 <TIM_OC4_SetConfig+0xc4>)
 8003464:	4293      	cmp	r3, r2
 8003466:	d007      	beq.n	8003478 <TIM_OC4_SetConfig+0x78>
 8003468:	687b      	ldr	r3, [r7, #4]
 800346a:	4a17      	ldr	r2, [pc, #92]	; (80034c8 <TIM_OC4_SetConfig+0xc8>)
 800346c:	4293      	cmp	r3, r2
 800346e:	d003      	beq.n	8003478 <TIM_OC4_SetConfig+0x78>
 8003470:	687b      	ldr	r3, [r7, #4]
 8003472:	4a16      	ldr	r2, [pc, #88]	; (80034cc <TIM_OC4_SetConfig+0xcc>)
 8003474:	4293      	cmp	r3, r2
 8003476:	d109      	bne.n	800348c <TIM_OC4_SetConfig+0x8c>
  {
    /* Check parameters */
    assert_param(IS_TIM_OCIDLE_STATE(OC_Config->OCIdleState));

    /* Reset the Output Compare IDLE State */
    tmpcr2 &= ~TIM_CR2_OIS4;
 8003478:	697b      	ldr	r3, [r7, #20]
 800347a:	4a15      	ldr	r2, [pc, #84]	; (80034d0 <TIM_OC4_SetConfig+0xd0>)
 800347c:	4013      	ands	r3, r2
 800347e:	617b      	str	r3, [r7, #20]

    /* Set the Output Idle state */
    tmpcr2 |= (OC_Config->OCIdleState << 6U);
 8003480:	683b      	ldr	r3, [r7, #0]
 8003482:	695b      	ldr	r3, [r3, #20]
 8003484:	019b      	lsls	r3, r3, #6
 8003486:	697a      	ldr	r2, [r7, #20]
 8003488:	4313      	orrs	r3, r2
 800348a:	617b      	str	r3, [r7, #20]
  }

  /* Write to TIMx CR2 */
  TIMx->CR2 = tmpcr2;
 800348c:	687b      	ldr	r3, [r7, #4]
 800348e:	697a      	ldr	r2, [r7, #20]
 8003490:	605a      	str	r2, [r3, #4]

  /* Write to TIMx CCMR2 */
  TIMx->CCMR2 = tmpccmrx;
 8003492:	687b      	ldr	r3, [r7, #4]
 8003494:	68fa      	ldr	r2, [r7, #12]
 8003496:	61da      	str	r2, [r3, #28]

  /* Set the Capture Compare Register value */
  TIMx->CCR4 = OC_Config->Pulse;
 8003498:	683b      	ldr	r3, [r7, #0]
 800349a:	685a      	ldr	r2, [r3, #4]
 800349c:	687b      	ldr	r3, [r7, #4]
 800349e:	641a      	str	r2, [r3, #64]	; 0x40

  /* Write to TIMx CCER */
  TIMx->CCER = tmpccer;
 80034a0:	687b      	ldr	r3, [r7, #4]
 80034a2:	693a      	ldr	r2, [r7, #16]
 80034a4:	621a      	str	r2, [r3, #32]
}
 80034a6:	46c0      	nop			; (mov r8, r8)
 80034a8:	46bd      	mov	sp, r7
 80034aa:	b006      	add	sp, #24
 80034ac:	bd80      	pop	{r7, pc}
 80034ae:	46c0      	nop			; (mov r8, r8)
 80034b0:	ffffefff 	.word	0xffffefff
 80034b4:	ffff8fff 	.word	0xffff8fff
 80034b8:	fffffcff 	.word	0xfffffcff
 80034bc:	ffffdfff 	.word	0xffffdfff
 80034c0:	40012c00 	.word	0x40012c00
 80034c4:	40014000 	.word	0x40014000
 80034c8:	40014400 	.word	0x40014400
 80034cc:	40014800 	.word	0x40014800
 80034d0:	ffffbfff 	.word	0xffffbfff

080034d4 <TIM_TI1_ConfigInputStage>:
  * @param  TIM_ICFilter Specifies the Input Capture Filter.
  *          This parameter must be a value between 0x00 and 0x0F.
  * @retval None
  */
static void TIM_TI1_ConfigInputStage(TIM_TypeDef *TIMx, uint32_t TIM_ICPolarity, uint32_t TIM_ICFilter)
{
 80034d4:	b580      	push	{r7, lr}
 80034d6:	b086      	sub	sp, #24
 80034d8:	af00      	add	r7, sp, #0
 80034da:	60f8      	str	r0, [r7, #12]
 80034dc:	60b9      	str	r1, [r7, #8]
 80034de:	607a      	str	r2, [r7, #4]
  uint32_t tmpccmr1;
  uint32_t tmpccer;

  /* Disable the Channel 1: Reset the CC1E Bit */
  tmpccer = TIMx->CCER;
 80034e0:	68fb      	ldr	r3, [r7, #12]
 80034e2:	6a1b      	ldr	r3, [r3, #32]
 80034e4:	617b      	str	r3, [r7, #20]
  TIMx->CCER &= ~TIM_CCER_CC1E;
 80034e6:	68fb      	ldr	r3, [r7, #12]
 80034e8:	6a1b      	ldr	r3, [r3, #32]
 80034ea:	2201      	movs	r2, #1
 80034ec:	4393      	bics	r3, r2
 80034ee:	001a      	movs	r2, r3
 80034f0:	68fb      	ldr	r3, [r7, #12]
 80034f2:	621a      	str	r2, [r3, #32]
  tmpccmr1 = TIMx->CCMR1;
 80034f4:	68fb      	ldr	r3, [r7, #12]
 80034f6:	699b      	ldr	r3, [r3, #24]
 80034f8:	613b      	str	r3, [r7, #16]

  /* Set the filter */
  tmpccmr1 &= ~TIM_CCMR1_IC1F;
 80034fa:	693b      	ldr	r3, [r7, #16]
 80034fc:	22f0      	movs	r2, #240	; 0xf0
 80034fe:	4393      	bics	r3, r2
 8003500:	613b      	str	r3, [r7, #16]
  tmpccmr1 |= (TIM_ICFilter << 4U);
 8003502:	687b      	ldr	r3, [r7, #4]
 8003504:	011b      	lsls	r3, r3, #4
 8003506:	693a      	ldr	r2, [r7, #16]
 8003508:	4313      	orrs	r3, r2
 800350a:	613b      	str	r3, [r7, #16]

  /* Select the Polarity and set the CC1E Bit */
  tmpccer &= ~(TIM_CCER_CC1P | TIM_CCER_CC1NP);
 800350c:	697b      	ldr	r3, [r7, #20]
 800350e:	220a      	movs	r2, #10
 8003510:	4393      	bics	r3, r2
 8003512:	617b      	str	r3, [r7, #20]
  tmpccer |= TIM_ICPolarity;
 8003514:	697a      	ldr	r2, [r7, #20]
 8003516:	68bb      	ldr	r3, [r7, #8]
 8003518:	4313      	orrs	r3, r2
 800351a:	617b      	str	r3, [r7, #20]

  /* Write to TIMx CCMR1 and CCER registers */
  TIMx->CCMR1 = tmpccmr1;
 800351c:	68fb      	ldr	r3, [r7, #12]
 800351e:	693a      	ldr	r2, [r7, #16]
 8003520:	619a      	str	r2, [r3, #24]
  TIMx->CCER = tmpccer;
 8003522:	68fb      	ldr	r3, [r7, #12]
 8003524:	697a      	ldr	r2, [r7, #20]
 8003526:	621a      	str	r2, [r3, #32]
}
 8003528:	46c0      	nop			; (mov r8, r8)
 800352a:	46bd      	mov	sp, r7
 800352c:	b006      	add	sp, #24
 800352e:	bd80      	pop	{r7, pc}

08003530 <TIM_TI2_ConfigInputStage>:
  * @param  TIM_ICFilter Specifies the Input Capture Filter.
  *          This parameter must be a value between 0x00 and 0x0F.
  * @retval None
  */
static void TIM_TI2_ConfigInputStage(TIM_TypeDef *TIMx, uint32_t TIM_ICPolarity, uint32_t TIM_ICFilter)
{
 8003530:	b580      	push	{r7, lr}
 8003532:	b086      	sub	sp, #24
 8003534:	af00      	add	r7, sp, #0
 8003536:	60f8      	str	r0, [r7, #12]
 8003538:	60b9      	str	r1, [r7, #8]
 800353a:	607a      	str	r2, [r7, #4]
  uint32_t tmpccmr1;
  uint32_t tmpccer;

  /* Disable the Channel 2: Reset the CC2E Bit */
  TIMx->CCER &= ~TIM_CCER_CC2E;
 800353c:	68fb      	ldr	r3, [r7, #12]
 800353e:	6a1b      	ldr	r3, [r3, #32]
 8003540:	2210      	movs	r2, #16
 8003542:	4393      	bics	r3, r2
 8003544:	001a      	movs	r2, r3
 8003546:	68fb      	ldr	r3, [r7, #12]
 8003548:	621a      	str	r2, [r3, #32]
  tmpccmr1 = TIMx->CCMR1;
 800354a:	68fb      	ldr	r3, [r7, #12]
 800354c:	699b      	ldr	r3, [r3, #24]
 800354e:	617b      	str	r3, [r7, #20]
  tmpccer = TIMx->CCER;
 8003550:	68fb      	ldr	r3, [r7, #12]
 8003552:	6a1b      	ldr	r3, [r3, #32]
 8003554:	613b      	str	r3, [r7, #16]

  /* Set the filter */
  tmpccmr1 &= ~TIM_CCMR1_IC2F;
 8003556:	697b      	ldr	r3, [r7, #20]
 8003558:	4a0d      	ldr	r2, [pc, #52]	; (8003590 <TIM_TI2_ConfigInputStage+0x60>)
 800355a:	4013      	ands	r3, r2
 800355c:	617b      	str	r3, [r7, #20]
  tmpccmr1 |= (TIM_ICFilter << 12U);
 800355e:	687b      	ldr	r3, [r7, #4]
 8003560:	031b      	lsls	r3, r3, #12
 8003562:	697a      	ldr	r2, [r7, #20]
 8003564:	4313      	orrs	r3, r2
 8003566:	617b      	str	r3, [r7, #20]

  /* Select the Polarity and set the CC2E Bit */
  tmpccer &= ~(TIM_CCER_CC2P | TIM_CCER_CC2NP);
 8003568:	693b      	ldr	r3, [r7, #16]
 800356a:	22a0      	movs	r2, #160	; 0xa0
 800356c:	4393      	bics	r3, r2
 800356e:	613b      	str	r3, [r7, #16]
  tmpccer |= (TIM_ICPolarity << 4U);
 8003570:	68bb      	ldr	r3, [r7, #8]
 8003572:	011b      	lsls	r3, r3, #4
 8003574:	693a      	ldr	r2, [r7, #16]
 8003576:	4313      	orrs	r3, r2
 8003578:	613b      	str	r3, [r7, #16]

  /* Write to TIMx CCMR1 and CCER registers */
  TIMx->CCMR1 = tmpccmr1 ;
 800357a:	68fb      	ldr	r3, [r7, #12]
 800357c:	697a      	ldr	r2, [r7, #20]
 800357e:	619a      	str	r2, [r3, #24]
  TIMx->CCER = tmpccer;
 8003580:	68fb      	ldr	r3, [r7, #12]
 8003582:	693a      	ldr	r2, [r7, #16]
 8003584:	621a      	str	r2, [r3, #32]
}
 8003586:	46c0      	nop			; (mov r8, r8)
 8003588:	46bd      	mov	sp, r7
 800358a:	b006      	add	sp, #24
 800358c:	bd80      	pop	{r7, pc}
 800358e:	46c0      	nop			; (mov r8, r8)
 8003590:	ffff0fff 	.word	0xffff0fff

08003594 <TIM_ITRx_SetConfig>:
  *            @arg TIM_TS_TI2FP2: Filtered Timer Input 2
  *            @arg TIM_TS_ETRF: External Trigger input
  * @retval None
  */
static void TIM_ITRx_SetConfig(TIM_TypeDef *TIMx, uint32_t InputTriggerSource)
{
 8003594:	b580      	push	{r7, lr}
 8003596:	b084      	sub	sp, #16
 8003598:	af00      	add	r7, sp, #0
 800359a:	6078      	str	r0, [r7, #4]
 800359c:	6039      	str	r1, [r7, #0]
  uint32_t tmpsmcr;

  /* Get the TIMx SMCR register value */
  tmpsmcr = TIMx->SMCR;
 800359e:	687b      	ldr	r3, [r7, #4]
 80035a0:	689b      	ldr	r3, [r3, #8]
 80035a2:	60fb      	str	r3, [r7, #12]
  /* Reset the TS Bits */
  tmpsmcr &= ~TIM_SMCR_TS;
 80035a4:	68fb      	ldr	r3, [r7, #12]
 80035a6:	2270      	movs	r2, #112	; 0x70
 80035a8:	4393      	bics	r3, r2
 80035aa:	60fb      	str	r3, [r7, #12]
  /* Set the Input Trigger source and the slave mode*/
  tmpsmcr |= (InputTriggerSource | TIM_SLAVEMODE_EXTERNAL1);
 80035ac:	683a      	ldr	r2, [r7, #0]
 80035ae:	68fb      	ldr	r3, [r7, #12]
 80035b0:	4313      	orrs	r3, r2
 80035b2:	2207      	movs	r2, #7
 80035b4:	4313      	orrs	r3, r2
 80035b6:	60fb      	str	r3, [r7, #12]
  /* Write to TIMx SMCR */
  TIMx->SMCR = tmpsmcr;
 80035b8:	687b      	ldr	r3, [r7, #4]
 80035ba:	68fa      	ldr	r2, [r7, #12]
 80035bc:	609a      	str	r2, [r3, #8]
}
 80035be:	46c0      	nop			; (mov r8, r8)
 80035c0:	46bd      	mov	sp, r7
 80035c2:	b004      	add	sp, #16
 80035c4:	bd80      	pop	{r7, pc}
	...

080035c8 <TIM_ETR_SetConfig>:
  *          This parameter must be a value between 0x00 and 0x0F
  * @retval None
  */
void TIM_ETR_SetConfig(TIM_TypeDef *TIMx, uint32_t TIM_ExtTRGPrescaler,
                       uint32_t TIM_ExtTRGPolarity, uint32_t ExtTRGFilter)
{
 80035c8:	b580      	push	{r7, lr}
 80035ca:	b086      	sub	sp, #24
 80035cc:	af00      	add	r7, sp, #0
 80035ce:	60f8      	str	r0, [r7, #12]
 80035d0:	60b9      	str	r1, [r7, #8]
 80035d2:	607a      	str	r2, [r7, #4]
 80035d4:	603b      	str	r3, [r7, #0]
  uint32_t tmpsmcr;

  tmpsmcr = TIMx->SMCR;
 80035d6:	68fb      	ldr	r3, [r7, #12]
 80035d8:	689b      	ldr	r3, [r3, #8]
 80035da:	617b      	str	r3, [r7, #20]

  /* Reset the ETR Bits */
  tmpsmcr &= ~(TIM_SMCR_ETF | TIM_SMCR_ETPS | TIM_SMCR_ECE | TIM_SMCR_ETP);
 80035dc:	697b      	ldr	r3, [r7, #20]
 80035de:	4a09      	ldr	r2, [pc, #36]	; (8003604 <TIM_ETR_SetConfig+0x3c>)
 80035e0:	4013      	ands	r3, r2
 80035e2:	617b      	str	r3, [r7, #20]

  /* Set the Prescaler, the Filter value and the Polarity */
  tmpsmcr |= (uint32_t)(TIM_ExtTRGPrescaler | (TIM_ExtTRGPolarity | (ExtTRGFilter << 8U)));
 80035e4:	683b      	ldr	r3, [r7, #0]
 80035e6:	021a      	lsls	r2, r3, #8
 80035e8:	687b      	ldr	r3, [r7, #4]
 80035ea:	431a      	orrs	r2, r3
 80035ec:	68bb      	ldr	r3, [r7, #8]
 80035ee:	4313      	orrs	r3, r2
 80035f0:	697a      	ldr	r2, [r7, #20]
 80035f2:	4313      	orrs	r3, r2
 80035f4:	617b      	str	r3, [r7, #20]

  /* Write to TIMx SMCR */
  TIMx->SMCR = tmpsmcr;
 80035f6:	68fb      	ldr	r3, [r7, #12]
 80035f8:	697a      	ldr	r2, [r7, #20]
 80035fa:	609a      	str	r2, [r3, #8]
}
 80035fc:	46c0      	nop			; (mov r8, r8)
 80035fe:	46bd      	mov	sp, r7
 8003600:	b006      	add	sp, #24
 8003602:	bd80      	pop	{r7, pc}
 8003604:	ffff00ff 	.word	0xffff00ff

08003608 <TIM_CCxChannelCmd>:
  * @param  ChannelState specifies the TIM Channel CCxE bit new state.
  *          This parameter can be: TIM_CCx_ENABLE or TIM_CCx_DISABLE.
  * @retval None
  */
void TIM_CCxChannelCmd(TIM_TypeDef *TIMx, uint32_t Channel, uint32_t ChannelState)
{
 8003608:	b580      	push	{r7, lr}
 800360a:	b086      	sub	sp, #24
 800360c:	af00      	add	r7, sp, #0
 800360e:	60f8      	str	r0, [r7, #12]
 8003610:	60b9      	str	r1, [r7, #8]
 8003612:	607a      	str	r2, [r7, #4]

  /* Check the parameters */
  assert_param(IS_TIM_CC1_INSTANCE(TIMx));
  assert_param(IS_TIM_CHANNELS(Channel));

  tmp = TIM_CCER_CC1E << (Channel & 0x1FU); /* 0x1FU = 31 bits max shift */
 8003614:	68bb      	ldr	r3, [r7, #8]
 8003616:	221f      	movs	r2, #31
 8003618:	4013      	ands	r3, r2
 800361a:	2201      	movs	r2, #1
 800361c:	409a      	lsls	r2, r3
 800361e:	0013      	movs	r3, r2
 8003620:	617b      	str	r3, [r7, #20]

  /* Reset the CCxE Bit */
  TIMx->CCER &= ~tmp;
 8003622:	68fb      	ldr	r3, [r7, #12]
 8003624:	6a1b      	ldr	r3, [r3, #32]
 8003626:	697a      	ldr	r2, [r7, #20]
 8003628:	43d2      	mvns	r2, r2
 800362a:	401a      	ands	r2, r3
 800362c:	68fb      	ldr	r3, [r7, #12]
 800362e:	621a      	str	r2, [r3, #32]

  /* Set or reset the CCxE Bit */
  TIMx->CCER |= (uint32_t)(ChannelState << (Channel & 0x1FU)); /* 0x1FU = 31 bits max shift */
 8003630:	68fb      	ldr	r3, [r7, #12]
 8003632:	6a1a      	ldr	r2, [r3, #32]
 8003634:	68bb      	ldr	r3, [r7, #8]
 8003636:	211f      	movs	r1, #31
 8003638:	400b      	ands	r3, r1
 800363a:	6879      	ldr	r1, [r7, #4]
 800363c:	4099      	lsls	r1, r3
 800363e:	000b      	movs	r3, r1
 8003640:	431a      	orrs	r2, r3
 8003642:	68fb      	ldr	r3, [r7, #12]
 8003644:	621a      	str	r2, [r3, #32]
}
 8003646:	46c0      	nop			; (mov r8, r8)
 8003648:	46bd      	mov	sp, r7
 800364a:	b006      	add	sp, #24
 800364c:	bd80      	pop	{r7, pc}
	...

08003650 <HAL_TIMEx_MasterConfigSynchronization>:
  *         mode.
  * @retval HAL status
  */
HAL_StatusTypeDef HAL_TIMEx_MasterConfigSynchronization(TIM_HandleTypeDef *htim,
                                                        TIM_MasterConfigTypeDef *sMasterConfig)
{
 8003650:	b580      	push	{r7, lr}
 8003652:	b084      	sub	sp, #16
 8003654:	af00      	add	r7, sp, #0
 8003656:	6078      	str	r0, [r7, #4]
 8003658:	6039      	str	r1, [r7, #0]
  assert_param(IS_TIM_MASTER_INSTANCE(htim->Instance));
  assert_param(IS_TIM_TRGO_SOURCE(sMasterConfig->MasterOutputTrigger));
  assert_param(IS_TIM_MSM_STATE(sMasterConfig->MasterSlaveMode));

  /* Check input state */
  __HAL_LOCK(htim);
 800365a:	687b      	ldr	r3, [r7, #4]
 800365c:	223c      	movs	r2, #60	; 0x3c
 800365e:	5c9b      	ldrb	r3, [r3, r2]
 8003660:	2b01      	cmp	r3, #1
 8003662:	d101      	bne.n	8003668 <HAL_TIMEx_MasterConfigSynchronization+0x18>
 8003664:	2302      	movs	r3, #2
 8003666:	e047      	b.n	80036f8 <HAL_TIMEx_MasterConfigSynchronization+0xa8>
 8003668:	687b      	ldr	r3, [r7, #4]
 800366a:	223c      	movs	r2, #60	; 0x3c
 800366c:	2101      	movs	r1, #1
 800366e:	5499      	strb	r1, [r3, r2]

  /* Change the handler state */
  htim->State = HAL_TIM_STATE_BUSY;
 8003670:	687b      	ldr	r3, [r7, #4]
 8003672:	223d      	movs	r2, #61	; 0x3d
 8003674:	2102      	movs	r1, #2
 8003676:	5499      	strb	r1, [r3, r2]

  /* Get the TIMx CR2 register value */
  tmpcr2 = htim->Instance->CR2;
 8003678:	687b      	ldr	r3, [r7, #4]
 800367a:	681b      	ldr	r3, [r3, #0]
 800367c:	685b      	ldr	r3, [r3, #4]
 800367e:	60fb      	str	r3, [r7, #12]

  /* Get the TIMx SMCR register value */
  tmpsmcr = htim->Instance->SMCR;
 8003680:	687b      	ldr	r3, [r7, #4]
 8003682:	681b      	ldr	r3, [r3, #0]
 8003684:	689b      	ldr	r3, [r3, #8]
 8003686:	60bb      	str	r3, [r7, #8]

  /* Reset the MMS Bits */
  tmpcr2 &= ~TIM_CR2_MMS;
 8003688:	68fb      	ldr	r3, [r7, #12]
 800368a:	2270      	movs	r2, #112	; 0x70
 800368c:	4393      	bics	r3, r2
 800368e:	60fb      	str	r3, [r7, #12]
  /* Select the TRGO source */
  tmpcr2 |=  sMasterConfig->MasterOutputTrigger;
 8003690:	683b      	ldr	r3, [r7, #0]
 8003692:	681b      	ldr	r3, [r3, #0]
 8003694:	68fa      	ldr	r2, [r7, #12]
 8003696:	4313      	orrs	r3, r2
 8003698:	60fb      	str	r3, [r7, #12]

  /* Update TIMx CR2 */
  htim->Instance->CR2 = tmpcr2;
 800369a:	687b      	ldr	r3, [r7, #4]
 800369c:	681b      	ldr	r3, [r3, #0]
 800369e:	68fa      	ldr	r2, [r7, #12]
 80036a0:	605a      	str	r2, [r3, #4]

  if (IS_TIM_SLAVE_INSTANCE(htim->Instance))
 80036a2:	687b      	ldr	r3, [r7, #4]
 80036a4:	681b      	ldr	r3, [r3, #0]
 80036a6:	4a16      	ldr	r2, [pc, #88]	; (8003700 <HAL_TIMEx_MasterConfigSynchronization+0xb0>)
 80036a8:	4293      	cmp	r3, r2
 80036aa:	d00f      	beq.n	80036cc <HAL_TIMEx_MasterConfigSynchronization+0x7c>
 80036ac:	687b      	ldr	r3, [r7, #4]
 80036ae:	681a      	ldr	r2, [r3, #0]
 80036b0:	2380      	movs	r3, #128	; 0x80
 80036b2:	05db      	lsls	r3, r3, #23
 80036b4:	429a      	cmp	r2, r3
 80036b6:	d009      	beq.n	80036cc <HAL_TIMEx_MasterConfigSynchronization+0x7c>
 80036b8:	687b      	ldr	r3, [r7, #4]
 80036ba:	681b      	ldr	r3, [r3, #0]
 80036bc:	4a11      	ldr	r2, [pc, #68]	; (8003704 <HAL_TIMEx_MasterConfigSynchronization+0xb4>)
 80036be:	4293      	cmp	r3, r2
 80036c0:	d004      	beq.n	80036cc <HAL_TIMEx_MasterConfigSynchronization+0x7c>
 80036c2:	687b      	ldr	r3, [r7, #4]
 80036c4:	681b      	ldr	r3, [r3, #0]
 80036c6:	4a10      	ldr	r2, [pc, #64]	; (8003708 <HAL_TIMEx_MasterConfigSynchronization+0xb8>)
 80036c8:	4293      	cmp	r3, r2
 80036ca:	d10c      	bne.n	80036e6 <HAL_TIMEx_MasterConfigSynchronization+0x96>
  {
    /* Reset the MSM Bit */
    tmpsmcr &= ~TIM_SMCR_MSM;
 80036cc:	68bb      	ldr	r3, [r7, #8]
 80036ce:	2280      	movs	r2, #128	; 0x80
 80036d0:	4393      	bics	r3, r2
 80036d2:	60bb      	str	r3, [r7, #8]
    /* Set master mode */
    tmpsmcr |= sMasterConfig->MasterSlaveMode;
 80036d4:	683b      	ldr	r3, [r7, #0]
 80036d6:	685b      	ldr	r3, [r3, #4]
 80036d8:	68ba      	ldr	r2, [r7, #8]
 80036da:	4313      	orrs	r3, r2
 80036dc:	60bb      	str	r3, [r7, #8]

    /* Update TIMx SMCR */
    htim->Instance->SMCR = tmpsmcr;
 80036de:	687b      	ldr	r3, [r7, #4]
 80036e0:	681b      	ldr	r3, [r3, #0]
 80036e2:	68ba      	ldr	r2, [r7, #8]
 80036e4:	609a      	str	r2, [r3, #8]
  }

  /* Change the htim state */
  htim->State = HAL_TIM_STATE_READY;
 80036e6:	687b      	ldr	r3, [r7, #4]
 80036e8:	223d      	movs	r2, #61	; 0x3d
 80036ea:	2101      	movs	r1, #1
 80036ec:	5499      	strb	r1, [r3, r2]

  __HAL_UNLOCK(htim);
 80036ee:	687b      	ldr	r3, [r7, #4]
 80036f0:	223c      	movs	r2, #60	; 0x3c
 80036f2:	2100      	movs	r1, #0
 80036f4:	5499      	strb	r1, [r3, r2]

  return HAL_OK;
 80036f6:	2300      	movs	r3, #0
}
 80036f8:	0018      	movs	r0, r3
 80036fa:	46bd      	mov	sp, r7
 80036fc:	b004      	add	sp, #16
 80036fe:	bd80      	pop	{r7, pc}
 8003700:	40012c00 	.word	0x40012c00
 8003704:	40000400 	.word	0x40000400
 8003708:	40014000 	.word	0x40014000

0800370c <HAL_UART_Init>:
  *        parameters in the UART_InitTypeDef and initialize the associated handle.
  * @param huart UART handle.
  * @retval HAL status
  */
HAL_StatusTypeDef HAL_UART_Init(UART_HandleTypeDef *huart)
{
 800370c:	b580      	push	{r7, lr}
 800370e:	b082      	sub	sp, #8
 8003710:	af00      	add	r7, sp, #0
 8003712:	6078      	str	r0, [r7, #4]
  /* Check the UART handle allocation */
  if (huart == NULL)
 8003714:	687b      	ldr	r3, [r7, #4]
 8003716:	2b00      	cmp	r3, #0
 8003718:	d101      	bne.n	800371e <HAL_UART_Init+0x12>
  {
    return HAL_ERROR;
 800371a:	2301      	movs	r3, #1
 800371c:	e044      	b.n	80037a8 <HAL_UART_Init+0x9c>
  {
    /* Check the parameters */
    assert_param(IS_UART_INSTANCE(huart->Instance));
  }

  if (huart->gState == HAL_UART_STATE_RESET)
 800371e:	687b      	ldr	r3, [r7, #4]
 8003720:	6f9b      	ldr	r3, [r3, #120]	; 0x78
 8003722:	2b00      	cmp	r3, #0
 8003724:	d107      	bne.n	8003736 <HAL_UART_Init+0x2a>
  {
    /* Allocate lock resource and initialize it */
    huart->Lock = HAL_UNLOCKED;
 8003726:	687b      	ldr	r3, [r7, #4]
 8003728:	2274      	movs	r2, #116	; 0x74
 800372a:	2100      	movs	r1, #0
 800372c:	5499      	strb	r1, [r3, r2]

    /* Init the low level hardware */
    huart->MspInitCallback(huart);
#else
    /* Init the low level hardware : GPIO, CLOCK */
    HAL_UART_MspInit(huart);
 800372e:	687b      	ldr	r3, [r7, #4]
 8003730:	0018      	movs	r0, r3
 8003732:	f7fd f971 	bl	8000a18 <HAL_UART_MspInit>
#endif /* (USE_HAL_UART_REGISTER_CALLBACKS) */
  }

  huart->gState = HAL_UART_STATE_BUSY;
 8003736:	687b      	ldr	r3, [r7, #4]
 8003738:	2224      	movs	r2, #36	; 0x24
 800373a:	679a      	str	r2, [r3, #120]	; 0x78

  __HAL_UART_DISABLE(huart);
 800373c:	687b      	ldr	r3, [r7, #4]
 800373e:	681b      	ldr	r3, [r3, #0]
 8003740:	681a      	ldr	r2, [r3, #0]
 8003742:	687b      	ldr	r3, [r7, #4]
 8003744:	681b      	ldr	r3, [r3, #0]
 8003746:	2101      	movs	r1, #1
 8003748:	438a      	bics	r2, r1
 800374a:	601a      	str	r2, [r3, #0]

  /* Set the UART Communication parameters */
  if (UART_SetConfig(huart) == HAL_ERROR)
 800374c:	687b      	ldr	r3, [r7, #4]
 800374e:	0018      	movs	r0, r3
 8003750:	f000 fbce 	bl	8003ef0 <UART_SetConfig>
 8003754:	0003      	movs	r3, r0
 8003756:	2b01      	cmp	r3, #1
 8003758:	d101      	bne.n	800375e <HAL_UART_Init+0x52>
  {
    return HAL_ERROR;
 800375a:	2301      	movs	r3, #1
 800375c:	e024      	b.n	80037a8 <HAL_UART_Init+0x9c>
  }

  if (huart->AdvancedInit.AdvFeatureInit != UART_ADVFEATURE_NO_INIT)
 800375e:	687b      	ldr	r3, [r7, #4]
 8003760:	6a5b      	ldr	r3, [r3, #36]	; 0x24
 8003762:	2b00      	cmp	r3, #0
 8003764:	d003      	beq.n	800376e <HAL_UART_Init+0x62>
  {
    UART_AdvFeatureConfig(huart);
 8003766:	687b      	ldr	r3, [r7, #4]
 8003768:	0018      	movs	r0, r3
 800376a:	f000 fd01 	bl	8004170 <UART_AdvFeatureConfig>

  /* In asynchronous mode, the following bits must be kept cleared:
  - LINEN (if LIN is supported) and CLKEN bits in the USART_CR2 register,
  - SCEN (if Smartcard is supported), HDSEL and IREN (if IrDA is supported)  bits in the USART_CR3 register.*/
#if defined (USART_CR2_LINEN)
  CLEAR_BIT(huart->Instance->CR2, (USART_CR2_LINEN | USART_CR2_CLKEN));
 800376e:	687b      	ldr	r3, [r7, #4]
 8003770:	681b      	ldr	r3, [r3, #0]
 8003772:	685a      	ldr	r2, [r3, #4]
 8003774:	687b      	ldr	r3, [r7, #4]
 8003776:	681b      	ldr	r3, [r3, #0]
 8003778:	490d      	ldr	r1, [pc, #52]	; (80037b0 <HAL_UART_Init+0xa4>)
 800377a:	400a      	ands	r2, r1
 800377c:	605a      	str	r2, [r3, #4]
#else
  CLEAR_BIT(huart->Instance->CR2, USART_CR2_CLKEN);
#endif /* USART_CR2_LINEN */
#if defined (USART_CR3_SCEN)
#if defined (USART_CR3_IREN)
  CLEAR_BIT(huart->Instance->CR3, (USART_CR3_SCEN | USART_CR3_HDSEL | USART_CR3_IREN));
 800377e:	687b      	ldr	r3, [r7, #4]
 8003780:	681b      	ldr	r3, [r3, #0]
 8003782:	689a      	ldr	r2, [r3, #8]
 8003784:	687b      	ldr	r3, [r7, #4]
 8003786:	681b      	ldr	r3, [r3, #0]
 8003788:	212a      	movs	r1, #42	; 0x2a
 800378a:	438a      	bics	r2, r1
 800378c:	609a      	str	r2, [r3, #8]
#else
  CLEAR_BIT(huart->Instance->CR3, USART_CR3_HDSEL);
#endif /* USART_CR3_IREN*/
#endif /* USART_CR3_SCEN */

  __HAL_UART_ENABLE(huart);
 800378e:	687b      	ldr	r3, [r7, #4]
 8003790:	681b      	ldr	r3, [r3, #0]
 8003792:	681a      	ldr	r2, [r3, #0]
 8003794:	687b      	ldr	r3, [r7, #4]
 8003796:	681b      	ldr	r3, [r3, #0]
 8003798:	2101      	movs	r1, #1
 800379a:	430a      	orrs	r2, r1
 800379c:	601a      	str	r2, [r3, #0]

  /* TEACK and/or REACK to check before moving huart->gState and huart->RxState to Ready */
  return (UART_CheckIdleState(huart));
 800379e:	687b      	ldr	r3, [r7, #4]
 80037a0:	0018      	movs	r0, r3
 80037a2:	f000 fd99 	bl	80042d8 <UART_CheckIdleState>
 80037a6:	0003      	movs	r3, r0
}
 80037a8:	0018      	movs	r0, r3
 80037aa:	46bd      	mov	sp, r7
 80037ac:	b002      	add	sp, #8
 80037ae:	bd80      	pop	{r7, pc}
 80037b0:	ffffb7ff 	.word	0xffffb7ff

080037b4 <HAL_UART_Transmit>:
  * @param Size    Amount of data elements (u8 or u16) to be sent.
  * @param Timeout Timeout duration.
  * @retval HAL status
  */
HAL_StatusTypeDef HAL_UART_Transmit(UART_HandleTypeDef *huart, uint8_t *pData, uint16_t Size, uint32_t Timeout)
{
 80037b4:	b580      	push	{r7, lr}
 80037b6:	b08a      	sub	sp, #40	; 0x28
 80037b8:	af02      	add	r7, sp, #8
 80037ba:	60f8      	str	r0, [r7, #12]
 80037bc:	60b9      	str	r1, [r7, #8]
 80037be:	603b      	str	r3, [r7, #0]
 80037c0:	1dbb      	adds	r3, r7, #6
 80037c2:	801a      	strh	r2, [r3, #0]
  uint8_t  *pdata8bits;
  uint16_t *pdata16bits;
  uint32_t tickstart;

  /* Check that a Tx process is not already ongoing */
  if (huart->gState == HAL_UART_STATE_READY)
 80037c4:	68fb      	ldr	r3, [r7, #12]
 80037c6:	6f9b      	ldr	r3, [r3, #120]	; 0x78
 80037c8:	2b20      	cmp	r3, #32
 80037ca:	d000      	beq.n	80037ce <HAL_UART_Transmit+0x1a>
 80037cc:	e096      	b.n	80038fc <HAL_UART_Transmit+0x148>
  {
    if ((pData == NULL) || (Size == 0U))
 80037ce:	68bb      	ldr	r3, [r7, #8]
 80037d0:	2b00      	cmp	r3, #0
 80037d2:	d003      	beq.n	80037dc <HAL_UART_Transmit+0x28>
 80037d4:	1dbb      	adds	r3, r7, #6
 80037d6:	881b      	ldrh	r3, [r3, #0]
 80037d8:	2b00      	cmp	r3, #0
 80037da:	d101      	bne.n	80037e0 <HAL_UART_Transmit+0x2c>
    {
      return  HAL_ERROR;
 80037dc:	2301      	movs	r3, #1
 80037de:	e08e      	b.n	80038fe <HAL_UART_Transmit+0x14a>
    }

    /* In case of 9bits/No Parity transfer, pData buffer provided as input parameter
       should be aligned on a u16 frontier, as data to be filled into TDR will be
       handled through a u16 cast. */
    if ((huart->Init.WordLength == UART_WORDLENGTH_9B) && (huart->Init.Parity == UART_PARITY_NONE))
 80037e0:	68fb      	ldr	r3, [r7, #12]
 80037e2:	689a      	ldr	r2, [r3, #8]
 80037e4:	2380      	movs	r3, #128	; 0x80
 80037e6:	015b      	lsls	r3, r3, #5
 80037e8:	429a      	cmp	r2, r3
 80037ea:	d109      	bne.n	8003800 <HAL_UART_Transmit+0x4c>
 80037ec:	68fb      	ldr	r3, [r7, #12]
 80037ee:	691b      	ldr	r3, [r3, #16]
 80037f0:	2b00      	cmp	r3, #0
 80037f2:	d105      	bne.n	8003800 <HAL_UART_Transmit+0x4c>
    {
      if ((((uint32_t)pData) & 1U) != 0U)
 80037f4:	68bb      	ldr	r3, [r7, #8]
 80037f6:	2201      	movs	r2, #1
 80037f8:	4013      	ands	r3, r2
 80037fa:	d001      	beq.n	8003800 <HAL_UART_Transmit+0x4c>
      {
        return  HAL_ERROR;
 80037fc:	2301      	movs	r3, #1
 80037fe:	e07e      	b.n	80038fe <HAL_UART_Transmit+0x14a>
      }
    }

    __HAL_LOCK(huart);
 8003800:	68fb      	ldr	r3, [r7, #12]
 8003802:	2274      	movs	r2, #116	; 0x74
 8003804:	5c9b      	ldrb	r3, [r3, r2]
 8003806:	2b01      	cmp	r3, #1
 8003808:	d101      	bne.n	800380e <HAL_UART_Transmit+0x5a>
 800380a:	2302      	movs	r3, #2
 800380c:	e077      	b.n	80038fe <HAL_UART_Transmit+0x14a>
 800380e:	68fb      	ldr	r3, [r7, #12]
 8003810:	2274      	movs	r2, #116	; 0x74
 8003812:	2101      	movs	r1, #1
 8003814:	5499      	strb	r1, [r3, r2]

    huart->ErrorCode = HAL_UART_ERROR_NONE;
 8003816:	68fb      	ldr	r3, [r7, #12]
 8003818:	2280      	movs	r2, #128	; 0x80
 800381a:	2100      	movs	r1, #0
 800381c:	5099      	str	r1, [r3, r2]
    huart->gState = HAL_UART_STATE_BUSY_TX;
 800381e:	68fb      	ldr	r3, [r7, #12]
 8003820:	2221      	movs	r2, #33	; 0x21
 8003822:	679a      	str	r2, [r3, #120]	; 0x78

    /* Init tickstart for timeout management */
    tickstart = HAL_GetTick();
 8003824:	f7fd fa7e 	bl	8000d24 <HAL_GetTick>
 8003828:	0003      	movs	r3, r0
 800382a:	617b      	str	r3, [r7, #20]

    huart->TxXferSize  = Size;
 800382c:	68fb      	ldr	r3, [r7, #12]
 800382e:	1dba      	adds	r2, r7, #6
 8003830:	2150      	movs	r1, #80	; 0x50
 8003832:	8812      	ldrh	r2, [r2, #0]
 8003834:	525a      	strh	r2, [r3, r1]
    huart->TxXferCount = Size;
 8003836:	68fb      	ldr	r3, [r7, #12]
 8003838:	1dba      	adds	r2, r7, #6
 800383a:	2152      	movs	r1, #82	; 0x52
 800383c:	8812      	ldrh	r2, [r2, #0]
 800383e:	525a      	strh	r2, [r3, r1]

    /* In case of 9bits/No Parity transfer, pData needs to be handled as a uint16_t pointer */
    if ((huart->Init.WordLength == UART_WORDLENGTH_9B) && (huart->Init.Parity == UART_PARITY_NONE))
 8003840:	68fb      	ldr	r3, [r7, #12]
 8003842:	689a      	ldr	r2, [r3, #8]
 8003844:	2380      	movs	r3, #128	; 0x80
 8003846:	015b      	lsls	r3, r3, #5
 8003848:	429a      	cmp	r2, r3
 800384a:	d108      	bne.n	800385e <HAL_UART_Transmit+0xaa>
 800384c:	68fb      	ldr	r3, [r7, #12]
 800384e:	691b      	ldr	r3, [r3, #16]
 8003850:	2b00      	cmp	r3, #0
 8003852:	d104      	bne.n	800385e <HAL_UART_Transmit+0xaa>
    {
      pdata8bits  = NULL;
 8003854:	2300      	movs	r3, #0
 8003856:	61fb      	str	r3, [r7, #28]
      pdata16bits = (uint16_t *) pData;
 8003858:	68bb      	ldr	r3, [r7, #8]
 800385a:	61bb      	str	r3, [r7, #24]
 800385c:	e003      	b.n	8003866 <HAL_UART_Transmit+0xb2>
    }
    else
    {
      pdata8bits  = pData;
 800385e:	68bb      	ldr	r3, [r7, #8]
 8003860:	61fb      	str	r3, [r7, #28]
      pdata16bits = NULL;
 8003862:	2300      	movs	r3, #0
 8003864:	61bb      	str	r3, [r7, #24]
    }

    __HAL_UNLOCK(huart);
 8003866:	68fb      	ldr	r3, [r7, #12]
 8003868:	2274      	movs	r2, #116	; 0x74
 800386a:	2100      	movs	r1, #0
 800386c:	5499      	strb	r1, [r3, r2]

    while (huart->TxXferCount > 0U)
 800386e:	e02d      	b.n	80038cc <HAL_UART_Transmit+0x118>
    {
      if (UART_WaitOnFlagUntilTimeout(huart, UART_FLAG_TXE, RESET, tickstart, Timeout) != HAL_OK)
 8003870:	697a      	ldr	r2, [r7, #20]
 8003872:	68f8      	ldr	r0, [r7, #12]
 8003874:	683b      	ldr	r3, [r7, #0]
 8003876:	9300      	str	r3, [sp, #0]
 8003878:	0013      	movs	r3, r2
 800387a:	2200      	movs	r2, #0
 800387c:	2180      	movs	r1, #128	; 0x80
 800387e:	f000 fd73 	bl	8004368 <UART_WaitOnFlagUntilTimeout>
 8003882:	1e03      	subs	r3, r0, #0
 8003884:	d001      	beq.n	800388a <HAL_UART_Transmit+0xd6>
      {
        return HAL_TIMEOUT;
 8003886:	2303      	movs	r3, #3
 8003888:	e039      	b.n	80038fe <HAL_UART_Transmit+0x14a>
      }
      if (pdata8bits == NULL)
 800388a:	69fb      	ldr	r3, [r7, #28]
 800388c:	2b00      	cmp	r3, #0
 800388e:	d10b      	bne.n	80038a8 <HAL_UART_Transmit+0xf4>
      {
        huart->Instance->TDR = (uint16_t)(*pdata16bits & 0x01FFU);
 8003890:	69bb      	ldr	r3, [r7, #24]
 8003892:	881a      	ldrh	r2, [r3, #0]
 8003894:	68fb      	ldr	r3, [r7, #12]
 8003896:	681b      	ldr	r3, [r3, #0]
 8003898:	05d2      	lsls	r2, r2, #23
 800389a:	0dd2      	lsrs	r2, r2, #23
 800389c:	b292      	uxth	r2, r2
 800389e:	851a      	strh	r2, [r3, #40]	; 0x28
        pdata16bits++;
 80038a0:	69bb      	ldr	r3, [r7, #24]
 80038a2:	3302      	adds	r3, #2
 80038a4:	61bb      	str	r3, [r7, #24]
 80038a6:	e008      	b.n	80038ba <HAL_UART_Transmit+0x106>
      }
      else
      {
        huart->Instance->TDR = (uint8_t)(*pdata8bits & 0xFFU);
 80038a8:	69fb      	ldr	r3, [r7, #28]
 80038aa:	781a      	ldrb	r2, [r3, #0]
 80038ac:	68fb      	ldr	r3, [r7, #12]
 80038ae:	681b      	ldr	r3, [r3, #0]
 80038b0:	b292      	uxth	r2, r2
 80038b2:	851a      	strh	r2, [r3, #40]	; 0x28
        pdata8bits++;
 80038b4:	69fb      	ldr	r3, [r7, #28]
 80038b6:	3301      	adds	r3, #1
 80038b8:	61fb      	str	r3, [r7, #28]
      }
      huart->TxXferCount--;
 80038ba:	68fb      	ldr	r3, [r7, #12]
 80038bc:	2252      	movs	r2, #82	; 0x52
 80038be:	5a9b      	ldrh	r3, [r3, r2]
 80038c0:	b29b      	uxth	r3, r3
 80038c2:	3b01      	subs	r3, #1
 80038c4:	b299      	uxth	r1, r3
 80038c6:	68fb      	ldr	r3, [r7, #12]
 80038c8:	2252      	movs	r2, #82	; 0x52
 80038ca:	5299      	strh	r1, [r3, r2]
    while (huart->TxXferCount > 0U)
 80038cc:	68fb      	ldr	r3, [r7, #12]
 80038ce:	2252      	movs	r2, #82	; 0x52
 80038d0:	5a9b      	ldrh	r3, [r3, r2]
 80038d2:	b29b      	uxth	r3, r3
 80038d4:	2b00      	cmp	r3, #0
 80038d6:	d1cb      	bne.n	8003870 <HAL_UART_Transmit+0xbc>
    }

    if (UART_WaitOnFlagUntilTimeout(huart, UART_FLAG_TC, RESET, tickstart, Timeout) != HAL_OK)
 80038d8:	697a      	ldr	r2, [r7, #20]
 80038da:	68f8      	ldr	r0, [r7, #12]
 80038dc:	683b      	ldr	r3, [r7, #0]
 80038de:	9300      	str	r3, [sp, #0]
 80038e0:	0013      	movs	r3, r2
 80038e2:	2200      	movs	r2, #0
 80038e4:	2140      	movs	r1, #64	; 0x40
 80038e6:	f000 fd3f 	bl	8004368 <UART_WaitOnFlagUntilTimeout>
 80038ea:	1e03      	subs	r3, r0, #0
 80038ec:	d001      	beq.n	80038f2 <HAL_UART_Transmit+0x13e>
    {
      return HAL_TIMEOUT;
 80038ee:	2303      	movs	r3, #3
 80038f0:	e005      	b.n	80038fe <HAL_UART_Transmit+0x14a>
    }

    /* At end of Tx process, restore huart->gState to Ready */
    huart->gState = HAL_UART_STATE_READY;
 80038f2:	68fb      	ldr	r3, [r7, #12]
 80038f4:	2220      	movs	r2, #32
 80038f6:	679a      	str	r2, [r3, #120]	; 0x78

    return HAL_OK;
 80038f8:	2300      	movs	r3, #0
 80038fa:	e000      	b.n	80038fe <HAL_UART_Transmit+0x14a>
  }
  else
  {
    return HAL_BUSY;
 80038fc:	2302      	movs	r3, #2
  }
}
 80038fe:	0018      	movs	r0, r3
 8003900:	46bd      	mov	sp, r7
 8003902:	b008      	add	sp, #32
 8003904:	bd80      	pop	{r7, pc}
	...

08003908 <HAL_UART_IRQHandler>:
  * @brief Handle UART interrupt request.
  * @param huart UART handle.
  * @retval None
  */
void HAL_UART_IRQHandler(UART_HandleTypeDef *huart)
{
 8003908:	b590      	push	{r4, r7, lr}
 800390a:	b0ab      	sub	sp, #172	; 0xac
 800390c:	af00      	add	r7, sp, #0
 800390e:	6078      	str	r0, [r7, #4]
  uint32_t isrflags   = READ_REG(huart->Instance->ISR);
 8003910:	687b      	ldr	r3, [r7, #4]
 8003912:	681b      	ldr	r3, [r3, #0]
 8003914:	69db      	ldr	r3, [r3, #28]
 8003916:	22a4      	movs	r2, #164	; 0xa4
 8003918:	18b9      	adds	r1, r7, r2
 800391a:	600b      	str	r3, [r1, #0]
  uint32_t cr1its     = READ_REG(huart->Instance->CR1);
 800391c:	687b      	ldr	r3, [r7, #4]
 800391e:	681b      	ldr	r3, [r3, #0]
 8003920:	681b      	ldr	r3, [r3, #0]
 8003922:	20a0      	movs	r0, #160	; 0xa0
 8003924:	1839      	adds	r1, r7, r0
 8003926:	600b      	str	r3, [r1, #0]
  uint32_t cr3its     = READ_REG(huart->Instance->CR3);
 8003928:	687b      	ldr	r3, [r7, #4]
 800392a:	681b      	ldr	r3, [r3, #0]
 800392c:	689b      	ldr	r3, [r3, #8]
 800392e:	219c      	movs	r1, #156	; 0x9c
 8003930:	1879      	adds	r1, r7, r1
 8003932:	600b      	str	r3, [r1, #0]

  uint32_t errorflags;
  uint32_t errorcode;

  /* If no error occurs */
  errorflags = (isrflags & (uint32_t)(USART_ISR_PE | USART_ISR_FE | USART_ISR_ORE | USART_ISR_NE | USART_ISR_RTOF));
 8003934:	0011      	movs	r1, r2
 8003936:	18bb      	adds	r3, r7, r2
 8003938:	681b      	ldr	r3, [r3, #0]
 800393a:	4a99      	ldr	r2, [pc, #612]	; (8003ba0 <HAL_UART_IRQHandler+0x298>)
 800393c:	4013      	ands	r3, r2
 800393e:	2298      	movs	r2, #152	; 0x98
 8003940:	18bc      	adds	r4, r7, r2
 8003942:	6023      	str	r3, [r4, #0]
  if (errorflags == 0U)
 8003944:	18bb      	adds	r3, r7, r2
 8003946:	681b      	ldr	r3, [r3, #0]
 8003948:	2b00      	cmp	r3, #0
 800394a:	d114      	bne.n	8003976 <HAL_UART_IRQHandler+0x6e>
  {
    /* UART in mode Receiver ---------------------------------------------------*/
    if (((isrflags & USART_ISR_RXNE) != 0U)
 800394c:	187b      	adds	r3, r7, r1
 800394e:	681b      	ldr	r3, [r3, #0]
 8003950:	2220      	movs	r2, #32
 8003952:	4013      	ands	r3, r2
 8003954:	d00f      	beq.n	8003976 <HAL_UART_IRQHandler+0x6e>
        && ((cr1its & USART_CR1_RXNEIE) != 0U))
 8003956:	183b      	adds	r3, r7, r0
 8003958:	681b      	ldr	r3, [r3, #0]
 800395a:	2220      	movs	r2, #32
 800395c:	4013      	ands	r3, r2
 800395e:	d00a      	beq.n	8003976 <HAL_UART_IRQHandler+0x6e>
    {
      if (huart->RxISR != NULL)
 8003960:	687b      	ldr	r3, [r7, #4]
 8003962:	6e5b      	ldr	r3, [r3, #100]	; 0x64
 8003964:	2b00      	cmp	r3, #0
 8003966:	d100      	bne.n	800396a <HAL_UART_IRQHandler+0x62>
 8003968:	e296      	b.n	8003e98 <HAL_UART_IRQHandler+0x590>
      {
        huart->RxISR(huart);
 800396a:	687b      	ldr	r3, [r7, #4]
 800396c:	6e5b      	ldr	r3, [r3, #100]	; 0x64
 800396e:	687a      	ldr	r2, [r7, #4]
 8003970:	0010      	movs	r0, r2
 8003972:	4798      	blx	r3
      }
      return;
 8003974:	e290      	b.n	8003e98 <HAL_UART_IRQHandler+0x590>
    }
  }

  /* If some errors occur */
  if ((errorflags != 0U)
 8003976:	2398      	movs	r3, #152	; 0x98
 8003978:	18fb      	adds	r3, r7, r3
 800397a:	681b      	ldr	r3, [r3, #0]
 800397c:	2b00      	cmp	r3, #0
 800397e:	d100      	bne.n	8003982 <HAL_UART_IRQHandler+0x7a>
 8003980:	e114      	b.n	8003bac <HAL_UART_IRQHandler+0x2a4>
      && (((cr3its & USART_CR3_EIE) != 0U)
 8003982:	239c      	movs	r3, #156	; 0x9c
 8003984:	18fb      	adds	r3, r7, r3
 8003986:	681b      	ldr	r3, [r3, #0]
 8003988:	2201      	movs	r2, #1
 800398a:	4013      	ands	r3, r2
 800398c:	d106      	bne.n	800399c <HAL_UART_IRQHandler+0x94>
          || ((cr1its & (USART_CR1_RXNEIE | USART_CR1_PEIE | USART_CR1_RTOIE)) != 0U)))
 800398e:	23a0      	movs	r3, #160	; 0xa0
 8003990:	18fb      	adds	r3, r7, r3
 8003992:	681b      	ldr	r3, [r3, #0]
 8003994:	4a83      	ldr	r2, [pc, #524]	; (8003ba4 <HAL_UART_IRQHandler+0x29c>)
 8003996:	4013      	ands	r3, r2
 8003998:	d100      	bne.n	800399c <HAL_UART_IRQHandler+0x94>
 800399a:	e107      	b.n	8003bac <HAL_UART_IRQHandler+0x2a4>
  {
    /* UART parity error interrupt occurred -------------------------------------*/
    if (((isrflags & USART_ISR_PE) != 0U) && ((cr1its & USART_CR1_PEIE) != 0U))
 800399c:	23a4      	movs	r3, #164	; 0xa4
 800399e:	18fb      	adds	r3, r7, r3
 80039a0:	681b      	ldr	r3, [r3, #0]
 80039a2:	2201      	movs	r2, #1
 80039a4:	4013      	ands	r3, r2
 80039a6:	d012      	beq.n	80039ce <HAL_UART_IRQHandler+0xc6>
 80039a8:	23a0      	movs	r3, #160	; 0xa0
 80039aa:	18fb      	adds	r3, r7, r3
 80039ac:	681a      	ldr	r2, [r3, #0]
 80039ae:	2380      	movs	r3, #128	; 0x80
 80039b0:	005b      	lsls	r3, r3, #1
 80039b2:	4013      	ands	r3, r2
 80039b4:	d00b      	beq.n	80039ce <HAL_UART_IRQHandler+0xc6>
    {
      __HAL_UART_CLEAR_FLAG(huart, UART_CLEAR_PEF);
 80039b6:	687b      	ldr	r3, [r7, #4]
 80039b8:	681b      	ldr	r3, [r3, #0]
 80039ba:	2201      	movs	r2, #1
 80039bc:	621a      	str	r2, [r3, #32]

      huart->ErrorCode |= HAL_UART_ERROR_PE;
 80039be:	687b      	ldr	r3, [r7, #4]
 80039c0:	2280      	movs	r2, #128	; 0x80
 80039c2:	589b      	ldr	r3, [r3, r2]
 80039c4:	2201      	movs	r2, #1
 80039c6:	431a      	orrs	r2, r3
 80039c8:	687b      	ldr	r3, [r7, #4]
 80039ca:	2180      	movs	r1, #128	; 0x80
 80039cc:	505a      	str	r2, [r3, r1]
    }

    /* UART frame error interrupt occurred --------------------------------------*/
    if (((isrflags & USART_ISR_FE) != 0U) && ((cr3its & USART_CR3_EIE) != 0U))
 80039ce:	23a4      	movs	r3, #164	; 0xa4
 80039d0:	18fb      	adds	r3, r7, r3
 80039d2:	681b      	ldr	r3, [r3, #0]
 80039d4:	2202      	movs	r2, #2
 80039d6:	4013      	ands	r3, r2
 80039d8:	d011      	beq.n	80039fe <HAL_UART_IRQHandler+0xf6>
 80039da:	239c      	movs	r3, #156	; 0x9c
 80039dc:	18fb      	adds	r3, r7, r3
 80039de:	681b      	ldr	r3, [r3, #0]
 80039e0:	2201      	movs	r2, #1
 80039e2:	4013      	ands	r3, r2
 80039e4:	d00b      	beq.n	80039fe <HAL_UART_IRQHandler+0xf6>
    {
      __HAL_UART_CLEAR_FLAG(huart, UART_CLEAR_FEF);
 80039e6:	687b      	ldr	r3, [r7, #4]
 80039e8:	681b      	ldr	r3, [r3, #0]
 80039ea:	2202      	movs	r2, #2
 80039ec:	621a      	str	r2, [r3, #32]

      huart->ErrorCode |= HAL_UART_ERROR_FE;
 80039ee:	687b      	ldr	r3, [r7, #4]
 80039f0:	2280      	movs	r2, #128	; 0x80
 80039f2:	589b      	ldr	r3, [r3, r2]
 80039f4:	2204      	movs	r2, #4
 80039f6:	431a      	orrs	r2, r3
 80039f8:	687b      	ldr	r3, [r7, #4]
 80039fa:	2180      	movs	r1, #128	; 0x80
 80039fc:	505a      	str	r2, [r3, r1]
    }

    /* UART noise error interrupt occurred --------------------------------------*/
    if (((isrflags & USART_ISR_NE) != 0U) && ((cr3its & USART_CR3_EIE) != 0U))
 80039fe:	23a4      	movs	r3, #164	; 0xa4
 8003a00:	18fb      	adds	r3, r7, r3
 8003a02:	681b      	ldr	r3, [r3, #0]
 8003a04:	2204      	movs	r2, #4
 8003a06:	4013      	ands	r3, r2
 8003a08:	d011      	beq.n	8003a2e <HAL_UART_IRQHandler+0x126>
 8003a0a:	239c      	movs	r3, #156	; 0x9c
 8003a0c:	18fb      	adds	r3, r7, r3
 8003a0e:	681b      	ldr	r3, [r3, #0]
 8003a10:	2201      	movs	r2, #1
 8003a12:	4013      	ands	r3, r2
 8003a14:	d00b      	beq.n	8003a2e <HAL_UART_IRQHandler+0x126>
    {
      __HAL_UART_CLEAR_FLAG(huart, UART_CLEAR_NEF);
 8003a16:	687b      	ldr	r3, [r7, #4]
 8003a18:	681b      	ldr	r3, [r3, #0]
 8003a1a:	2204      	movs	r2, #4
 8003a1c:	621a      	str	r2, [r3, #32]

      huart->ErrorCode |= HAL_UART_ERROR_NE;
 8003a1e:	687b      	ldr	r3, [r7, #4]
 8003a20:	2280      	movs	r2, #128	; 0x80
 8003a22:	589b      	ldr	r3, [r3, r2]
 8003a24:	2202      	movs	r2, #2
 8003a26:	431a      	orrs	r2, r3
 8003a28:	687b      	ldr	r3, [r7, #4]
 8003a2a:	2180      	movs	r1, #128	; 0x80
 8003a2c:	505a      	str	r2, [r3, r1]
    }

    /* UART Over-Run interrupt occurred -----------------------------------------*/
    if (((isrflags & USART_ISR_ORE) != 0U)
 8003a2e:	23a4      	movs	r3, #164	; 0xa4
 8003a30:	18fb      	adds	r3, r7, r3
 8003a32:	681b      	ldr	r3, [r3, #0]
 8003a34:	2208      	movs	r2, #8
 8003a36:	4013      	ands	r3, r2
 8003a38:	d017      	beq.n	8003a6a <HAL_UART_IRQHandler+0x162>
        && (((cr1its & USART_CR1_RXNEIE) != 0U) ||
 8003a3a:	23a0      	movs	r3, #160	; 0xa0
 8003a3c:	18fb      	adds	r3, r7, r3
 8003a3e:	681b      	ldr	r3, [r3, #0]
 8003a40:	2220      	movs	r2, #32
 8003a42:	4013      	ands	r3, r2
 8003a44:	d105      	bne.n	8003a52 <HAL_UART_IRQHandler+0x14a>
            ((cr3its & USART_CR3_EIE) != 0U)))
 8003a46:	239c      	movs	r3, #156	; 0x9c
 8003a48:	18fb      	adds	r3, r7, r3
 8003a4a:	681b      	ldr	r3, [r3, #0]
 8003a4c:	2201      	movs	r2, #1
 8003a4e:	4013      	ands	r3, r2
        && (((cr1its & USART_CR1_RXNEIE) != 0U) ||
 8003a50:	d00b      	beq.n	8003a6a <HAL_UART_IRQHandler+0x162>
    {
      __HAL_UART_CLEAR_FLAG(huart, UART_CLEAR_OREF);
 8003a52:	687b      	ldr	r3, [r7, #4]
 8003a54:	681b      	ldr	r3, [r3, #0]
 8003a56:	2208      	movs	r2, #8
 8003a58:	621a      	str	r2, [r3, #32]

      huart->ErrorCode |= HAL_UART_ERROR_ORE;
 8003a5a:	687b      	ldr	r3, [r7, #4]
 8003a5c:	2280      	movs	r2, #128	; 0x80
 8003a5e:	589b      	ldr	r3, [r3, r2]
 8003a60:	2208      	movs	r2, #8
 8003a62:	431a      	orrs	r2, r3
 8003a64:	687b      	ldr	r3, [r7, #4]
 8003a66:	2180      	movs	r1, #128	; 0x80
 8003a68:	505a      	str	r2, [r3, r1]
    }

    /* UART Receiver Timeout interrupt occurred ---------------------------------*/
    if (((isrflags & USART_ISR_RTOF) != 0U) && ((cr1its & USART_CR1_RTOIE) != 0U))
 8003a6a:	23a4      	movs	r3, #164	; 0xa4
 8003a6c:	18fb      	adds	r3, r7, r3
 8003a6e:	681a      	ldr	r2, [r3, #0]
 8003a70:	2380      	movs	r3, #128	; 0x80
 8003a72:	011b      	lsls	r3, r3, #4
 8003a74:	4013      	ands	r3, r2
 8003a76:	d013      	beq.n	8003aa0 <HAL_UART_IRQHandler+0x198>
 8003a78:	23a0      	movs	r3, #160	; 0xa0
 8003a7a:	18fb      	adds	r3, r7, r3
 8003a7c:	681a      	ldr	r2, [r3, #0]
 8003a7e:	2380      	movs	r3, #128	; 0x80
 8003a80:	04db      	lsls	r3, r3, #19
 8003a82:	4013      	ands	r3, r2
 8003a84:	d00c      	beq.n	8003aa0 <HAL_UART_IRQHandler+0x198>
    {
      __HAL_UART_CLEAR_FLAG(huart, UART_CLEAR_RTOF);
 8003a86:	687b      	ldr	r3, [r7, #4]
 8003a88:	681b      	ldr	r3, [r3, #0]
 8003a8a:	2280      	movs	r2, #128	; 0x80
 8003a8c:	0112      	lsls	r2, r2, #4
 8003a8e:	621a      	str	r2, [r3, #32]

      huart->ErrorCode |= HAL_UART_ERROR_RTO;
 8003a90:	687b      	ldr	r3, [r7, #4]
 8003a92:	2280      	movs	r2, #128	; 0x80
 8003a94:	589b      	ldr	r3, [r3, r2]
 8003a96:	2220      	movs	r2, #32
 8003a98:	431a      	orrs	r2, r3
 8003a9a:	687b      	ldr	r3, [r7, #4]
 8003a9c:	2180      	movs	r1, #128	; 0x80
 8003a9e:	505a      	str	r2, [r3, r1]
    }

    /* Call UART Error Call back function if need be ----------------------------*/
    if (huart->ErrorCode != HAL_UART_ERROR_NONE)
 8003aa0:	687b      	ldr	r3, [r7, #4]
 8003aa2:	2280      	movs	r2, #128	; 0x80
 8003aa4:	589b      	ldr	r3, [r3, r2]
 8003aa6:	2b00      	cmp	r3, #0
 8003aa8:	d100      	bne.n	8003aac <HAL_UART_IRQHandler+0x1a4>
 8003aaa:	e1f7      	b.n	8003e9c <HAL_UART_IRQHandler+0x594>
    {
      /* UART in mode Receiver --------------------------------------------------*/
      if (((isrflags & USART_ISR_RXNE) != 0U)
 8003aac:	23a4      	movs	r3, #164	; 0xa4
 8003aae:	18fb      	adds	r3, r7, r3
 8003ab0:	681b      	ldr	r3, [r3, #0]
 8003ab2:	2220      	movs	r2, #32
 8003ab4:	4013      	ands	r3, r2
 8003ab6:	d00e      	beq.n	8003ad6 <HAL_UART_IRQHandler+0x1ce>
          && ((cr1its & USART_CR1_RXNEIE) != 0U))
 8003ab8:	23a0      	movs	r3, #160	; 0xa0
 8003aba:	18fb      	adds	r3, r7, r3
 8003abc:	681b      	ldr	r3, [r3, #0]
 8003abe:	2220      	movs	r2, #32
 8003ac0:	4013      	ands	r3, r2
 8003ac2:	d008      	beq.n	8003ad6 <HAL_UART_IRQHandler+0x1ce>
      {
        if (huart->RxISR != NULL)
 8003ac4:	687b      	ldr	r3, [r7, #4]
 8003ac6:	6e5b      	ldr	r3, [r3, #100]	; 0x64
 8003ac8:	2b00      	cmp	r3, #0
 8003aca:	d004      	beq.n	8003ad6 <HAL_UART_IRQHandler+0x1ce>
        {
          huart->RxISR(huart);
 8003acc:	687b      	ldr	r3, [r7, #4]
 8003ace:	6e5b      	ldr	r3, [r3, #100]	; 0x64
 8003ad0:	687a      	ldr	r2, [r7, #4]
 8003ad2:	0010      	movs	r0, r2
 8003ad4:	4798      	blx	r3
      /* If Error is to be considered as blocking :
          - Receiver Timeout error in Reception
          - Overrun error in Reception
          - any error occurs in DMA mode reception
      */
      errorcode = huart->ErrorCode;
 8003ad6:	687b      	ldr	r3, [r7, #4]
 8003ad8:	2280      	movs	r2, #128	; 0x80
 8003ada:	589b      	ldr	r3, [r3, r2]
 8003adc:	2194      	movs	r1, #148	; 0x94
 8003ade:	187a      	adds	r2, r7, r1
 8003ae0:	6013      	str	r3, [r2, #0]
      if ((HAL_IS_BIT_SET(huart->Instance->CR3, USART_CR3_DMAR)) ||
 8003ae2:	687b      	ldr	r3, [r7, #4]
 8003ae4:	681b      	ldr	r3, [r3, #0]
 8003ae6:	689b      	ldr	r3, [r3, #8]
 8003ae8:	2240      	movs	r2, #64	; 0x40
 8003aea:	4013      	ands	r3, r2
 8003aec:	2b40      	cmp	r3, #64	; 0x40
 8003aee:	d004      	beq.n	8003afa <HAL_UART_IRQHandler+0x1f2>
          ((errorcode & (HAL_UART_ERROR_RTO | HAL_UART_ERROR_ORE)) != 0U))
 8003af0:	187b      	adds	r3, r7, r1
 8003af2:	681b      	ldr	r3, [r3, #0]
 8003af4:	2228      	movs	r2, #40	; 0x28
 8003af6:	4013      	ands	r3, r2
      if ((HAL_IS_BIT_SET(huart->Instance->CR3, USART_CR3_DMAR)) ||
 8003af8:	d047      	beq.n	8003b8a <HAL_UART_IRQHandler+0x282>
      {
        /* Blocking error : transfer is aborted
           Set the UART state ready to be able to start again the process,
           Disable Rx Interrupts, and disable Rx DMA request, if ongoing */
        UART_EndRxTransfer(huart);
 8003afa:	687b      	ldr	r3, [r7, #4]
 8003afc:	0018      	movs	r0, r3
 8003afe:	f000 fcf7 	bl	80044f0 <UART_EndRxTransfer>

        /* Disable the UART DMA Rx request if enabled */
        if (HAL_IS_BIT_SET(huart->Instance->CR3, USART_CR3_DMAR))
 8003b02:	687b      	ldr	r3, [r7, #4]
 8003b04:	681b      	ldr	r3, [r3, #0]
 8003b06:	689b      	ldr	r3, [r3, #8]
 8003b08:	2240      	movs	r2, #64	; 0x40
 8003b0a:	4013      	ands	r3, r2
 8003b0c:	2b40      	cmp	r3, #64	; 0x40
 8003b0e:	d137      	bne.n	8003b80 <HAL_UART_IRQHandler+0x278>
 */
__STATIC_FORCEINLINE uint32_t __get_PRIMASK(void)
{
  uint32_t result;

  __ASM volatile ("MRS %0, primask" : "=r" (result) :: "memory");
 8003b10:	f3ef 8310 	mrs	r3, PRIMASK
 8003b14:	663b      	str	r3, [r7, #96]	; 0x60
  return(result);
 8003b16:	6e3b      	ldr	r3, [r7, #96]	; 0x60
        {
          ATOMIC_CLEAR_BIT(huart->Instance->CR3, USART_CR3_DMAR);
 8003b18:	2090      	movs	r0, #144	; 0x90
 8003b1a:	183a      	adds	r2, r7, r0
 8003b1c:	6013      	str	r3, [r2, #0]
 8003b1e:	2301      	movs	r3, #1
 8003b20:	667b      	str	r3, [r7, #100]	; 0x64
  \details Assigns the given value to the Priority Mask Register.
  \param [in]    priMask  Priority Mask
 */
__STATIC_FORCEINLINE void __set_PRIMASK(uint32_t priMask)
{
  __ASM volatile ("MSR primask, %0" : : "r" (priMask) : "memory");
 8003b22:	6e7b      	ldr	r3, [r7, #100]	; 0x64
 8003b24:	f383 8810 	msr	PRIMASK, r3
}
 8003b28:	46c0      	nop			; (mov r8, r8)
 8003b2a:	687b      	ldr	r3, [r7, #4]
 8003b2c:	681b      	ldr	r3, [r3, #0]
 8003b2e:	689a      	ldr	r2, [r3, #8]
 8003b30:	687b      	ldr	r3, [r7, #4]
 8003b32:	681b      	ldr	r3, [r3, #0]
 8003b34:	2140      	movs	r1, #64	; 0x40
 8003b36:	438a      	bics	r2, r1
 8003b38:	609a      	str	r2, [r3, #8]
 8003b3a:	183b      	adds	r3, r7, r0
 8003b3c:	681b      	ldr	r3, [r3, #0]
 8003b3e:	66bb      	str	r3, [r7, #104]	; 0x68
  __ASM volatile ("MSR primask, %0" : : "r" (priMask) : "memory");
 8003b40:	6ebb      	ldr	r3, [r7, #104]	; 0x68
 8003b42:	f383 8810 	msr	PRIMASK, r3
}
 8003b46:	46c0      	nop			; (mov r8, r8)

          /* Abort the UART DMA Rx channel */
          if (huart->hdmarx != NULL)
 8003b48:	687b      	ldr	r3, [r7, #4]
 8003b4a:	6f1b      	ldr	r3, [r3, #112]	; 0x70
 8003b4c:	2b00      	cmp	r3, #0
 8003b4e:	d012      	beq.n	8003b76 <HAL_UART_IRQHandler+0x26e>
          {
            /* Set the UART DMA Abort callback :
               will lead to call HAL_UART_ErrorCallback() at end of DMA abort procedure */
            huart->hdmarx->XferAbortCallback = UART_DMAAbortOnError;
 8003b50:	687b      	ldr	r3, [r7, #4]
 8003b52:	6f1b      	ldr	r3, [r3, #112]	; 0x70
 8003b54:	4a14      	ldr	r2, [pc, #80]	; (8003ba8 <HAL_UART_IRQHandler+0x2a0>)
 8003b56:	635a      	str	r2, [r3, #52]	; 0x34

            /* Abort DMA RX */
            if (HAL_DMA_Abort_IT(huart->hdmarx) != HAL_OK)
 8003b58:	687b      	ldr	r3, [r7, #4]
 8003b5a:	6f1b      	ldr	r3, [r3, #112]	; 0x70
 8003b5c:	0018      	movs	r0, r3
 8003b5e:	f7fe f805 	bl	8001b6c <HAL_DMA_Abort_IT>
 8003b62:	1e03      	subs	r3, r0, #0
 8003b64:	d01a      	beq.n	8003b9c <HAL_UART_IRQHandler+0x294>
            {
              /* Call Directly huart->hdmarx->XferAbortCallback function in case of error */
              huart->hdmarx->XferAbortCallback(huart->hdmarx);
 8003b66:	687b      	ldr	r3, [r7, #4]
 8003b68:	6f1b      	ldr	r3, [r3, #112]	; 0x70
 8003b6a:	6b5a      	ldr	r2, [r3, #52]	; 0x34
 8003b6c:	687b      	ldr	r3, [r7, #4]
 8003b6e:	6f1b      	ldr	r3, [r3, #112]	; 0x70
 8003b70:	0018      	movs	r0, r3
 8003b72:	4790      	blx	r2
        if (HAL_IS_BIT_SET(huart->Instance->CR3, USART_CR3_DMAR))
 8003b74:	e012      	b.n	8003b9c <HAL_UART_IRQHandler+0x294>
#if (USE_HAL_UART_REGISTER_CALLBACKS == 1)
            /*Call registered error callback*/
            huart->ErrorCallback(huart);
#else
            /*Call legacy weak error callback*/
            HAL_UART_ErrorCallback(huart);
 8003b76:	687b      	ldr	r3, [r7, #4]
 8003b78:	0018      	movs	r0, r3
 8003b7a:	f000 f9a5 	bl	8003ec8 <HAL_UART_ErrorCallback>
        if (HAL_IS_BIT_SET(huart->Instance->CR3, USART_CR3_DMAR))
 8003b7e:	e00d      	b.n	8003b9c <HAL_UART_IRQHandler+0x294>
#if (USE_HAL_UART_REGISTER_CALLBACKS == 1)
          /*Call registered error callback*/
          huart->ErrorCallback(huart);
#else
          /*Call legacy weak error callback*/
          HAL_UART_ErrorCallback(huart);
 8003b80:	687b      	ldr	r3, [r7, #4]
 8003b82:	0018      	movs	r0, r3
 8003b84:	f000 f9a0 	bl	8003ec8 <HAL_UART_ErrorCallback>
        if (HAL_IS_BIT_SET(huart->Instance->CR3, USART_CR3_DMAR))
 8003b88:	e008      	b.n	8003b9c <HAL_UART_IRQHandler+0x294>
#if (USE_HAL_UART_REGISTER_CALLBACKS == 1)
        /*Call registered error callback*/
        huart->ErrorCallback(huart);
#else
        /*Call legacy weak error callback*/
        HAL_UART_ErrorCallback(huart);
 8003b8a:	687b      	ldr	r3, [r7, #4]
 8003b8c:	0018      	movs	r0, r3
 8003b8e:	f000 f99b 	bl	8003ec8 <HAL_UART_ErrorCallback>
#endif /* USE_HAL_UART_REGISTER_CALLBACKS */
        huart->ErrorCode = HAL_UART_ERROR_NONE;
 8003b92:	687b      	ldr	r3, [r7, #4]
 8003b94:	2280      	movs	r2, #128	; 0x80
 8003b96:	2100      	movs	r1, #0
 8003b98:	5099      	str	r1, [r3, r2]
      }
    }
    return;
 8003b9a:	e17f      	b.n	8003e9c <HAL_UART_IRQHandler+0x594>
        if (HAL_IS_BIT_SET(huart->Instance->CR3, USART_CR3_DMAR))
 8003b9c:	46c0      	nop			; (mov r8, r8)
    return;
 8003b9e:	e17d      	b.n	8003e9c <HAL_UART_IRQHandler+0x594>
 8003ba0:	0000080f 	.word	0x0000080f
 8003ba4:	04000120 	.word	0x04000120
 8003ba8:	080045b5 	.word	0x080045b5

  } /* End if some error occurs */

  /* Check current reception Mode :
     If Reception till IDLE event has been selected : */
  if ((huart->ReceptionType == HAL_UART_RECEPTION_TOIDLE)
 8003bac:	687b      	ldr	r3, [r7, #4]
 8003bae:	6e1b      	ldr	r3, [r3, #96]	; 0x60
 8003bb0:	2b01      	cmp	r3, #1
 8003bb2:	d000      	beq.n	8003bb6 <HAL_UART_IRQHandler+0x2ae>
 8003bb4:	e131      	b.n	8003e1a <HAL_UART_IRQHandler+0x512>
      && ((isrflags & USART_ISR_IDLE) != 0U)
 8003bb6:	23a4      	movs	r3, #164	; 0xa4
 8003bb8:	18fb      	adds	r3, r7, r3
 8003bba:	681b      	ldr	r3, [r3, #0]
 8003bbc:	2210      	movs	r2, #16
 8003bbe:	4013      	ands	r3, r2
 8003bc0:	d100      	bne.n	8003bc4 <HAL_UART_IRQHandler+0x2bc>
 8003bc2:	e12a      	b.n	8003e1a <HAL_UART_IRQHandler+0x512>
      && ((cr1its & USART_ISR_IDLE) != 0U))
 8003bc4:	23a0      	movs	r3, #160	; 0xa0
 8003bc6:	18fb      	adds	r3, r7, r3
 8003bc8:	681b      	ldr	r3, [r3, #0]
 8003bca:	2210      	movs	r2, #16
 8003bcc:	4013      	ands	r3, r2
 8003bce:	d100      	bne.n	8003bd2 <HAL_UART_IRQHandler+0x2ca>
 8003bd0:	e123      	b.n	8003e1a <HAL_UART_IRQHandler+0x512>
  {
    __HAL_UART_CLEAR_FLAG(huart, UART_CLEAR_IDLEF);
 8003bd2:	687b      	ldr	r3, [r7, #4]
 8003bd4:	681b      	ldr	r3, [r3, #0]
 8003bd6:	2210      	movs	r2, #16
 8003bd8:	621a      	str	r2, [r3, #32]

    /* Check if DMA mode is enabled in UART */
    if (HAL_IS_BIT_SET(huart->Instance->CR3, USART_CR3_DMAR))
 8003bda:	687b      	ldr	r3, [r7, #4]
 8003bdc:	681b      	ldr	r3, [r3, #0]
 8003bde:	689b      	ldr	r3, [r3, #8]
 8003be0:	2240      	movs	r2, #64	; 0x40
 8003be2:	4013      	ands	r3, r2
 8003be4:	2b40      	cmp	r3, #64	; 0x40
 8003be6:	d000      	beq.n	8003bea <HAL_UART_IRQHandler+0x2e2>
 8003be8:	e09b      	b.n	8003d22 <HAL_UART_IRQHandler+0x41a>
    {
      /* DMA mode enabled */
      /* Check received length : If all expected data are received, do nothing,
         (DMA cplt callback will be called).
         Otherwise, if at least one data has already been received, IDLE event is to be notified to user */
      uint16_t nb_remaining_rx_data = (uint16_t) __HAL_DMA_GET_COUNTER(huart->hdmarx);
 8003bea:	687b      	ldr	r3, [r7, #4]
 8003bec:	6f1b      	ldr	r3, [r3, #112]	; 0x70
 8003bee:	681b      	ldr	r3, [r3, #0]
 8003bf0:	685a      	ldr	r2, [r3, #4]
 8003bf2:	217e      	movs	r1, #126	; 0x7e
 8003bf4:	187b      	adds	r3, r7, r1
 8003bf6:	801a      	strh	r2, [r3, #0]
      if ((nb_remaining_rx_data > 0U)
 8003bf8:	187b      	adds	r3, r7, r1
 8003bfa:	881b      	ldrh	r3, [r3, #0]
 8003bfc:	2b00      	cmp	r3, #0
 8003bfe:	d100      	bne.n	8003c02 <HAL_UART_IRQHandler+0x2fa>
 8003c00:	e14e      	b.n	8003ea0 <HAL_UART_IRQHandler+0x598>
          && (nb_remaining_rx_data < huart->RxXferSize))
 8003c02:	687b      	ldr	r3, [r7, #4]
 8003c04:	2258      	movs	r2, #88	; 0x58
 8003c06:	5a9b      	ldrh	r3, [r3, r2]
 8003c08:	187a      	adds	r2, r7, r1
 8003c0a:	8812      	ldrh	r2, [r2, #0]
 8003c0c:	429a      	cmp	r2, r3
 8003c0e:	d300      	bcc.n	8003c12 <HAL_UART_IRQHandler+0x30a>
 8003c10:	e146      	b.n	8003ea0 <HAL_UART_IRQHandler+0x598>
      {
        /* Reception is not complete */
        huart->RxXferCount = nb_remaining_rx_data;
 8003c12:	687b      	ldr	r3, [r7, #4]
 8003c14:	187a      	adds	r2, r7, r1
 8003c16:	215a      	movs	r1, #90	; 0x5a
 8003c18:	8812      	ldrh	r2, [r2, #0]
 8003c1a:	525a      	strh	r2, [r3, r1]

        /* In Normal mode, end DMA xfer and HAL UART Rx process*/
        if (huart->hdmarx->Init.Mode != DMA_CIRCULAR)
 8003c1c:	687b      	ldr	r3, [r7, #4]
 8003c1e:	6f1b      	ldr	r3, [r3, #112]	; 0x70
 8003c20:	699b      	ldr	r3, [r3, #24]
 8003c22:	2b20      	cmp	r3, #32
 8003c24:	d06e      	beq.n	8003d04 <HAL_UART_IRQHandler+0x3fc>
  __ASM volatile ("MRS %0, primask" : "=r" (result) :: "memory");
 8003c26:	f3ef 8310 	mrs	r3, PRIMASK
 8003c2a:	633b      	str	r3, [r7, #48]	; 0x30
  return(result);
 8003c2c:	6b3b      	ldr	r3, [r7, #48]	; 0x30
        {
          /* Disable PE and ERR (Frame error, noise error, overrun error) interrupts */
          ATOMIC_CLEAR_BIT(huart->Instance->CR1, USART_CR1_PEIE);
 8003c2e:	67bb      	str	r3, [r7, #120]	; 0x78
 8003c30:	2301      	movs	r3, #1
 8003c32:	637b      	str	r3, [r7, #52]	; 0x34
  __ASM volatile ("MSR primask, %0" : : "r" (priMask) : "memory");
 8003c34:	6b7b      	ldr	r3, [r7, #52]	; 0x34
 8003c36:	f383 8810 	msr	PRIMASK, r3
}
 8003c3a:	46c0      	nop			; (mov r8, r8)
 8003c3c:	687b      	ldr	r3, [r7, #4]
 8003c3e:	681b      	ldr	r3, [r3, #0]
 8003c40:	681a      	ldr	r2, [r3, #0]
 8003c42:	687b      	ldr	r3, [r7, #4]
 8003c44:	681b      	ldr	r3, [r3, #0]
 8003c46:	499a      	ldr	r1, [pc, #616]	; (8003eb0 <HAL_UART_IRQHandler+0x5a8>)
 8003c48:	400a      	ands	r2, r1
 8003c4a:	601a      	str	r2, [r3, #0]
 8003c4c:	6fbb      	ldr	r3, [r7, #120]	; 0x78
 8003c4e:	63bb      	str	r3, [r7, #56]	; 0x38
  __ASM volatile ("MSR primask, %0" : : "r" (priMask) : "memory");
 8003c50:	6bbb      	ldr	r3, [r7, #56]	; 0x38
 8003c52:	f383 8810 	msr	PRIMASK, r3
}
 8003c56:	46c0      	nop			; (mov r8, r8)
  __ASM volatile ("MRS %0, primask" : "=r" (result) :: "memory");
 8003c58:	f3ef 8310 	mrs	r3, PRIMASK
 8003c5c:	63fb      	str	r3, [r7, #60]	; 0x3c
  return(result);
 8003c5e:	6bfb      	ldr	r3, [r7, #60]	; 0x3c
          ATOMIC_CLEAR_BIT(huart->Instance->CR3, USART_CR3_EIE);
 8003c60:	677b      	str	r3, [r7, #116]	; 0x74
 8003c62:	2301      	movs	r3, #1
 8003c64:	643b      	str	r3, [r7, #64]	; 0x40
  __ASM volatile ("MSR primask, %0" : : "r" (priMask) : "memory");
 8003c66:	6c3b      	ldr	r3, [r7, #64]	; 0x40
 8003c68:	f383 8810 	msr	PRIMASK, r3
}
 8003c6c:	46c0      	nop			; (mov r8, r8)
 8003c6e:	687b      	ldr	r3, [r7, #4]
 8003c70:	681b      	ldr	r3, [r3, #0]
 8003c72:	689a      	ldr	r2, [r3, #8]
 8003c74:	687b      	ldr	r3, [r7, #4]
 8003c76:	681b      	ldr	r3, [r3, #0]
 8003c78:	2101      	movs	r1, #1
 8003c7a:	438a      	bics	r2, r1
 8003c7c:	609a      	str	r2, [r3, #8]
 8003c7e:	6f7b      	ldr	r3, [r7, #116]	; 0x74
 8003c80:	647b      	str	r3, [r7, #68]	; 0x44
  __ASM volatile ("MSR primask, %0" : : "r" (priMask) : "memory");
 8003c82:	6c7b      	ldr	r3, [r7, #68]	; 0x44
 8003c84:	f383 8810 	msr	PRIMASK, r3
}
 8003c88:	46c0      	nop			; (mov r8, r8)
  __ASM volatile ("MRS %0, primask" : "=r" (result) :: "memory");
 8003c8a:	f3ef 8310 	mrs	r3, PRIMASK
 8003c8e:	64bb      	str	r3, [r7, #72]	; 0x48
  return(result);
 8003c90:	6cbb      	ldr	r3, [r7, #72]	; 0x48

          /* Disable the DMA transfer for the receiver request by resetting the DMAR bit
             in the UART CR3 register */
          ATOMIC_CLEAR_BIT(huart->Instance->CR3, USART_CR3_DMAR);
 8003c92:	673b      	str	r3, [r7, #112]	; 0x70
 8003c94:	2301      	movs	r3, #1
 8003c96:	64fb      	str	r3, [r7, #76]	; 0x4c
  __ASM volatile ("MSR primask, %0" : : "r" (priMask) : "memory");
 8003c98:	6cfb      	ldr	r3, [r7, #76]	; 0x4c
 8003c9a:	f383 8810 	msr	PRIMASK, r3
}
 8003c9e:	46c0      	nop			; (mov r8, r8)
 8003ca0:	687b      	ldr	r3, [r7, #4]
 8003ca2:	681b      	ldr	r3, [r3, #0]
 8003ca4:	689a      	ldr	r2, [r3, #8]
 8003ca6:	687b      	ldr	r3, [r7, #4]
 8003ca8:	681b      	ldr	r3, [r3, #0]
 8003caa:	2140      	movs	r1, #64	; 0x40
 8003cac:	438a      	bics	r2, r1
 8003cae:	609a      	str	r2, [r3, #8]
 8003cb0:	6f3b      	ldr	r3, [r7, #112]	; 0x70
 8003cb2:	653b      	str	r3, [r7, #80]	; 0x50
  __ASM volatile ("MSR primask, %0" : : "r" (priMask) : "memory");
 8003cb4:	6d3b      	ldr	r3, [r7, #80]	; 0x50
 8003cb6:	f383 8810 	msr	PRIMASK, r3
}
 8003cba:	46c0      	nop			; (mov r8, r8)

          /* At end of Rx process, restore huart->RxState to Ready */
          huart->RxState = HAL_UART_STATE_READY;
 8003cbc:	687b      	ldr	r3, [r7, #4]
 8003cbe:	2220      	movs	r2, #32
 8003cc0:	67da      	str	r2, [r3, #124]	; 0x7c
          huart->ReceptionType = HAL_UART_RECEPTION_STANDARD;
 8003cc2:	687b      	ldr	r3, [r7, #4]
 8003cc4:	2200      	movs	r2, #0
 8003cc6:	661a      	str	r2, [r3, #96]	; 0x60
  __ASM volatile ("MRS %0, primask" : "=r" (result) :: "memory");
 8003cc8:	f3ef 8310 	mrs	r3, PRIMASK
 8003ccc:	657b      	str	r3, [r7, #84]	; 0x54
  return(result);
 8003cce:	6d7b      	ldr	r3, [r7, #84]	; 0x54

          ATOMIC_CLEAR_BIT(huart->Instance->CR1, USART_CR1_IDLEIE);
 8003cd0:	66fb      	str	r3, [r7, #108]	; 0x6c
 8003cd2:	2301      	movs	r3, #1
 8003cd4:	65bb      	str	r3, [r7, #88]	; 0x58
  __ASM volatile ("MSR primask, %0" : : "r" (priMask) : "memory");
 8003cd6:	6dbb      	ldr	r3, [r7, #88]	; 0x58
 8003cd8:	f383 8810 	msr	PRIMASK, r3
}
 8003cdc:	46c0      	nop			; (mov r8, r8)
 8003cde:	687b      	ldr	r3, [r7, #4]
 8003ce0:	681b      	ldr	r3, [r3, #0]
 8003ce2:	681a      	ldr	r2, [r3, #0]
 8003ce4:	687b      	ldr	r3, [r7, #4]
 8003ce6:	681b      	ldr	r3, [r3, #0]
 8003ce8:	2110      	movs	r1, #16
 8003cea:	438a      	bics	r2, r1
 8003cec:	601a      	str	r2, [r3, #0]
 8003cee:	6efb      	ldr	r3, [r7, #108]	; 0x6c
 8003cf0:	65fb      	str	r3, [r7, #92]	; 0x5c
  __ASM volatile ("MSR primask, %0" : : "r" (priMask) : "memory");
 8003cf2:	6dfb      	ldr	r3, [r7, #92]	; 0x5c
 8003cf4:	f383 8810 	msr	PRIMASK, r3
}
 8003cf8:	46c0      	nop			; (mov r8, r8)

          /* Last bytes received, so no need as the abort is immediate */
          (void)HAL_DMA_Abort(huart->hdmarx);
 8003cfa:	687b      	ldr	r3, [r7, #4]
 8003cfc:	6f1b      	ldr	r3, [r3, #112]	; 0x70
 8003cfe:	0018      	movs	r0, r3
 8003d00:	f7fd fefc 	bl	8001afc <HAL_DMA_Abort>
#if (USE_HAL_UART_REGISTER_CALLBACKS == 1)
        /*Call registered Rx Event callback*/
        huart->RxEventCallback(huart, (huart->RxXferSize - huart->RxXferCount));
#else
        /*Call legacy weak Rx Event callback*/
        HAL_UARTEx_RxEventCallback(huart, (huart->RxXferSize - huart->RxXferCount));
 8003d04:	687b      	ldr	r3, [r7, #4]
 8003d06:	2258      	movs	r2, #88	; 0x58
 8003d08:	5a9a      	ldrh	r2, [r3, r2]
 8003d0a:	687b      	ldr	r3, [r7, #4]
 8003d0c:	215a      	movs	r1, #90	; 0x5a
 8003d0e:	5a5b      	ldrh	r3, [r3, r1]
 8003d10:	b29b      	uxth	r3, r3
 8003d12:	1ad3      	subs	r3, r2, r3
 8003d14:	b29a      	uxth	r2, r3
 8003d16:	687b      	ldr	r3, [r7, #4]
 8003d18:	0011      	movs	r1, r2
 8003d1a:	0018      	movs	r0, r3
 8003d1c:	f000 f8dc 	bl	8003ed8 <HAL_UARTEx_RxEventCallback>
#endif /* (USE_HAL_UART_REGISTER_CALLBACKS) */
      }
      return;
 8003d20:	e0be      	b.n	8003ea0 <HAL_UART_IRQHandler+0x598>
    else
    {
      /* DMA mode not enabled */
      /* Check received length : If all expected data are received, do nothing.
         Otherwise, if at least one data has already been received, IDLE event is to be notified to user */
      uint16_t nb_rx_data = huart->RxXferSize - huart->RxXferCount;
 8003d22:	687b      	ldr	r3, [r7, #4]
 8003d24:	2258      	movs	r2, #88	; 0x58
 8003d26:	5a99      	ldrh	r1, [r3, r2]
 8003d28:	687b      	ldr	r3, [r7, #4]
 8003d2a:	225a      	movs	r2, #90	; 0x5a
 8003d2c:	5a9b      	ldrh	r3, [r3, r2]
 8003d2e:	b29a      	uxth	r2, r3
 8003d30:	208e      	movs	r0, #142	; 0x8e
 8003d32:	183b      	adds	r3, r7, r0
 8003d34:	1a8a      	subs	r2, r1, r2
 8003d36:	801a      	strh	r2, [r3, #0]
      if ((huart->RxXferCount > 0U)
 8003d38:	687b      	ldr	r3, [r7, #4]
 8003d3a:	225a      	movs	r2, #90	; 0x5a
 8003d3c:	5a9b      	ldrh	r3, [r3, r2]
 8003d3e:	b29b      	uxth	r3, r3
 8003d40:	2b00      	cmp	r3, #0
 8003d42:	d100      	bne.n	8003d46 <HAL_UART_IRQHandler+0x43e>
 8003d44:	e0ae      	b.n	8003ea4 <HAL_UART_IRQHandler+0x59c>
          && (nb_rx_data > 0U))
 8003d46:	183b      	adds	r3, r7, r0
 8003d48:	881b      	ldrh	r3, [r3, #0]
 8003d4a:	2b00      	cmp	r3, #0
 8003d4c:	d100      	bne.n	8003d50 <HAL_UART_IRQHandler+0x448>
 8003d4e:	e0a9      	b.n	8003ea4 <HAL_UART_IRQHandler+0x59c>
  __ASM volatile ("MRS %0, primask" : "=r" (result) :: "memory");
 8003d50:	f3ef 8310 	mrs	r3, PRIMASK
 8003d54:	60fb      	str	r3, [r7, #12]
  return(result);
 8003d56:	68fb      	ldr	r3, [r7, #12]
      {
        /* Disable the UART Parity Error Interrupt and RXNE interrupts */
        ATOMIC_CLEAR_BIT(huart->Instance->CR1, (USART_CR1_RXNEIE | USART_CR1_PEIE));
 8003d58:	2488      	movs	r4, #136	; 0x88
 8003d5a:	193a      	adds	r2, r7, r4
 8003d5c:	6013      	str	r3, [r2, #0]
 8003d5e:	2301      	movs	r3, #1
 8003d60:	613b      	str	r3, [r7, #16]
  __ASM volatile ("MSR primask, %0" : : "r" (priMask) : "memory");
 8003d62:	693b      	ldr	r3, [r7, #16]
 8003d64:	f383 8810 	msr	PRIMASK, r3
}
 8003d68:	46c0      	nop			; (mov r8, r8)
 8003d6a:	687b      	ldr	r3, [r7, #4]
 8003d6c:	681b      	ldr	r3, [r3, #0]
 8003d6e:	681a      	ldr	r2, [r3, #0]
 8003d70:	687b      	ldr	r3, [r7, #4]
 8003d72:	681b      	ldr	r3, [r3, #0]
 8003d74:	494f      	ldr	r1, [pc, #316]	; (8003eb4 <HAL_UART_IRQHandler+0x5ac>)
 8003d76:	400a      	ands	r2, r1
 8003d78:	601a      	str	r2, [r3, #0]
 8003d7a:	193b      	adds	r3, r7, r4
 8003d7c:	681b      	ldr	r3, [r3, #0]
 8003d7e:	617b      	str	r3, [r7, #20]
  __ASM volatile ("MSR primask, %0" : : "r" (priMask) : "memory");
 8003d80:	697b      	ldr	r3, [r7, #20]
 8003d82:	f383 8810 	msr	PRIMASK, r3
}
 8003d86:	46c0      	nop			; (mov r8, r8)
  __ASM volatile ("MRS %0, primask" : "=r" (result) :: "memory");
 8003d88:	f3ef 8310 	mrs	r3, PRIMASK
 8003d8c:	61bb      	str	r3, [r7, #24]
  return(result);
 8003d8e:	69bb      	ldr	r3, [r7, #24]

        /* Disable the UART Error Interrupt: (Frame error, noise error, overrun error) */
        ATOMIC_CLEAR_BIT(huart->Instance->CR3, USART_CR3_EIE);
 8003d90:	2484      	movs	r4, #132	; 0x84
 8003d92:	193a      	adds	r2, r7, r4
 8003d94:	6013      	str	r3, [r2, #0]
 8003d96:	2301      	movs	r3, #1
 8003d98:	61fb      	str	r3, [r7, #28]
  __ASM volatile ("MSR primask, %0" : : "r" (priMask) : "memory");
 8003d9a:	69fb      	ldr	r3, [r7, #28]
 8003d9c:	f383 8810 	msr	PRIMASK, r3
}
 8003da0:	46c0      	nop			; (mov r8, r8)
 8003da2:	687b      	ldr	r3, [r7, #4]
 8003da4:	681b      	ldr	r3, [r3, #0]
 8003da6:	689a      	ldr	r2, [r3, #8]
 8003da8:	687b      	ldr	r3, [r7, #4]
 8003daa:	681b      	ldr	r3, [r3, #0]
 8003dac:	2101      	movs	r1, #1
 8003dae:	438a      	bics	r2, r1
 8003db0:	609a      	str	r2, [r3, #8]
 8003db2:	193b      	adds	r3, r7, r4
 8003db4:	681b      	ldr	r3, [r3, #0]
 8003db6:	623b      	str	r3, [r7, #32]
  __ASM volatile ("MSR primask, %0" : : "r" (priMask) : "memory");
 8003db8:	6a3b      	ldr	r3, [r7, #32]
 8003dba:	f383 8810 	msr	PRIMASK, r3
}
 8003dbe:	46c0      	nop			; (mov r8, r8)

        /* Rx process is completed, restore huart->RxState to Ready */
        huart->RxState = HAL_UART_STATE_READY;
 8003dc0:	687b      	ldr	r3, [r7, #4]
 8003dc2:	2220      	movs	r2, #32
 8003dc4:	67da      	str	r2, [r3, #124]	; 0x7c
        huart->ReceptionType = HAL_UART_RECEPTION_STANDARD;
 8003dc6:	687b      	ldr	r3, [r7, #4]
 8003dc8:	2200      	movs	r2, #0
 8003dca:	661a      	str	r2, [r3, #96]	; 0x60

        /* Clear RxISR function pointer */
        huart->RxISR = NULL;
 8003dcc:	687b      	ldr	r3, [r7, #4]
 8003dce:	2200      	movs	r2, #0
 8003dd0:	665a      	str	r2, [r3, #100]	; 0x64
  __ASM volatile ("MRS %0, primask" : "=r" (result) :: "memory");
 8003dd2:	f3ef 8310 	mrs	r3, PRIMASK
 8003dd6:	627b      	str	r3, [r7, #36]	; 0x24
  return(result);
 8003dd8:	6a7b      	ldr	r3, [r7, #36]	; 0x24

        ATOMIC_CLEAR_BIT(huart->Instance->CR1, USART_CR1_IDLEIE);
 8003dda:	2480      	movs	r4, #128	; 0x80
 8003ddc:	193a      	adds	r2, r7, r4
 8003dde:	6013      	str	r3, [r2, #0]
 8003de0:	2301      	movs	r3, #1
 8003de2:	62bb      	str	r3, [r7, #40]	; 0x28
  __ASM volatile ("MSR primask, %0" : : "r" (priMask) : "memory");
 8003de4:	6abb      	ldr	r3, [r7, #40]	; 0x28
 8003de6:	f383 8810 	msr	PRIMASK, r3
}
 8003dea:	46c0      	nop			; (mov r8, r8)
 8003dec:	687b      	ldr	r3, [r7, #4]
 8003dee:	681b      	ldr	r3, [r3, #0]
 8003df0:	681a      	ldr	r2, [r3, #0]
 8003df2:	687b      	ldr	r3, [r7, #4]
 8003df4:	681b      	ldr	r3, [r3, #0]
 8003df6:	2110      	movs	r1, #16
 8003df8:	438a      	bics	r2, r1
 8003dfa:	601a      	str	r2, [r3, #0]
 8003dfc:	193b      	adds	r3, r7, r4
 8003dfe:	681b      	ldr	r3, [r3, #0]
 8003e00:	62fb      	str	r3, [r7, #44]	; 0x2c
  __ASM volatile ("MSR primask, %0" : : "r" (priMask) : "memory");
 8003e02:	6afb      	ldr	r3, [r7, #44]	; 0x2c
 8003e04:	f383 8810 	msr	PRIMASK, r3
}
 8003e08:	46c0      	nop			; (mov r8, r8)
#if (USE_HAL_UART_REGISTER_CALLBACKS == 1)
        /*Call registered Rx complete callback*/
        huart->RxEventCallback(huart, nb_rx_data);
#else
        /*Call legacy weak Rx Event callback*/
        HAL_UARTEx_RxEventCallback(huart, nb_rx_data);
 8003e0a:	183b      	adds	r3, r7, r0
 8003e0c:	881a      	ldrh	r2, [r3, #0]
 8003e0e:	687b      	ldr	r3, [r7, #4]
 8003e10:	0011      	movs	r1, r2
 8003e12:	0018      	movs	r0, r3
 8003e14:	f000 f860 	bl	8003ed8 <HAL_UARTEx_RxEventCallback>
#endif /* (USE_HAL_UART_REGISTER_CALLBACKS) */
      }
      return;
 8003e18:	e044      	b.n	8003ea4 <HAL_UART_IRQHandler+0x59c>
  }
#if defined(USART_CR1_UESM)
#if defined(USART_CR3_WUFIE)

  /* UART wakeup from Stop mode interrupt occurred ---------------------------*/
  if (((isrflags & USART_ISR_WUF) != 0U) && ((cr3its & USART_CR3_WUFIE) != 0U))
 8003e1a:	23a4      	movs	r3, #164	; 0xa4
 8003e1c:	18fb      	adds	r3, r7, r3
 8003e1e:	681a      	ldr	r2, [r3, #0]
 8003e20:	2380      	movs	r3, #128	; 0x80
 8003e22:	035b      	lsls	r3, r3, #13
 8003e24:	4013      	ands	r3, r2
 8003e26:	d010      	beq.n	8003e4a <HAL_UART_IRQHandler+0x542>
 8003e28:	239c      	movs	r3, #156	; 0x9c
 8003e2a:	18fb      	adds	r3, r7, r3
 8003e2c:	681a      	ldr	r2, [r3, #0]
 8003e2e:	2380      	movs	r3, #128	; 0x80
 8003e30:	03db      	lsls	r3, r3, #15
 8003e32:	4013      	ands	r3, r2
 8003e34:	d009      	beq.n	8003e4a <HAL_UART_IRQHandler+0x542>
  {
    __HAL_UART_CLEAR_FLAG(huart, UART_CLEAR_WUF);
 8003e36:	687b      	ldr	r3, [r7, #4]
 8003e38:	681b      	ldr	r3, [r3, #0]
 8003e3a:	2280      	movs	r2, #128	; 0x80
 8003e3c:	0352      	lsls	r2, r2, #13
 8003e3e:	621a      	str	r2, [r3, #32]
#if (USE_HAL_UART_REGISTER_CALLBACKS == 1)
    /* Call registered Wakeup Callback */
    huart->WakeupCallback(huart);
#else
    /* Call legacy weak Wakeup Callback */
    HAL_UARTEx_WakeupCallback(huart);
 8003e40:	687b      	ldr	r3, [r7, #4]
 8003e42:	0018      	movs	r0, r3
 8003e44:	f000 fbf8 	bl	8004638 <HAL_UARTEx_WakeupCallback>
#endif /* USE_HAL_UART_REGISTER_CALLBACKS */
    return;
 8003e48:	e02f      	b.n	8003eaa <HAL_UART_IRQHandler+0x5a2>
  }
#endif /* USART_CR3_WUFIE */
#endif /* USART_CR1_UESM */

  /* UART in mode Transmitter ------------------------------------------------*/
  if (((isrflags & USART_ISR_TXE) != 0U)
 8003e4a:	23a4      	movs	r3, #164	; 0xa4
 8003e4c:	18fb      	adds	r3, r7, r3
 8003e4e:	681b      	ldr	r3, [r3, #0]
 8003e50:	2280      	movs	r2, #128	; 0x80
 8003e52:	4013      	ands	r3, r2
 8003e54:	d00f      	beq.n	8003e76 <HAL_UART_IRQHandler+0x56e>
      && ((cr1its & USART_CR1_TXEIE) != 0U))
 8003e56:	23a0      	movs	r3, #160	; 0xa0
 8003e58:	18fb      	adds	r3, r7, r3
 8003e5a:	681b      	ldr	r3, [r3, #0]
 8003e5c:	2280      	movs	r2, #128	; 0x80
 8003e5e:	4013      	ands	r3, r2
 8003e60:	d009      	beq.n	8003e76 <HAL_UART_IRQHandler+0x56e>
  {
    if (huart->TxISR != NULL)
 8003e62:	687b      	ldr	r3, [r7, #4]
 8003e64:	6e9b      	ldr	r3, [r3, #104]	; 0x68
 8003e66:	2b00      	cmp	r3, #0
 8003e68:	d01e      	beq.n	8003ea8 <HAL_UART_IRQHandler+0x5a0>
    {
      huart->TxISR(huart);
 8003e6a:	687b      	ldr	r3, [r7, #4]
 8003e6c:	6e9b      	ldr	r3, [r3, #104]	; 0x68
 8003e6e:	687a      	ldr	r2, [r7, #4]
 8003e70:	0010      	movs	r0, r2
 8003e72:	4798      	blx	r3
    }
    return;
 8003e74:	e018      	b.n	8003ea8 <HAL_UART_IRQHandler+0x5a0>
  }

  /* UART in mode Transmitter (transmission end) -----------------------------*/
  if (((isrflags & USART_ISR_TC) != 0U) && ((cr1its & USART_CR1_TCIE) != 0U))
 8003e76:	23a4      	movs	r3, #164	; 0xa4
 8003e78:	18fb      	adds	r3, r7, r3
 8003e7a:	681b      	ldr	r3, [r3, #0]
 8003e7c:	2240      	movs	r2, #64	; 0x40
 8003e7e:	4013      	ands	r3, r2
 8003e80:	d013      	beq.n	8003eaa <HAL_UART_IRQHandler+0x5a2>
 8003e82:	23a0      	movs	r3, #160	; 0xa0
 8003e84:	18fb      	adds	r3, r7, r3
 8003e86:	681b      	ldr	r3, [r3, #0]
 8003e88:	2240      	movs	r2, #64	; 0x40
 8003e8a:	4013      	ands	r3, r2
 8003e8c:	d00d      	beq.n	8003eaa <HAL_UART_IRQHandler+0x5a2>
  {
    UART_EndTransmit_IT(huart);
 8003e8e:	687b      	ldr	r3, [r7, #4]
 8003e90:	0018      	movs	r0, r3
 8003e92:	f000 fba6 	bl	80045e2 <UART_EndTransmit_IT>
    return;
 8003e96:	e008      	b.n	8003eaa <HAL_UART_IRQHandler+0x5a2>
      return;
 8003e98:	46c0      	nop			; (mov r8, r8)
 8003e9a:	e006      	b.n	8003eaa <HAL_UART_IRQHandler+0x5a2>
    return;
 8003e9c:	46c0      	nop			; (mov r8, r8)
 8003e9e:	e004      	b.n	8003eaa <HAL_UART_IRQHandler+0x5a2>
      return;
 8003ea0:	46c0      	nop			; (mov r8, r8)
 8003ea2:	e002      	b.n	8003eaa <HAL_UART_IRQHandler+0x5a2>
      return;
 8003ea4:	46c0      	nop			; (mov r8, r8)
 8003ea6:	e000      	b.n	8003eaa <HAL_UART_IRQHandler+0x5a2>
    return;
 8003ea8:	46c0      	nop			; (mov r8, r8)
  }

}
 8003eaa:	46bd      	mov	sp, r7
 8003eac:	b02b      	add	sp, #172	; 0xac
 8003eae:	bd90      	pop	{r4, r7, pc}
 8003eb0:	fffffeff 	.word	0xfffffeff
 8003eb4:	fffffedf 	.word	0xfffffedf

08003eb8 <HAL_UART_TxCpltCallback>:
  * @brief Tx Transfer completed callback.
  * @param huart UART handle.
  * @retval None
  */
__weak void HAL_UART_TxCpltCallback(UART_HandleTypeDef *huart)
{
 8003eb8:	b580      	push	{r7, lr}
 8003eba:	b082      	sub	sp, #8
 8003ebc:	af00      	add	r7, sp, #0
 8003ebe:	6078      	str	r0, [r7, #4]
  UNUSED(huart);

  /* NOTE : This function should not be modified, when the callback is needed,
            the HAL_UART_TxCpltCallback can be implemented in the user file.
   */
}
 8003ec0:	46c0      	nop			; (mov r8, r8)
 8003ec2:	46bd      	mov	sp, r7
 8003ec4:	b002      	add	sp, #8
 8003ec6:	bd80      	pop	{r7, pc}

08003ec8 <HAL_UART_ErrorCallback>:
  * @brief  UART error callback.
  * @param  huart UART handle.
  * @retval None
  */
__weak void HAL_UART_ErrorCallback(UART_HandleTypeDef *huart)
{
 8003ec8:	b580      	push	{r7, lr}
 8003eca:	b082      	sub	sp, #8
 8003ecc:	af00      	add	r7, sp, #0
 8003ece:	6078      	str	r0, [r7, #4]
  UNUSED(huart);

  /* NOTE : This function should not be modified, when the callback is needed,
            the HAL_UART_ErrorCallback can be implemented in the user file.
   */
}
 8003ed0:	46c0      	nop			; (mov r8, r8)
 8003ed2:	46bd      	mov	sp, r7
 8003ed4:	b002      	add	sp, #8
 8003ed6:	bd80      	pop	{r7, pc}

08003ed8 <HAL_UARTEx_RxEventCallback>:
  * @param  Size  Number of data available in application reception buffer (indicates a position in
  *               reception buffer until which, data are available)
  * @retval None
  */
__weak void HAL_UARTEx_RxEventCallback(UART_HandleTypeDef *huart, uint16_t Size)
{
 8003ed8:	b580      	push	{r7, lr}
 8003eda:	b082      	sub	sp, #8
 8003edc:	af00      	add	r7, sp, #0
 8003ede:	6078      	str	r0, [r7, #4]
 8003ee0:	000a      	movs	r2, r1
 8003ee2:	1cbb      	adds	r3, r7, #2
 8003ee4:	801a      	strh	r2, [r3, #0]
  UNUSED(Size);

  /* NOTE : This function should not be modified, when the callback is needed,
            the HAL_UARTEx_RxEventCallback can be implemented in the user file.
   */
}
 8003ee6:	46c0      	nop			; (mov r8, r8)
 8003ee8:	46bd      	mov	sp, r7
 8003eea:	b002      	add	sp, #8
 8003eec:	bd80      	pop	{r7, pc}
	...

08003ef0 <UART_SetConfig>:
  * @brief Configure the UART peripheral.
  * @param huart UART handle.
  * @retval HAL status
  */
HAL_StatusTypeDef UART_SetConfig(UART_HandleTypeDef *huart)
{
 8003ef0:	b580      	push	{r7, lr}
 8003ef2:	b088      	sub	sp, #32
 8003ef4:	af00      	add	r7, sp, #0
 8003ef6:	6078      	str	r0, [r7, #4]
  uint32_t tmpreg;
  uint16_t brrtemp;
  UART_ClockSourceTypeDef clocksource;
  uint32_t usartdiv;
  HAL_StatusTypeDef ret               = HAL_OK;
 8003ef8:	231e      	movs	r3, #30
 8003efa:	18fb      	adds	r3, r7, r3
 8003efc:	2200      	movs	r2, #0
 8003efe:	701a      	strb	r2, [r3, #0]
  *  the UART Word Length, Parity, Mode and oversampling:
  *  set the M bits according to huart->Init.WordLength value
  *  set PCE and PS bits according to huart->Init.Parity value
  *  set TE and RE bits according to huart->Init.Mode value
  *  set OVER8 bit according to huart->Init.OverSampling value */
  tmpreg = (uint32_t)huart->Init.WordLength | huart->Init.Parity | huart->Init.Mode | huart->Init.OverSampling ;
 8003f00:	687b      	ldr	r3, [r7, #4]
 8003f02:	689a      	ldr	r2, [r3, #8]
 8003f04:	687b      	ldr	r3, [r7, #4]
 8003f06:	691b      	ldr	r3, [r3, #16]
 8003f08:	431a      	orrs	r2, r3
 8003f0a:	687b      	ldr	r3, [r7, #4]
 8003f0c:	695b      	ldr	r3, [r3, #20]
 8003f0e:	431a      	orrs	r2, r3
 8003f10:	687b      	ldr	r3, [r7, #4]
 8003f12:	69db      	ldr	r3, [r3, #28]
 8003f14:	4313      	orrs	r3, r2
 8003f16:	617b      	str	r3, [r7, #20]
  MODIFY_REG(huart->Instance->CR1, USART_CR1_FIELDS, tmpreg);
 8003f18:	687b      	ldr	r3, [r7, #4]
 8003f1a:	681b      	ldr	r3, [r3, #0]
 8003f1c:	681b      	ldr	r3, [r3, #0]
 8003f1e:	4a8d      	ldr	r2, [pc, #564]	; (8004154 <UART_SetConfig+0x264>)
 8003f20:	4013      	ands	r3, r2
 8003f22:	0019      	movs	r1, r3
 8003f24:	687b      	ldr	r3, [r7, #4]
 8003f26:	681b      	ldr	r3, [r3, #0]
 8003f28:	697a      	ldr	r2, [r7, #20]
 8003f2a:	430a      	orrs	r2, r1
 8003f2c:	601a      	str	r2, [r3, #0]

  /*-------------------------- USART CR2 Configuration -----------------------*/
  /* Configure the UART Stop Bits: Set STOP[13:12] bits according
  * to huart->Init.StopBits value */
  MODIFY_REG(huart->Instance->CR2, USART_CR2_STOP, huart->Init.StopBits);
 8003f2e:	687b      	ldr	r3, [r7, #4]
 8003f30:	681b      	ldr	r3, [r3, #0]
 8003f32:	685b      	ldr	r3, [r3, #4]
 8003f34:	4a88      	ldr	r2, [pc, #544]	; (8004158 <UART_SetConfig+0x268>)
 8003f36:	4013      	ands	r3, r2
 8003f38:	0019      	movs	r1, r3
 8003f3a:	687b      	ldr	r3, [r7, #4]
 8003f3c:	68da      	ldr	r2, [r3, #12]
 8003f3e:	687b      	ldr	r3, [r7, #4]
 8003f40:	681b      	ldr	r3, [r3, #0]
 8003f42:	430a      	orrs	r2, r1
 8003f44:	605a      	str	r2, [r3, #4]
  /* Configure
  * - UART HardWare Flow Control: set CTSE and RTSE bits according
  *   to huart->Init.HwFlowCtl value
  * - one-bit sampling method versus three samples' majority rule according
  *   to huart->Init.OneBitSampling (not applicable to LPUART) */
  tmpreg = (uint32_t)huart->Init.HwFlowCtl;
 8003f46:	687b      	ldr	r3, [r7, #4]
 8003f48:	699b      	ldr	r3, [r3, #24]
 8003f4a:	617b      	str	r3, [r7, #20]

  tmpreg |= huart->Init.OneBitSampling;
 8003f4c:	687b      	ldr	r3, [r7, #4]
 8003f4e:	6a1b      	ldr	r3, [r3, #32]
 8003f50:	697a      	ldr	r2, [r7, #20]
 8003f52:	4313      	orrs	r3, r2
 8003f54:	617b      	str	r3, [r7, #20]
  MODIFY_REG(huart->Instance->CR3, USART_CR3_FIELDS, tmpreg);
 8003f56:	687b      	ldr	r3, [r7, #4]
 8003f58:	681b      	ldr	r3, [r3, #0]
 8003f5a:	689b      	ldr	r3, [r3, #8]
 8003f5c:	4a7f      	ldr	r2, [pc, #508]	; (800415c <UART_SetConfig+0x26c>)
 8003f5e:	4013      	ands	r3, r2
 8003f60:	0019      	movs	r1, r3
 8003f62:	687b      	ldr	r3, [r7, #4]
 8003f64:	681b      	ldr	r3, [r3, #0]
 8003f66:	697a      	ldr	r2, [r7, #20]
 8003f68:	430a      	orrs	r2, r1
 8003f6a:	609a      	str	r2, [r3, #8]


  /*-------------------------- USART BRR Configuration -----------------------*/
  UART_GETCLOCKSOURCE(huart, clocksource);
 8003f6c:	687b      	ldr	r3, [r7, #4]
 8003f6e:	681b      	ldr	r3, [r3, #0]
 8003f70:	4a7b      	ldr	r2, [pc, #492]	; (8004160 <UART_SetConfig+0x270>)
 8003f72:	4293      	cmp	r3, r2
 8003f74:	d127      	bne.n	8003fc6 <UART_SetConfig+0xd6>
 8003f76:	4b7b      	ldr	r3, [pc, #492]	; (8004164 <UART_SetConfig+0x274>)
 8003f78:	6b1b      	ldr	r3, [r3, #48]	; 0x30
 8003f7a:	2203      	movs	r2, #3
 8003f7c:	4013      	ands	r3, r2
 8003f7e:	2b03      	cmp	r3, #3
 8003f80:	d00d      	beq.n	8003f9e <UART_SetConfig+0xae>
 8003f82:	d81b      	bhi.n	8003fbc <UART_SetConfig+0xcc>
 8003f84:	2b02      	cmp	r3, #2
 8003f86:	d014      	beq.n	8003fb2 <UART_SetConfig+0xc2>
 8003f88:	d818      	bhi.n	8003fbc <UART_SetConfig+0xcc>
 8003f8a:	2b00      	cmp	r3, #0
 8003f8c:	d002      	beq.n	8003f94 <UART_SetConfig+0xa4>
 8003f8e:	2b01      	cmp	r3, #1
 8003f90:	d00a      	beq.n	8003fa8 <UART_SetConfig+0xb8>
 8003f92:	e013      	b.n	8003fbc <UART_SetConfig+0xcc>
 8003f94:	231f      	movs	r3, #31
 8003f96:	18fb      	adds	r3, r7, r3
 8003f98:	2200      	movs	r2, #0
 8003f9a:	701a      	strb	r2, [r3, #0]
 8003f9c:	e021      	b.n	8003fe2 <UART_SetConfig+0xf2>
 8003f9e:	231f      	movs	r3, #31
 8003fa0:	18fb      	adds	r3, r7, r3
 8003fa2:	2202      	movs	r2, #2
 8003fa4:	701a      	strb	r2, [r3, #0]
 8003fa6:	e01c      	b.n	8003fe2 <UART_SetConfig+0xf2>
 8003fa8:	231f      	movs	r3, #31
 8003faa:	18fb      	adds	r3, r7, r3
 8003fac:	2204      	movs	r2, #4
 8003fae:	701a      	strb	r2, [r3, #0]
 8003fb0:	e017      	b.n	8003fe2 <UART_SetConfig+0xf2>
 8003fb2:	231f      	movs	r3, #31
 8003fb4:	18fb      	adds	r3, r7, r3
 8003fb6:	2208      	movs	r2, #8
 8003fb8:	701a      	strb	r2, [r3, #0]
 8003fba:	e012      	b.n	8003fe2 <UART_SetConfig+0xf2>
 8003fbc:	231f      	movs	r3, #31
 8003fbe:	18fb      	adds	r3, r7, r3
 8003fc0:	2210      	movs	r2, #16
 8003fc2:	701a      	strb	r2, [r3, #0]
 8003fc4:	e00d      	b.n	8003fe2 <UART_SetConfig+0xf2>
 8003fc6:	687b      	ldr	r3, [r7, #4]
 8003fc8:	681b      	ldr	r3, [r3, #0]
 8003fca:	4a67      	ldr	r2, [pc, #412]	; (8004168 <UART_SetConfig+0x278>)
 8003fcc:	4293      	cmp	r3, r2
 8003fce:	d104      	bne.n	8003fda <UART_SetConfig+0xea>
 8003fd0:	231f      	movs	r3, #31
 8003fd2:	18fb      	adds	r3, r7, r3
 8003fd4:	2200      	movs	r2, #0
 8003fd6:	701a      	strb	r2, [r3, #0]
 8003fd8:	e003      	b.n	8003fe2 <UART_SetConfig+0xf2>
 8003fda:	231f      	movs	r3, #31
 8003fdc:	18fb      	adds	r3, r7, r3
 8003fde:	2210      	movs	r2, #16
 8003fe0:	701a      	strb	r2, [r3, #0]

  if (huart->Init.OverSampling == UART_OVERSAMPLING_8)
 8003fe2:	687b      	ldr	r3, [r7, #4]
 8003fe4:	69da      	ldr	r2, [r3, #28]
 8003fe6:	2380      	movs	r3, #128	; 0x80
 8003fe8:	021b      	lsls	r3, r3, #8
 8003fea:	429a      	cmp	r2, r3
 8003fec:	d15d      	bne.n	80040aa <UART_SetConfig+0x1ba>
  {
    switch (clocksource)
 8003fee:	231f      	movs	r3, #31
 8003ff0:	18fb      	adds	r3, r7, r3
 8003ff2:	781b      	ldrb	r3, [r3, #0]
 8003ff4:	2b08      	cmp	r3, #8
 8003ff6:	d015      	beq.n	8004024 <UART_SetConfig+0x134>
 8003ff8:	dc18      	bgt.n	800402c <UART_SetConfig+0x13c>
 8003ffa:	2b04      	cmp	r3, #4
 8003ffc:	d00d      	beq.n	800401a <UART_SetConfig+0x12a>
 8003ffe:	dc15      	bgt.n	800402c <UART_SetConfig+0x13c>
 8004000:	2b00      	cmp	r3, #0
 8004002:	d002      	beq.n	800400a <UART_SetConfig+0x11a>
 8004004:	2b02      	cmp	r3, #2
 8004006:	d005      	beq.n	8004014 <UART_SetConfig+0x124>
 8004008:	e010      	b.n	800402c <UART_SetConfig+0x13c>
    {
      case UART_CLOCKSOURCE_PCLK1:
        pclk = HAL_RCC_GetPCLK1Freq();
 800400a:	f7fe fcd7 	bl	80029bc <HAL_RCC_GetPCLK1Freq>
 800400e:	0003      	movs	r3, r0
 8004010:	61bb      	str	r3, [r7, #24]
        break;
 8004012:	e012      	b.n	800403a <UART_SetConfig+0x14a>
      case UART_CLOCKSOURCE_HSI:
        pclk = (uint32_t) HSI_VALUE;
 8004014:	4b55      	ldr	r3, [pc, #340]	; (800416c <UART_SetConfig+0x27c>)
 8004016:	61bb      	str	r3, [r7, #24]
        break;
 8004018:	e00f      	b.n	800403a <UART_SetConfig+0x14a>
      case UART_CLOCKSOURCE_SYSCLK:
        pclk = HAL_RCC_GetSysClockFreq();
 800401a:	f7fe fc61 	bl	80028e0 <HAL_RCC_GetSysClockFreq>
 800401e:	0003      	movs	r3, r0
 8004020:	61bb      	str	r3, [r7, #24]
        break;
 8004022:	e00a      	b.n	800403a <UART_SetConfig+0x14a>
      case UART_CLOCKSOURCE_LSE:
        pclk = (uint32_t) LSE_VALUE;
 8004024:	2380      	movs	r3, #128	; 0x80
 8004026:	021b      	lsls	r3, r3, #8
 8004028:	61bb      	str	r3, [r7, #24]
        break;
 800402a:	e006      	b.n	800403a <UART_SetConfig+0x14a>
      default:
        pclk = 0U;
 800402c:	2300      	movs	r3, #0
 800402e:	61bb      	str	r3, [r7, #24]
        ret = HAL_ERROR;
 8004030:	231e      	movs	r3, #30
 8004032:	18fb      	adds	r3, r7, r3
 8004034:	2201      	movs	r2, #1
 8004036:	701a      	strb	r2, [r3, #0]
        break;
 8004038:	46c0      	nop			; (mov r8, r8)
    }

    /* USARTDIV must be greater than or equal to 0d16 */
    if (pclk != 0U)
 800403a:	69bb      	ldr	r3, [r7, #24]
 800403c:	2b00      	cmp	r3, #0
 800403e:	d100      	bne.n	8004042 <UART_SetConfig+0x152>
 8004040:	e07b      	b.n	800413a <UART_SetConfig+0x24a>
    {
      usartdiv = (uint16_t)(UART_DIV_SAMPLING8(pclk, huart->Init.BaudRate));
 8004042:	69bb      	ldr	r3, [r7, #24]
 8004044:	005a      	lsls	r2, r3, #1
 8004046:	687b      	ldr	r3, [r7, #4]
 8004048:	685b      	ldr	r3, [r3, #4]
 800404a:	085b      	lsrs	r3, r3, #1
 800404c:	18d2      	adds	r2, r2, r3
 800404e:	687b      	ldr	r3, [r7, #4]
 8004050:	685b      	ldr	r3, [r3, #4]
 8004052:	0019      	movs	r1, r3
 8004054:	0010      	movs	r0, r2
 8004056:	f7fc f861 	bl	800011c <__udivsi3>
 800405a:	0003      	movs	r3, r0
 800405c:	b29b      	uxth	r3, r3
 800405e:	613b      	str	r3, [r7, #16]
      if ((usartdiv >= UART_BRR_MIN) && (usartdiv <= UART_BRR_MAX))
 8004060:	693b      	ldr	r3, [r7, #16]
 8004062:	2b0f      	cmp	r3, #15
 8004064:	d91c      	bls.n	80040a0 <UART_SetConfig+0x1b0>
 8004066:	693a      	ldr	r2, [r7, #16]
 8004068:	2380      	movs	r3, #128	; 0x80
 800406a:	025b      	lsls	r3, r3, #9
 800406c:	429a      	cmp	r2, r3
 800406e:	d217      	bcs.n	80040a0 <UART_SetConfig+0x1b0>
      {
        brrtemp = (uint16_t)(usartdiv & 0xFFF0U);
 8004070:	693b      	ldr	r3, [r7, #16]
 8004072:	b29a      	uxth	r2, r3
 8004074:	200e      	movs	r0, #14
 8004076:	183b      	adds	r3, r7, r0
 8004078:	210f      	movs	r1, #15
 800407a:	438a      	bics	r2, r1
 800407c:	801a      	strh	r2, [r3, #0]
        brrtemp |= (uint16_t)((usartdiv & (uint16_t)0x000FU) >> 1U);
 800407e:	693b      	ldr	r3, [r7, #16]
 8004080:	085b      	lsrs	r3, r3, #1
 8004082:	b29b      	uxth	r3, r3
 8004084:	2207      	movs	r2, #7
 8004086:	4013      	ands	r3, r2
 8004088:	b299      	uxth	r1, r3
 800408a:	183b      	adds	r3, r7, r0
 800408c:	183a      	adds	r2, r7, r0
 800408e:	8812      	ldrh	r2, [r2, #0]
 8004090:	430a      	orrs	r2, r1
 8004092:	801a      	strh	r2, [r3, #0]
        huart->Instance->BRR = brrtemp;
 8004094:	687b      	ldr	r3, [r7, #4]
 8004096:	681b      	ldr	r3, [r3, #0]
 8004098:	183a      	adds	r2, r7, r0
 800409a:	8812      	ldrh	r2, [r2, #0]
 800409c:	60da      	str	r2, [r3, #12]
 800409e:	e04c      	b.n	800413a <UART_SetConfig+0x24a>
      }
      else
      {
        ret = HAL_ERROR;
 80040a0:	231e      	movs	r3, #30
 80040a2:	18fb      	adds	r3, r7, r3
 80040a4:	2201      	movs	r2, #1
 80040a6:	701a      	strb	r2, [r3, #0]
 80040a8:	e047      	b.n	800413a <UART_SetConfig+0x24a>
      }
    }
  }
  else
  {
    switch (clocksource)
 80040aa:	231f      	movs	r3, #31
 80040ac:	18fb      	adds	r3, r7, r3
 80040ae:	781b      	ldrb	r3, [r3, #0]
 80040b0:	2b08      	cmp	r3, #8
 80040b2:	d015      	beq.n	80040e0 <UART_SetConfig+0x1f0>
 80040b4:	dc18      	bgt.n	80040e8 <UART_SetConfig+0x1f8>
 80040b6:	2b04      	cmp	r3, #4
 80040b8:	d00d      	beq.n	80040d6 <UART_SetConfig+0x1e6>
 80040ba:	dc15      	bgt.n	80040e8 <UART_SetConfig+0x1f8>
 80040bc:	2b00      	cmp	r3, #0
 80040be:	d002      	beq.n	80040c6 <UART_SetConfig+0x1d6>
 80040c0:	2b02      	cmp	r3, #2
 80040c2:	d005      	beq.n	80040d0 <UART_SetConfig+0x1e0>
 80040c4:	e010      	b.n	80040e8 <UART_SetConfig+0x1f8>
    {
      case UART_CLOCKSOURCE_PCLK1:
        pclk = HAL_RCC_GetPCLK1Freq();
 80040c6:	f7fe fc79 	bl	80029bc <HAL_RCC_GetPCLK1Freq>
 80040ca:	0003      	movs	r3, r0
 80040cc:	61bb      	str	r3, [r7, #24]
        break;
 80040ce:	e012      	b.n	80040f6 <UART_SetConfig+0x206>
      case UART_CLOCKSOURCE_HSI:
        pclk = (uint32_t) HSI_VALUE;
 80040d0:	4b26      	ldr	r3, [pc, #152]	; (800416c <UART_SetConfig+0x27c>)
 80040d2:	61bb      	str	r3, [r7, #24]
        break;
 80040d4:	e00f      	b.n	80040f6 <UART_SetConfig+0x206>
      case UART_CLOCKSOURCE_SYSCLK:
        pclk = HAL_RCC_GetSysClockFreq();
 80040d6:	f7fe fc03 	bl	80028e0 <HAL_RCC_GetSysClockFreq>
 80040da:	0003      	movs	r3, r0
 80040dc:	61bb      	str	r3, [r7, #24]
        break;
 80040de:	e00a      	b.n	80040f6 <UART_SetConfig+0x206>
      case UART_CLOCKSOURCE_LSE:
        pclk = (uint32_t) LSE_VALUE;
 80040e0:	2380      	movs	r3, #128	; 0x80
 80040e2:	021b      	lsls	r3, r3, #8
 80040e4:	61bb      	str	r3, [r7, #24]
        break;
 80040e6:	e006      	b.n	80040f6 <UART_SetConfig+0x206>
      default:
        pclk = 0U;
 80040e8:	2300      	movs	r3, #0
 80040ea:	61bb      	str	r3, [r7, #24]
        ret = HAL_ERROR;
 80040ec:	231e      	movs	r3, #30
 80040ee:	18fb      	adds	r3, r7, r3
 80040f0:	2201      	movs	r2, #1
 80040f2:	701a      	strb	r2, [r3, #0]
        break;
 80040f4:	46c0      	nop			; (mov r8, r8)
    }

    if (pclk != 0U)
 80040f6:	69bb      	ldr	r3, [r7, #24]
 80040f8:	2b00      	cmp	r3, #0
 80040fa:	d01e      	beq.n	800413a <UART_SetConfig+0x24a>
    {
      /* USARTDIV must be greater than or equal to 0d16 */
      usartdiv = (uint16_t)(UART_DIV_SAMPLING16(pclk, huart->Init.BaudRate));
 80040fc:	687b      	ldr	r3, [r7, #4]
 80040fe:	685b      	ldr	r3, [r3, #4]
 8004100:	085a      	lsrs	r2, r3, #1
 8004102:	69bb      	ldr	r3, [r7, #24]
 8004104:	18d2      	adds	r2, r2, r3
 8004106:	687b      	ldr	r3, [r7, #4]
 8004108:	685b      	ldr	r3, [r3, #4]
 800410a:	0019      	movs	r1, r3
 800410c:	0010      	movs	r0, r2
 800410e:	f7fc f805 	bl	800011c <__udivsi3>
 8004112:	0003      	movs	r3, r0
 8004114:	b29b      	uxth	r3, r3
 8004116:	613b      	str	r3, [r7, #16]
      if ((usartdiv >= UART_BRR_MIN) && (usartdiv <= UART_BRR_MAX))
 8004118:	693b      	ldr	r3, [r7, #16]
 800411a:	2b0f      	cmp	r3, #15
 800411c:	d909      	bls.n	8004132 <UART_SetConfig+0x242>
 800411e:	693a      	ldr	r2, [r7, #16]
 8004120:	2380      	movs	r3, #128	; 0x80
 8004122:	025b      	lsls	r3, r3, #9
 8004124:	429a      	cmp	r2, r3
 8004126:	d204      	bcs.n	8004132 <UART_SetConfig+0x242>
      {
        huart->Instance->BRR = usartdiv;
 8004128:	687b      	ldr	r3, [r7, #4]
 800412a:	681b      	ldr	r3, [r3, #0]
 800412c:	693a      	ldr	r2, [r7, #16]
 800412e:	60da      	str	r2, [r3, #12]
 8004130:	e003      	b.n	800413a <UART_SetConfig+0x24a>
      }
      else
      {
        ret = HAL_ERROR;
 8004132:	231e      	movs	r3, #30
 8004134:	18fb      	adds	r3, r7, r3
 8004136:	2201      	movs	r2, #1
 8004138:	701a      	strb	r2, [r3, #0]
    }
  }


  /* Clear ISR function pointers */
  huart->RxISR = NULL;
 800413a:	687b      	ldr	r3, [r7, #4]
 800413c:	2200      	movs	r2, #0
 800413e:	665a      	str	r2, [r3, #100]	; 0x64
  huart->TxISR = NULL;
 8004140:	687b      	ldr	r3, [r7, #4]
 8004142:	2200      	movs	r2, #0
 8004144:	669a      	str	r2, [r3, #104]	; 0x68

  return ret;
 8004146:	231e      	movs	r3, #30
 8004148:	18fb      	adds	r3, r7, r3
 800414a:	781b      	ldrb	r3, [r3, #0]
}
 800414c:	0018      	movs	r0, r3
 800414e:	46bd      	mov	sp, r7
 8004150:	b008      	add	sp, #32
 8004152:	bd80      	pop	{r7, pc}
 8004154:	ffff69f3 	.word	0xffff69f3
 8004158:	ffffcfff 	.word	0xffffcfff
 800415c:	fffff4ff 	.word	0xfffff4ff
 8004160:	40013800 	.word	0x40013800
 8004164:	40021000 	.word	0x40021000
 8004168:	40004400 	.word	0x40004400
 800416c:	007a1200 	.word	0x007a1200

08004170 <UART_AdvFeatureConfig>:
  * @brief Configure the UART peripheral advanced features.
  * @param huart UART handle.
  * @retval None
  */
void UART_AdvFeatureConfig(UART_HandleTypeDef *huart)
{
 8004170:	b580      	push	{r7, lr}
 8004172:	b082      	sub	sp, #8
 8004174:	af00      	add	r7, sp, #0
 8004176:	6078      	str	r0, [r7, #4]
  /* Check whether the set of advanced features to configure is properly set */
  assert_param(IS_UART_ADVFEATURE_INIT(huart->AdvancedInit.AdvFeatureInit));

  /* if required, configure TX pin active level inversion */
  if (HAL_IS_BIT_SET(huart->AdvancedInit.AdvFeatureInit, UART_ADVFEATURE_TXINVERT_INIT))
 8004178:	687b      	ldr	r3, [r7, #4]
 800417a:	6a5b      	ldr	r3, [r3, #36]	; 0x24
 800417c:	2201      	movs	r2, #1
 800417e:	4013      	ands	r3, r2
 8004180:	d00b      	beq.n	800419a <UART_AdvFeatureConfig+0x2a>
  {
    assert_param(IS_UART_ADVFEATURE_TXINV(huart->AdvancedInit.TxPinLevelInvert));
    MODIFY_REG(huart->Instance->CR2, USART_CR2_TXINV, huart->AdvancedInit.TxPinLevelInvert);
 8004182:	687b      	ldr	r3, [r7, #4]
 8004184:	681b      	ldr	r3, [r3, #0]
 8004186:	685b      	ldr	r3, [r3, #4]
 8004188:	4a4a      	ldr	r2, [pc, #296]	; (80042b4 <UART_AdvFeatureConfig+0x144>)
 800418a:	4013      	ands	r3, r2
 800418c:	0019      	movs	r1, r3
 800418e:	687b      	ldr	r3, [r7, #4]
 8004190:	6a9a      	ldr	r2, [r3, #40]	; 0x28
 8004192:	687b      	ldr	r3, [r7, #4]
 8004194:	681b      	ldr	r3, [r3, #0]
 8004196:	430a      	orrs	r2, r1
 8004198:	605a      	str	r2, [r3, #4]
  }

  /* if required, configure RX pin active level inversion */
  if (HAL_IS_BIT_SET(huart->AdvancedInit.AdvFeatureInit, UART_ADVFEATURE_RXINVERT_INIT))
 800419a:	687b      	ldr	r3, [r7, #4]
 800419c:	6a5b      	ldr	r3, [r3, #36]	; 0x24
 800419e:	2202      	movs	r2, #2
 80041a0:	4013      	ands	r3, r2
 80041a2:	d00b      	beq.n	80041bc <UART_AdvFeatureConfig+0x4c>
  {
    assert_param(IS_UART_ADVFEATURE_RXINV(huart->AdvancedInit.RxPinLevelInvert));
    MODIFY_REG(huart->Instance->CR2, USART_CR2_RXINV, huart->AdvancedInit.RxPinLevelInvert);
 80041a4:	687b      	ldr	r3, [r7, #4]
 80041a6:	681b      	ldr	r3, [r3, #0]
 80041a8:	685b      	ldr	r3, [r3, #4]
 80041aa:	4a43      	ldr	r2, [pc, #268]	; (80042b8 <UART_AdvFeatureConfig+0x148>)
 80041ac:	4013      	ands	r3, r2
 80041ae:	0019      	movs	r1, r3
 80041b0:	687b      	ldr	r3, [r7, #4]
 80041b2:	6ada      	ldr	r2, [r3, #44]	; 0x2c
 80041b4:	687b      	ldr	r3, [r7, #4]
 80041b6:	681b      	ldr	r3, [r3, #0]
 80041b8:	430a      	orrs	r2, r1
 80041ba:	605a      	str	r2, [r3, #4]
  }

  /* if required, configure data inversion */
  if (HAL_IS_BIT_SET(huart->AdvancedInit.AdvFeatureInit, UART_ADVFEATURE_DATAINVERT_INIT))
 80041bc:	687b      	ldr	r3, [r7, #4]
 80041be:	6a5b      	ldr	r3, [r3, #36]	; 0x24
 80041c0:	2204      	movs	r2, #4
 80041c2:	4013      	ands	r3, r2
 80041c4:	d00b      	beq.n	80041de <UART_AdvFeatureConfig+0x6e>
  {
    assert_param(IS_UART_ADVFEATURE_DATAINV(huart->AdvancedInit.DataInvert));
    MODIFY_REG(huart->Instance->CR2, USART_CR2_DATAINV, huart->AdvancedInit.DataInvert);
 80041c6:	687b      	ldr	r3, [r7, #4]
 80041c8:	681b      	ldr	r3, [r3, #0]
 80041ca:	685b      	ldr	r3, [r3, #4]
 80041cc:	4a3b      	ldr	r2, [pc, #236]	; (80042bc <UART_AdvFeatureConfig+0x14c>)
 80041ce:	4013      	ands	r3, r2
 80041d0:	0019      	movs	r1, r3
 80041d2:	687b      	ldr	r3, [r7, #4]
 80041d4:	6b1a      	ldr	r2, [r3, #48]	; 0x30
 80041d6:	687b      	ldr	r3, [r7, #4]
 80041d8:	681b      	ldr	r3, [r3, #0]
 80041da:	430a      	orrs	r2, r1
 80041dc:	605a      	str	r2, [r3, #4]
  }

  /* if required, configure RX/TX pins swap */
  if (HAL_IS_BIT_SET(huart->AdvancedInit.AdvFeatureInit, UART_ADVFEATURE_SWAP_INIT))
 80041de:	687b      	ldr	r3, [r7, #4]
 80041e0:	6a5b      	ldr	r3, [r3, #36]	; 0x24
 80041e2:	2208      	movs	r2, #8
 80041e4:	4013      	ands	r3, r2
 80041e6:	d00b      	beq.n	8004200 <UART_AdvFeatureConfig+0x90>
  {
    assert_param(IS_UART_ADVFEATURE_SWAP(huart->AdvancedInit.Swap));
    MODIFY_REG(huart->Instance->CR2, USART_CR2_SWAP, huart->AdvancedInit.Swap);
 80041e8:	687b      	ldr	r3, [r7, #4]
 80041ea:	681b      	ldr	r3, [r3, #0]
 80041ec:	685b      	ldr	r3, [r3, #4]
 80041ee:	4a34      	ldr	r2, [pc, #208]	; (80042c0 <UART_AdvFeatureConfig+0x150>)
 80041f0:	4013      	ands	r3, r2
 80041f2:	0019      	movs	r1, r3
 80041f4:	687b      	ldr	r3, [r7, #4]
 80041f6:	6b5a      	ldr	r2, [r3, #52]	; 0x34
 80041f8:	687b      	ldr	r3, [r7, #4]
 80041fa:	681b      	ldr	r3, [r3, #0]
 80041fc:	430a      	orrs	r2, r1
 80041fe:	605a      	str	r2, [r3, #4]
  }

  /* if required, configure RX overrun detection disabling */
  if (HAL_IS_BIT_SET(huart->AdvancedInit.AdvFeatureInit, UART_ADVFEATURE_RXOVERRUNDISABLE_INIT))
 8004200:	687b      	ldr	r3, [r7, #4]
 8004202:	6a5b      	ldr	r3, [r3, #36]	; 0x24
 8004204:	2210      	movs	r2, #16
 8004206:	4013      	ands	r3, r2
 8004208:	d00b      	beq.n	8004222 <UART_AdvFeatureConfig+0xb2>
  {
    assert_param(IS_UART_OVERRUN(huart->AdvancedInit.OverrunDisable));
    MODIFY_REG(huart->Instance->CR3, USART_CR3_OVRDIS, huart->AdvancedInit.OverrunDisable);
 800420a:	687b      	ldr	r3, [r7, #4]
 800420c:	681b      	ldr	r3, [r3, #0]
 800420e:	689b      	ldr	r3, [r3, #8]
 8004210:	4a2c      	ldr	r2, [pc, #176]	; (80042c4 <UART_AdvFeatureConfig+0x154>)
 8004212:	4013      	ands	r3, r2
 8004214:	0019      	movs	r1, r3
 8004216:	687b      	ldr	r3, [r7, #4]
 8004218:	6b9a      	ldr	r2, [r3, #56]	; 0x38
 800421a:	687b      	ldr	r3, [r7, #4]
 800421c:	681b      	ldr	r3, [r3, #0]
 800421e:	430a      	orrs	r2, r1
 8004220:	609a      	str	r2, [r3, #8]
  }

  /* if required, configure DMA disabling on reception error */
  if (HAL_IS_BIT_SET(huart->AdvancedInit.AdvFeatureInit, UART_ADVFEATURE_DMADISABLEONERROR_INIT))
 8004222:	687b      	ldr	r3, [r7, #4]
 8004224:	6a5b      	ldr	r3, [r3, #36]	; 0x24
 8004226:	2220      	movs	r2, #32
 8004228:	4013      	ands	r3, r2
 800422a:	d00b      	beq.n	8004244 <UART_AdvFeatureConfig+0xd4>
  {
    assert_param(IS_UART_ADVFEATURE_DMAONRXERROR(huart->AdvancedInit.DMADisableonRxError));
    MODIFY_REG(huart->Instance->CR3, USART_CR3_DDRE, huart->AdvancedInit.DMADisableonRxError);
 800422c:	687b      	ldr	r3, [r7, #4]
 800422e:	681b      	ldr	r3, [r3, #0]
 8004230:	689b      	ldr	r3, [r3, #8]
 8004232:	4a25      	ldr	r2, [pc, #148]	; (80042c8 <UART_AdvFeatureConfig+0x158>)
 8004234:	4013      	ands	r3, r2
 8004236:	0019      	movs	r1, r3
 8004238:	687b      	ldr	r3, [r7, #4]
 800423a:	6bda      	ldr	r2, [r3, #60]	; 0x3c
 800423c:	687b      	ldr	r3, [r7, #4]
 800423e:	681b      	ldr	r3, [r3, #0]
 8004240:	430a      	orrs	r2, r1
 8004242:	609a      	str	r2, [r3, #8]
  }

  /* if required, configure auto Baud rate detection scheme */
  if (HAL_IS_BIT_SET(huart->AdvancedInit.AdvFeatureInit, UART_ADVFEATURE_AUTOBAUDRATE_INIT))
 8004244:	687b      	ldr	r3, [r7, #4]
 8004246:	6a5b      	ldr	r3, [r3, #36]	; 0x24
 8004248:	2240      	movs	r2, #64	; 0x40
 800424a:	4013      	ands	r3, r2
 800424c:	d01d      	beq.n	800428a <UART_AdvFeatureConfig+0x11a>
  {
    assert_param(IS_USART_AUTOBAUDRATE_DETECTION_INSTANCE(huart->Instance));
    assert_param(IS_UART_ADVFEATURE_AUTOBAUDRATE(huart->AdvancedInit.AutoBaudRateEnable));
    MODIFY_REG(huart->Instance->CR2, USART_CR2_ABREN, huart->AdvancedInit.AutoBaudRateEnable);
 800424e:	687b      	ldr	r3, [r7, #4]
 8004250:	681b      	ldr	r3, [r3, #0]
 8004252:	685b      	ldr	r3, [r3, #4]
 8004254:	4a1d      	ldr	r2, [pc, #116]	; (80042cc <UART_AdvFeatureConfig+0x15c>)
 8004256:	4013      	ands	r3, r2
 8004258:	0019      	movs	r1, r3
 800425a:	687b      	ldr	r3, [r7, #4]
 800425c:	6c1a      	ldr	r2, [r3, #64]	; 0x40
 800425e:	687b      	ldr	r3, [r7, #4]
 8004260:	681b      	ldr	r3, [r3, #0]
 8004262:	430a      	orrs	r2, r1
 8004264:	605a      	str	r2, [r3, #4]
    /* set auto Baudrate detection parameters if detection is enabled */
    if (huart->AdvancedInit.AutoBaudRateEnable == UART_ADVFEATURE_AUTOBAUDRATE_ENABLE)
 8004266:	687b      	ldr	r3, [r7, #4]
 8004268:	6c1a      	ldr	r2, [r3, #64]	; 0x40
 800426a:	2380      	movs	r3, #128	; 0x80
 800426c:	035b      	lsls	r3, r3, #13
 800426e:	429a      	cmp	r2, r3
 8004270:	d10b      	bne.n	800428a <UART_AdvFeatureConfig+0x11a>
    {
      assert_param(IS_UART_ADVFEATURE_AUTOBAUDRATEMODE(huart->AdvancedInit.AutoBaudRateMode));
      MODIFY_REG(huart->Instance->CR2, USART_CR2_ABRMODE, huart->AdvancedInit.AutoBaudRateMode);
 8004272:	687b      	ldr	r3, [r7, #4]
 8004274:	681b      	ldr	r3, [r3, #0]
 8004276:	685b      	ldr	r3, [r3, #4]
 8004278:	4a15      	ldr	r2, [pc, #84]	; (80042d0 <UART_AdvFeatureConfig+0x160>)
 800427a:	4013      	ands	r3, r2
 800427c:	0019      	movs	r1, r3
 800427e:	687b      	ldr	r3, [r7, #4]
 8004280:	6c5a      	ldr	r2, [r3, #68]	; 0x44
 8004282:	687b      	ldr	r3, [r7, #4]
 8004284:	681b      	ldr	r3, [r3, #0]
 8004286:	430a      	orrs	r2, r1
 8004288:	605a      	str	r2, [r3, #4]
    }
  }

  /* if required, configure MSB first on communication line */
  if (HAL_IS_BIT_SET(huart->AdvancedInit.AdvFeatureInit, UART_ADVFEATURE_MSBFIRST_INIT))
 800428a:	687b      	ldr	r3, [r7, #4]
 800428c:	6a5b      	ldr	r3, [r3, #36]	; 0x24
 800428e:	2280      	movs	r2, #128	; 0x80
 8004290:	4013      	ands	r3, r2
 8004292:	d00b      	beq.n	80042ac <UART_AdvFeatureConfig+0x13c>
  {
    assert_param(IS_UART_ADVFEATURE_MSBFIRST(huart->AdvancedInit.MSBFirst));
    MODIFY_REG(huart->Instance->CR2, USART_CR2_MSBFIRST, huart->AdvancedInit.MSBFirst);
 8004294:	687b      	ldr	r3, [r7, #4]
 8004296:	681b      	ldr	r3, [r3, #0]
 8004298:	685b      	ldr	r3, [r3, #4]
 800429a:	4a0e      	ldr	r2, [pc, #56]	; (80042d4 <UART_AdvFeatureConfig+0x164>)
 800429c:	4013      	ands	r3, r2
 800429e:	0019      	movs	r1, r3
 80042a0:	687b      	ldr	r3, [r7, #4]
 80042a2:	6c9a      	ldr	r2, [r3, #72]	; 0x48
 80042a4:	687b      	ldr	r3, [r7, #4]
 80042a6:	681b      	ldr	r3, [r3, #0]
 80042a8:	430a      	orrs	r2, r1
 80042aa:	605a      	str	r2, [r3, #4]
  }
}
 80042ac:	46c0      	nop			; (mov r8, r8)
 80042ae:	46bd      	mov	sp, r7
 80042b0:	b002      	add	sp, #8
 80042b2:	bd80      	pop	{r7, pc}
 80042b4:	fffdffff 	.word	0xfffdffff
 80042b8:	fffeffff 	.word	0xfffeffff
 80042bc:	fffbffff 	.word	0xfffbffff
 80042c0:	ffff7fff 	.word	0xffff7fff
 80042c4:	ffffefff 	.word	0xffffefff
 80042c8:	ffffdfff 	.word	0xffffdfff
 80042cc:	ffefffff 	.word	0xffefffff
 80042d0:	ff9fffff 	.word	0xff9fffff
 80042d4:	fff7ffff 	.word	0xfff7ffff

080042d8 <UART_CheckIdleState>:
  * @brief Check the UART Idle State.
  * @param huart UART handle.
  * @retval HAL status
  */
HAL_StatusTypeDef UART_CheckIdleState(UART_HandleTypeDef *huart)
{
 80042d8:	b580      	push	{r7, lr}
 80042da:	b086      	sub	sp, #24
 80042dc:	af02      	add	r7, sp, #8
 80042de:	6078      	str	r0, [r7, #4]
  uint32_t tickstart;

  /* Initialize the UART ErrorCode */
  huart->ErrorCode = HAL_UART_ERROR_NONE;
 80042e0:	687b      	ldr	r3, [r7, #4]
 80042e2:	2280      	movs	r2, #128	; 0x80
 80042e4:	2100      	movs	r1, #0
 80042e6:	5099      	str	r1, [r3, r2]

  /* Init tickstart for timeout management */
  tickstart = HAL_GetTick();
 80042e8:	f7fc fd1c 	bl	8000d24 <HAL_GetTick>
 80042ec:	0003      	movs	r3, r0
 80042ee:	60fb      	str	r3, [r7, #12]

  /* Check if the Transmitter is enabled */
  if ((huart->Instance->CR1 & USART_CR1_TE) == USART_CR1_TE)
 80042f0:	687b      	ldr	r3, [r7, #4]
 80042f2:	681b      	ldr	r3, [r3, #0]
 80042f4:	681b      	ldr	r3, [r3, #0]
 80042f6:	2208      	movs	r2, #8
 80042f8:	4013      	ands	r3, r2
 80042fa:	2b08      	cmp	r3, #8
 80042fc:	d10c      	bne.n	8004318 <UART_CheckIdleState+0x40>
  {
    /* Wait until TEACK flag is set */
    if (UART_WaitOnFlagUntilTimeout(huart, USART_ISR_TEACK, RESET, tickstart, HAL_UART_TIMEOUT_VALUE) != HAL_OK)
 80042fe:	68fb      	ldr	r3, [r7, #12]
 8004300:	2280      	movs	r2, #128	; 0x80
 8004302:	0391      	lsls	r1, r2, #14
 8004304:	6878      	ldr	r0, [r7, #4]
 8004306:	4a17      	ldr	r2, [pc, #92]	; (8004364 <UART_CheckIdleState+0x8c>)
 8004308:	9200      	str	r2, [sp, #0]
 800430a:	2200      	movs	r2, #0
 800430c:	f000 f82c 	bl	8004368 <UART_WaitOnFlagUntilTimeout>
 8004310:	1e03      	subs	r3, r0, #0
 8004312:	d001      	beq.n	8004318 <UART_CheckIdleState+0x40>
    {
      /* Timeout occurred */
      return HAL_TIMEOUT;
 8004314:	2303      	movs	r3, #3
 8004316:	e021      	b.n	800435c <UART_CheckIdleState+0x84>
    }
  }

  /* Check if the Receiver is enabled */
  if ((huart->Instance->CR1 & USART_CR1_RE) == USART_CR1_RE)
 8004318:	687b      	ldr	r3, [r7, #4]
 800431a:	681b      	ldr	r3, [r3, #0]
 800431c:	681b      	ldr	r3, [r3, #0]
 800431e:	2204      	movs	r2, #4
 8004320:	4013      	ands	r3, r2
 8004322:	2b04      	cmp	r3, #4
 8004324:	d10c      	bne.n	8004340 <UART_CheckIdleState+0x68>
  {
    /* Wait until REACK flag is set */
    if (UART_WaitOnFlagUntilTimeout(huart, USART_ISR_REACK, RESET, tickstart, HAL_UART_TIMEOUT_VALUE) != HAL_OK)
 8004326:	68fb      	ldr	r3, [r7, #12]
 8004328:	2280      	movs	r2, #128	; 0x80
 800432a:	03d1      	lsls	r1, r2, #15
 800432c:	6878      	ldr	r0, [r7, #4]
 800432e:	4a0d      	ldr	r2, [pc, #52]	; (8004364 <UART_CheckIdleState+0x8c>)
 8004330:	9200      	str	r2, [sp, #0]
 8004332:	2200      	movs	r2, #0
 8004334:	f000 f818 	bl	8004368 <UART_WaitOnFlagUntilTimeout>
 8004338:	1e03      	subs	r3, r0, #0
 800433a:	d001      	beq.n	8004340 <UART_CheckIdleState+0x68>
    {
      /* Timeout occurred */
      return HAL_TIMEOUT;
 800433c:	2303      	movs	r3, #3
 800433e:	e00d      	b.n	800435c <UART_CheckIdleState+0x84>
    }
  }

  /* Initialize the UART State */
  huart->gState = HAL_UART_STATE_READY;
 8004340:	687b      	ldr	r3, [r7, #4]
 8004342:	2220      	movs	r2, #32
 8004344:	679a      	str	r2, [r3, #120]	; 0x78
  huart->RxState = HAL_UART_STATE_READY;
 8004346:	687b      	ldr	r3, [r7, #4]
 8004348:	2220      	movs	r2, #32
 800434a:	67da      	str	r2, [r3, #124]	; 0x7c
  huart->ReceptionType = HAL_UART_RECEPTION_STANDARD;
 800434c:	687b      	ldr	r3, [r7, #4]
 800434e:	2200      	movs	r2, #0
 8004350:	661a      	str	r2, [r3, #96]	; 0x60

  __HAL_UNLOCK(huart);
 8004352:	687b      	ldr	r3, [r7, #4]
 8004354:	2274      	movs	r2, #116	; 0x74
 8004356:	2100      	movs	r1, #0
 8004358:	5499      	strb	r1, [r3, r2]

  return HAL_OK;
 800435a:	2300      	movs	r3, #0
}
 800435c:	0018      	movs	r0, r3
 800435e:	46bd      	mov	sp, r7
 8004360:	b004      	add	sp, #16
 8004362:	bd80      	pop	{r7, pc}
 8004364:	01ffffff 	.word	0x01ffffff

08004368 <UART_WaitOnFlagUntilTimeout>:
  * @param Timeout   Timeout duration
  * @retval HAL status
  */
HAL_StatusTypeDef UART_WaitOnFlagUntilTimeout(UART_HandleTypeDef *huart, uint32_t Flag, FlagStatus Status,
                                              uint32_t Tickstart, uint32_t Timeout)
{
 8004368:	b580      	push	{r7, lr}
 800436a:	b094      	sub	sp, #80	; 0x50
 800436c:	af00      	add	r7, sp, #0
 800436e:	60f8      	str	r0, [r7, #12]
 8004370:	60b9      	str	r1, [r7, #8]
 8004372:	603b      	str	r3, [r7, #0]
 8004374:	1dfb      	adds	r3, r7, #7
 8004376:	701a      	strb	r2, [r3, #0]
  /* Wait until flag is set */
  while ((__HAL_UART_GET_FLAG(huart, Flag) ? SET : RESET) == Status)
 8004378:	e0a3      	b.n	80044c2 <UART_WaitOnFlagUntilTimeout+0x15a>
  {
    /* Check for the Timeout */
    if (Timeout != HAL_MAX_DELAY)
 800437a:	6dbb      	ldr	r3, [r7, #88]	; 0x58
 800437c:	3301      	adds	r3, #1
 800437e:	d100      	bne.n	8004382 <UART_WaitOnFlagUntilTimeout+0x1a>
 8004380:	e09f      	b.n	80044c2 <UART_WaitOnFlagUntilTimeout+0x15a>
    {
      if (((HAL_GetTick() - Tickstart) > Timeout) || (Timeout == 0U))
 8004382:	f7fc fccf 	bl	8000d24 <HAL_GetTick>
 8004386:	0002      	movs	r2, r0
 8004388:	683b      	ldr	r3, [r7, #0]
 800438a:	1ad3      	subs	r3, r2, r3
 800438c:	6dba      	ldr	r2, [r7, #88]	; 0x58
 800438e:	429a      	cmp	r2, r3
 8004390:	d302      	bcc.n	8004398 <UART_WaitOnFlagUntilTimeout+0x30>
 8004392:	6dbb      	ldr	r3, [r7, #88]	; 0x58
 8004394:	2b00      	cmp	r3, #0
 8004396:	d13d      	bne.n	8004414 <UART_WaitOnFlagUntilTimeout+0xac>
  __ASM volatile ("MRS %0, primask" : "=r" (result) :: "memory");
 8004398:	f3ef 8310 	mrs	r3, PRIMASK
 800439c:	62bb      	str	r3, [r7, #40]	; 0x28
  return(result);
 800439e:	6abb      	ldr	r3, [r7, #40]	; 0x28
      {
        /* Disable TXE, RXNE, PE and ERR (Frame error, noise error, overrun error)
           interrupts for the interrupt process */
        ATOMIC_CLEAR_BIT(huart->Instance->CR1, (USART_CR1_RXNEIE | USART_CR1_PEIE | USART_CR1_TXEIE));
 80043a0:	647b      	str	r3, [r7, #68]	; 0x44
 80043a2:	2301      	movs	r3, #1
 80043a4:	62fb      	str	r3, [r7, #44]	; 0x2c
  __ASM volatile ("MSR primask, %0" : : "r" (priMask) : "memory");
 80043a6:	6afb      	ldr	r3, [r7, #44]	; 0x2c
 80043a8:	f383 8810 	msr	PRIMASK, r3
}
 80043ac:	46c0      	nop			; (mov r8, r8)
 80043ae:	68fb      	ldr	r3, [r7, #12]
 80043b0:	681b      	ldr	r3, [r3, #0]
 80043b2:	681a      	ldr	r2, [r3, #0]
 80043b4:	68fb      	ldr	r3, [r7, #12]
 80043b6:	681b      	ldr	r3, [r3, #0]
 80043b8:	494c      	ldr	r1, [pc, #304]	; (80044ec <UART_WaitOnFlagUntilTimeout+0x184>)
 80043ba:	400a      	ands	r2, r1
 80043bc:	601a      	str	r2, [r3, #0]
 80043be:	6c7b      	ldr	r3, [r7, #68]	; 0x44
 80043c0:	633b      	str	r3, [r7, #48]	; 0x30
  __ASM volatile ("MSR primask, %0" : : "r" (priMask) : "memory");
 80043c2:	6b3b      	ldr	r3, [r7, #48]	; 0x30
 80043c4:	f383 8810 	msr	PRIMASK, r3
}
 80043c8:	46c0      	nop			; (mov r8, r8)
  __ASM volatile ("MRS %0, primask" : "=r" (result) :: "memory");
 80043ca:	f3ef 8310 	mrs	r3, PRIMASK
 80043ce:	637b      	str	r3, [r7, #52]	; 0x34
  return(result);
 80043d0:	6b7b      	ldr	r3, [r7, #52]	; 0x34
        ATOMIC_CLEAR_BIT(huart->Instance->CR3, USART_CR3_EIE);
 80043d2:	643b      	str	r3, [r7, #64]	; 0x40
 80043d4:	2301      	movs	r3, #1
 80043d6:	63bb      	str	r3, [r7, #56]	; 0x38
  __ASM volatile ("MSR primask, %0" : : "r" (priMask) : "memory");
 80043d8:	6bbb      	ldr	r3, [r7, #56]	; 0x38
 80043da:	f383 8810 	msr	PRIMASK, r3
}
 80043de:	46c0      	nop			; (mov r8, r8)
 80043e0:	68fb      	ldr	r3, [r7, #12]
 80043e2:	681b      	ldr	r3, [r3, #0]
 80043e4:	689a      	ldr	r2, [r3, #8]
 80043e6:	68fb      	ldr	r3, [r7, #12]
 80043e8:	681b      	ldr	r3, [r3, #0]
 80043ea:	2101      	movs	r1, #1
 80043ec:	438a      	bics	r2, r1
 80043ee:	609a      	str	r2, [r3, #8]
 80043f0:	6c3b      	ldr	r3, [r7, #64]	; 0x40
 80043f2:	63fb      	str	r3, [r7, #60]	; 0x3c
  __ASM volatile ("MSR primask, %0" : : "r" (priMask) : "memory");
 80043f4:	6bfb      	ldr	r3, [r7, #60]	; 0x3c
 80043f6:	f383 8810 	msr	PRIMASK, r3
}
 80043fa:	46c0      	nop			; (mov r8, r8)

        huart->gState = HAL_UART_STATE_READY;
 80043fc:	68fb      	ldr	r3, [r7, #12]
 80043fe:	2220      	movs	r2, #32
 8004400:	679a      	str	r2, [r3, #120]	; 0x78
        huart->RxState = HAL_UART_STATE_READY;
 8004402:	68fb      	ldr	r3, [r7, #12]
 8004404:	2220      	movs	r2, #32
 8004406:	67da      	str	r2, [r3, #124]	; 0x7c

        __HAL_UNLOCK(huart);
 8004408:	68fb      	ldr	r3, [r7, #12]
 800440a:	2274      	movs	r2, #116	; 0x74
 800440c:	2100      	movs	r1, #0
 800440e:	5499      	strb	r1, [r3, r2]

        return HAL_TIMEOUT;
 8004410:	2303      	movs	r3, #3
 8004412:	e067      	b.n	80044e4 <UART_WaitOnFlagUntilTimeout+0x17c>
      }

      if (READ_BIT(huart->Instance->CR1, USART_CR1_RE) != 0U)
 8004414:	68fb      	ldr	r3, [r7, #12]
 8004416:	681b      	ldr	r3, [r3, #0]
 8004418:	681b      	ldr	r3, [r3, #0]
 800441a:	2204      	movs	r2, #4
 800441c:	4013      	ands	r3, r2
 800441e:	d050      	beq.n	80044c2 <UART_WaitOnFlagUntilTimeout+0x15a>
      {
        if (__HAL_UART_GET_FLAG(huart, UART_FLAG_RTOF) == SET)
 8004420:	68fb      	ldr	r3, [r7, #12]
 8004422:	681b      	ldr	r3, [r3, #0]
 8004424:	69da      	ldr	r2, [r3, #28]
 8004426:	2380      	movs	r3, #128	; 0x80
 8004428:	011b      	lsls	r3, r3, #4
 800442a:	401a      	ands	r2, r3
 800442c:	2380      	movs	r3, #128	; 0x80
 800442e:	011b      	lsls	r3, r3, #4
 8004430:	429a      	cmp	r2, r3
 8004432:	d146      	bne.n	80044c2 <UART_WaitOnFlagUntilTimeout+0x15a>
        {
          /* Clear Receiver Timeout flag*/
          __HAL_UART_CLEAR_FLAG(huart, UART_CLEAR_RTOF);
 8004434:	68fb      	ldr	r3, [r7, #12]
 8004436:	681b      	ldr	r3, [r3, #0]
 8004438:	2280      	movs	r2, #128	; 0x80
 800443a:	0112      	lsls	r2, r2, #4
 800443c:	621a      	str	r2, [r3, #32]
  __ASM volatile ("MRS %0, primask" : "=r" (result) :: "memory");
 800443e:	f3ef 8310 	mrs	r3, PRIMASK
 8004442:	613b      	str	r3, [r7, #16]
  return(result);
 8004444:	693b      	ldr	r3, [r7, #16]

          /* Disable TXE, RXNE, PE and ERR (Frame error, noise error, overrun error)
             interrupts for the interrupt process */
          ATOMIC_CLEAR_BIT(huart->Instance->CR1, (USART_CR1_RXNEIE | USART_CR1_PEIE | USART_CR1_TXEIE));
 8004446:	64fb      	str	r3, [r7, #76]	; 0x4c
 8004448:	2301      	movs	r3, #1
 800444a:	617b      	str	r3, [r7, #20]
  __ASM volatile ("MSR primask, %0" : : "r" (priMask) : "memory");
 800444c:	697b      	ldr	r3, [r7, #20]
 800444e:	f383 8810 	msr	PRIMASK, r3
}
 8004452:	46c0      	nop			; (mov r8, r8)
 8004454:	68fb      	ldr	r3, [r7, #12]
 8004456:	681b      	ldr	r3, [r3, #0]
 8004458:	681a      	ldr	r2, [r3, #0]
 800445a:	68fb      	ldr	r3, [r7, #12]
 800445c:	681b      	ldr	r3, [r3, #0]
 800445e:	4923      	ldr	r1, [pc, #140]	; (80044ec <UART_WaitOnFlagUntilTimeout+0x184>)
 8004460:	400a      	ands	r2, r1
 8004462:	601a      	str	r2, [r3, #0]
 8004464:	6cfb      	ldr	r3, [r7, #76]	; 0x4c
 8004466:	61bb      	str	r3, [r7, #24]
  __ASM volatile ("MSR primask, %0" : : "r" (priMask) : "memory");
 8004468:	69bb      	ldr	r3, [r7, #24]
 800446a:	f383 8810 	msr	PRIMASK, r3
}
 800446e:	46c0      	nop			; (mov r8, r8)
  __ASM volatile ("MRS %0, primask" : "=r" (result) :: "memory");
 8004470:	f3ef 8310 	mrs	r3, PRIMASK
 8004474:	61fb      	str	r3, [r7, #28]
  return(result);
 8004476:	69fb      	ldr	r3, [r7, #28]
          ATOMIC_CLEAR_BIT(huart->Instance->CR3, USART_CR3_EIE);
 8004478:	64bb      	str	r3, [r7, #72]	; 0x48
 800447a:	2301      	movs	r3, #1
 800447c:	623b      	str	r3, [r7, #32]
  __ASM volatile ("MSR primask, %0" : : "r" (priMask) : "memory");
 800447e:	6a3b      	ldr	r3, [r7, #32]
 8004480:	f383 8810 	msr	PRIMASK, r3
}
 8004484:	46c0      	nop			; (mov r8, r8)
 8004486:	68fb      	ldr	r3, [r7, #12]
 8004488:	681b      	ldr	r3, [r3, #0]
 800448a:	689a      	ldr	r2, [r3, #8]
 800448c:	68fb      	ldr	r3, [r7, #12]
 800448e:	681b      	ldr	r3, [r3, #0]
 8004490:	2101      	movs	r1, #1
 8004492:	438a      	bics	r2, r1
 8004494:	609a      	str	r2, [r3, #8]
 8004496:	6cbb      	ldr	r3, [r7, #72]	; 0x48
 8004498:	627b      	str	r3, [r7, #36]	; 0x24
  __ASM volatile ("MSR primask, %0" : : "r" (priMask) : "memory");
 800449a:	6a7b      	ldr	r3, [r7, #36]	; 0x24
 800449c:	f383 8810 	msr	PRIMASK, r3
}
 80044a0:	46c0      	nop			; (mov r8, r8)

          huart->gState = HAL_UART_STATE_READY;
 80044a2:	68fb      	ldr	r3, [r7, #12]
 80044a4:	2220      	movs	r2, #32
 80044a6:	679a      	str	r2, [r3, #120]	; 0x78
          huart->RxState = HAL_UART_STATE_READY;
 80044a8:	68fb      	ldr	r3, [r7, #12]
 80044aa:	2220      	movs	r2, #32
 80044ac:	67da      	str	r2, [r3, #124]	; 0x7c
          huart->ErrorCode = HAL_UART_ERROR_RTO;
 80044ae:	68fb      	ldr	r3, [r7, #12]
 80044b0:	2280      	movs	r2, #128	; 0x80
 80044b2:	2120      	movs	r1, #32
 80044b4:	5099      	str	r1, [r3, r2]

          /* Process Unlocked */
          __HAL_UNLOCK(huart);
 80044b6:	68fb      	ldr	r3, [r7, #12]
 80044b8:	2274      	movs	r2, #116	; 0x74
 80044ba:	2100      	movs	r1, #0
 80044bc:	5499      	strb	r1, [r3, r2]

          return HAL_TIMEOUT;
 80044be:	2303      	movs	r3, #3
 80044c0:	e010      	b.n	80044e4 <UART_WaitOnFlagUntilTimeout+0x17c>
  while ((__HAL_UART_GET_FLAG(huart, Flag) ? SET : RESET) == Status)
 80044c2:	68fb      	ldr	r3, [r7, #12]
 80044c4:	681b      	ldr	r3, [r3, #0]
 80044c6:	69db      	ldr	r3, [r3, #28]
 80044c8:	68ba      	ldr	r2, [r7, #8]
 80044ca:	4013      	ands	r3, r2
 80044cc:	68ba      	ldr	r2, [r7, #8]
 80044ce:	1ad3      	subs	r3, r2, r3
 80044d0:	425a      	negs	r2, r3
 80044d2:	4153      	adcs	r3, r2
 80044d4:	b2db      	uxtb	r3, r3
 80044d6:	001a      	movs	r2, r3
 80044d8:	1dfb      	adds	r3, r7, #7
 80044da:	781b      	ldrb	r3, [r3, #0]
 80044dc:	429a      	cmp	r2, r3
 80044de:	d100      	bne.n	80044e2 <UART_WaitOnFlagUntilTimeout+0x17a>
 80044e0:	e74b      	b.n	800437a <UART_WaitOnFlagUntilTimeout+0x12>
        }
      }
    }
  }
  return HAL_OK;
 80044e2:	2300      	movs	r3, #0
}
 80044e4:	0018      	movs	r0, r3
 80044e6:	46bd      	mov	sp, r7
 80044e8:	b014      	add	sp, #80	; 0x50
 80044ea:	bd80      	pop	{r7, pc}
 80044ec:	fffffe5f 	.word	0xfffffe5f

080044f0 <UART_EndRxTransfer>:
  * @brief  End ongoing Rx transfer on UART peripheral (following error detection or Reception completion).
  * @param  huart UART handle.
  * @retval None
  */
static void UART_EndRxTransfer(UART_HandleTypeDef *huart)
{
 80044f0:	b580      	push	{r7, lr}
 80044f2:	b08e      	sub	sp, #56	; 0x38
 80044f4:	af00      	add	r7, sp, #0
 80044f6:	6078      	str	r0, [r7, #4]
  __ASM volatile ("MRS %0, primask" : "=r" (result) :: "memory");
 80044f8:	f3ef 8310 	mrs	r3, PRIMASK
 80044fc:	617b      	str	r3, [r7, #20]
  return(result);
 80044fe:	697b      	ldr	r3, [r7, #20]
  /* Disable RXNE, PE and ERR (Frame error, noise error, overrun error) interrupts */
  ATOMIC_CLEAR_BIT(huart->Instance->CR1, (USART_CR1_RXNEIE | USART_CR1_PEIE));
 8004500:	637b      	str	r3, [r7, #52]	; 0x34
 8004502:	2301      	movs	r3, #1
 8004504:	61bb      	str	r3, [r7, #24]
  __ASM volatile ("MSR primask, %0" : : "r" (priMask) : "memory");
 8004506:	69bb      	ldr	r3, [r7, #24]
 8004508:	f383 8810 	msr	PRIMASK, r3
}
 800450c:	46c0      	nop			; (mov r8, r8)
 800450e:	687b      	ldr	r3, [r7, #4]
 8004510:	681b      	ldr	r3, [r3, #0]
 8004512:	681a      	ldr	r2, [r3, #0]
 8004514:	687b      	ldr	r3, [r7, #4]
 8004516:	681b      	ldr	r3, [r3, #0]
 8004518:	4925      	ldr	r1, [pc, #148]	; (80045b0 <UART_EndRxTransfer+0xc0>)
 800451a:	400a      	ands	r2, r1
 800451c:	601a      	str	r2, [r3, #0]
 800451e:	6b7b      	ldr	r3, [r7, #52]	; 0x34
 8004520:	61fb      	str	r3, [r7, #28]
  __ASM volatile ("MSR primask, %0" : : "r" (priMask) : "memory");
 8004522:	69fb      	ldr	r3, [r7, #28]
 8004524:	f383 8810 	msr	PRIMASK, r3
}
 8004528:	46c0      	nop			; (mov r8, r8)
  __ASM volatile ("MRS %0, primask" : "=r" (result) :: "memory");
 800452a:	f3ef 8310 	mrs	r3, PRIMASK
 800452e:	623b      	str	r3, [r7, #32]
  return(result);
 8004530:	6a3b      	ldr	r3, [r7, #32]
  ATOMIC_CLEAR_BIT(huart->Instance->CR3, USART_CR3_EIE);
 8004532:	633b      	str	r3, [r7, #48]	; 0x30
 8004534:	2301      	movs	r3, #1
 8004536:	627b      	str	r3, [r7, #36]	; 0x24
  __ASM volatile ("MSR primask, %0" : : "r" (priMask) : "memory");
 8004538:	6a7b      	ldr	r3, [r7, #36]	; 0x24
 800453a:	f383 8810 	msr	PRIMASK, r3
}
 800453e:	46c0      	nop			; (mov r8, r8)
 8004540:	687b      	ldr	r3, [r7, #4]
 8004542:	681b      	ldr	r3, [r3, #0]
 8004544:	689a      	ldr	r2, [r3, #8]
 8004546:	687b      	ldr	r3, [r7, #4]
 8004548:	681b      	ldr	r3, [r3, #0]
 800454a:	2101      	movs	r1, #1
 800454c:	438a      	bics	r2, r1
 800454e:	609a      	str	r2, [r3, #8]
 8004550:	6b3b      	ldr	r3, [r7, #48]	; 0x30
 8004552:	62bb      	str	r3, [r7, #40]	; 0x28
  __ASM volatile ("MSR primask, %0" : : "r" (priMask) : "memory");
 8004554:	6abb      	ldr	r3, [r7, #40]	; 0x28
 8004556:	f383 8810 	msr	PRIMASK, r3
}
 800455a:	46c0      	nop			; (mov r8, r8)

  /* In case of reception waiting for IDLE event, disable also the IDLE IE interrupt source */
  if (huart->ReceptionType == HAL_UART_RECEPTION_TOIDLE)
 800455c:	687b      	ldr	r3, [r7, #4]
 800455e:	6e1b      	ldr	r3, [r3, #96]	; 0x60
 8004560:	2b01      	cmp	r3, #1
 8004562:	d118      	bne.n	8004596 <UART_EndRxTransfer+0xa6>
  __ASM volatile ("MRS %0, primask" : "=r" (result) :: "memory");
 8004564:	f3ef 8310 	mrs	r3, PRIMASK
 8004568:	60bb      	str	r3, [r7, #8]
  return(result);
 800456a:	68bb      	ldr	r3, [r7, #8]
  {
    ATOMIC_CLEAR_BIT(huart->Instance->CR1, USART_CR1_IDLEIE);
 800456c:	62fb      	str	r3, [r7, #44]	; 0x2c
 800456e:	2301      	movs	r3, #1
 8004570:	60fb      	str	r3, [r7, #12]
  __ASM volatile ("MSR primask, %0" : : "r" (priMask) : "memory");
 8004572:	68fb      	ldr	r3, [r7, #12]
 8004574:	f383 8810 	msr	PRIMASK, r3
}
 8004578:	46c0      	nop			; (mov r8, r8)
 800457a:	687b      	ldr	r3, [r7, #4]
 800457c:	681b      	ldr	r3, [r3, #0]
 800457e:	681a      	ldr	r2, [r3, #0]
 8004580:	687b      	ldr	r3, [r7, #4]
 8004582:	681b      	ldr	r3, [r3, #0]
 8004584:	2110      	movs	r1, #16
 8004586:	438a      	bics	r2, r1
 8004588:	601a      	str	r2, [r3, #0]
 800458a:	6afb      	ldr	r3, [r7, #44]	; 0x2c
 800458c:	613b      	str	r3, [r7, #16]
  __ASM volatile ("MSR primask, %0" : : "r" (priMask) : "memory");
 800458e:	693b      	ldr	r3, [r7, #16]
 8004590:	f383 8810 	msr	PRIMASK, r3
}
 8004594:	46c0      	nop			; (mov r8, r8)
  }

  /* At end of Rx process, restore huart->RxState to Ready */
  huart->RxState = HAL_UART_STATE_READY;
 8004596:	687b      	ldr	r3, [r7, #4]
 8004598:	2220      	movs	r2, #32
 800459a:	67da      	str	r2, [r3, #124]	; 0x7c
  huart->ReceptionType = HAL_UART_RECEPTION_STANDARD;
 800459c:	687b      	ldr	r3, [r7, #4]
 800459e:	2200      	movs	r2, #0
 80045a0:	661a      	str	r2, [r3, #96]	; 0x60

  /* Reset RxIsr function pointer */
  huart->RxISR = NULL;
 80045a2:	687b      	ldr	r3, [r7, #4]
 80045a4:	2200      	movs	r2, #0
 80045a6:	665a      	str	r2, [r3, #100]	; 0x64
}
 80045a8:	46c0      	nop			; (mov r8, r8)
 80045aa:	46bd      	mov	sp, r7
 80045ac:	b00e      	add	sp, #56	; 0x38
 80045ae:	bd80      	pop	{r7, pc}
 80045b0:	fffffedf 	.word	0xfffffedf

080045b4 <UART_DMAAbortOnError>:
  *         (To be called at end of DMA Abort procedure following error occurrence).
  * @param  hdma DMA handle.
  * @retval None
  */
static void UART_DMAAbortOnError(DMA_HandleTypeDef *hdma)
{
 80045b4:	b580      	push	{r7, lr}
 80045b6:	b084      	sub	sp, #16
 80045b8:	af00      	add	r7, sp, #0
 80045ba:	6078      	str	r0, [r7, #4]
  UART_HandleTypeDef *huart = (UART_HandleTypeDef *)(hdma->Parent);
 80045bc:	687b      	ldr	r3, [r7, #4]
 80045be:	6a5b      	ldr	r3, [r3, #36]	; 0x24
 80045c0:	60fb      	str	r3, [r7, #12]
  huart->RxXferCount = 0U;
 80045c2:	68fb      	ldr	r3, [r7, #12]
 80045c4:	225a      	movs	r2, #90	; 0x5a
 80045c6:	2100      	movs	r1, #0
 80045c8:	5299      	strh	r1, [r3, r2]
  huart->TxXferCount = 0U;
 80045ca:	68fb      	ldr	r3, [r7, #12]
 80045cc:	2252      	movs	r2, #82	; 0x52
 80045ce:	2100      	movs	r1, #0
 80045d0:	5299      	strh	r1, [r3, r2]
#if (USE_HAL_UART_REGISTER_CALLBACKS == 1)
  /*Call registered error callback*/
  huart->ErrorCallback(huart);
#else
  /*Call legacy weak error callback*/
  HAL_UART_ErrorCallback(huart);
 80045d2:	68fb      	ldr	r3, [r7, #12]
 80045d4:	0018      	movs	r0, r3
 80045d6:	f7ff fc77 	bl	8003ec8 <HAL_UART_ErrorCallback>
#endif /* USE_HAL_UART_REGISTER_CALLBACKS */
}
 80045da:	46c0      	nop			; (mov r8, r8)
 80045dc:	46bd      	mov	sp, r7
 80045de:	b004      	add	sp, #16
 80045e0:	bd80      	pop	{r7, pc}

080045e2 <UART_EndTransmit_IT>:
  * @param  huart pointer to a UART_HandleTypeDef structure that contains
  *                the configuration information for the specified UART module.
  * @retval None
  */
static void UART_EndTransmit_IT(UART_HandleTypeDef *huart)
{
 80045e2:	b580      	push	{r7, lr}
 80045e4:	b086      	sub	sp, #24
 80045e6:	af00      	add	r7, sp, #0
 80045e8:	6078      	str	r0, [r7, #4]
  __ASM volatile ("MRS %0, primask" : "=r" (result) :: "memory");
 80045ea:	f3ef 8310 	mrs	r3, PRIMASK
 80045ee:	60bb      	str	r3, [r7, #8]
  return(result);
 80045f0:	68bb      	ldr	r3, [r7, #8]
  /* Disable the UART Transmit Complete Interrupt */
  ATOMIC_CLEAR_BIT(huart->Instance->CR1, USART_CR1_TCIE);
 80045f2:	617b      	str	r3, [r7, #20]
 80045f4:	2301      	movs	r3, #1
 80045f6:	60fb      	str	r3, [r7, #12]
  __ASM volatile ("MSR primask, %0" : : "r" (priMask) : "memory");
 80045f8:	68fb      	ldr	r3, [r7, #12]
 80045fa:	f383 8810 	msr	PRIMASK, r3
}
 80045fe:	46c0      	nop			; (mov r8, r8)
 8004600:	687b      	ldr	r3, [r7, #4]
 8004602:	681b      	ldr	r3, [r3, #0]
 8004604:	681a      	ldr	r2, [r3, #0]
 8004606:	687b      	ldr	r3, [r7, #4]
 8004608:	681b      	ldr	r3, [r3, #0]
 800460a:	2140      	movs	r1, #64	; 0x40
 800460c:	438a      	bics	r2, r1
 800460e:	601a      	str	r2, [r3, #0]
 8004610:	697b      	ldr	r3, [r7, #20]
 8004612:	613b      	str	r3, [r7, #16]
  __ASM volatile ("MSR primask, %0" : : "r" (priMask) : "memory");
 8004614:	693b      	ldr	r3, [r7, #16]
 8004616:	f383 8810 	msr	PRIMASK, r3
}
 800461a:	46c0      	nop			; (mov r8, r8)

  /* Tx process is ended, restore huart->gState to Ready */
  huart->gState = HAL_UART_STATE_READY;
 800461c:	687b      	ldr	r3, [r7, #4]
 800461e:	2220      	movs	r2, #32
 8004620:	679a      	str	r2, [r3, #120]	; 0x78

  /* Cleat TxISR function pointer */
  huart->TxISR = NULL;
 8004622:	687b      	ldr	r3, [r7, #4]
 8004624:	2200      	movs	r2, #0
 8004626:	669a      	str	r2, [r3, #104]	; 0x68
#if (USE_HAL_UART_REGISTER_CALLBACKS == 1)
  /*Call registered Tx complete callback*/
  huart->TxCpltCallback(huart);
#else
  /*Call legacy weak Tx complete callback*/
  HAL_UART_TxCpltCallback(huart);
 8004628:	687b      	ldr	r3, [r7, #4]
 800462a:	0018      	movs	r0, r3
 800462c:	f7ff fc44 	bl	8003eb8 <HAL_UART_TxCpltCallback>
#endif /* USE_HAL_UART_REGISTER_CALLBACKS */
}
 8004630:	46c0      	nop			; (mov r8, r8)
 8004632:	46bd      	mov	sp, r7
 8004634:	b006      	add	sp, #24
 8004636:	bd80      	pop	{r7, pc}

08004638 <HAL_UARTEx_WakeupCallback>:
  * @brief UART wakeup from Stop mode callback.
  * @param huart UART handle.
  * @retval None
  */
__weak void HAL_UARTEx_WakeupCallback(UART_HandleTypeDef *huart)
{
 8004638:	b580      	push	{r7, lr}
 800463a:	b082      	sub	sp, #8
 800463c:	af00      	add	r7, sp, #0
 800463e:	6078      	str	r0, [r7, #4]
  UNUSED(huart);

  /* NOTE : This function should not be modified, when the callback is needed,
            the HAL_UARTEx_WakeupCallback can be implemented in the user file.
   */
}
 8004640:	46c0      	nop			; (mov r8, r8)
 8004642:	46bd      	mov	sp, r7
 8004644:	b002      	add	sp, #8
 8004646:	bd80      	pop	{r7, pc}

08004648 <__errno>:
 8004648:	4b01      	ldr	r3, [pc, #4]	; (8004650 <__errno+0x8>)
 800464a:	6818      	ldr	r0, [r3, #0]
 800464c:	4770      	bx	lr
 800464e:	46c0      	nop			; (mov r8, r8)
 8004650:	20000010 	.word	0x20000010

08004654 <__libc_init_array>:
 8004654:	b570      	push	{r4, r5, r6, lr}
 8004656:	2600      	movs	r6, #0
 8004658:	4d0c      	ldr	r5, [pc, #48]	; (800468c <__libc_init_array+0x38>)
 800465a:	4c0d      	ldr	r4, [pc, #52]	; (8004690 <__libc_init_array+0x3c>)
 800465c:	1b64      	subs	r4, r4, r5
 800465e:	10a4      	asrs	r4, r4, #2
 8004660:	42a6      	cmp	r6, r4
 8004662:	d109      	bne.n	8004678 <__libc_init_array+0x24>
 8004664:	2600      	movs	r6, #0
 8004666:	f000 fc8b 	bl	8004f80 <_init>
 800466a:	4d0a      	ldr	r5, [pc, #40]	; (8004694 <__libc_init_array+0x40>)
 800466c:	4c0a      	ldr	r4, [pc, #40]	; (8004698 <__libc_init_array+0x44>)
 800466e:	1b64      	subs	r4, r4, r5
 8004670:	10a4      	asrs	r4, r4, #2
 8004672:	42a6      	cmp	r6, r4
 8004674:	d105      	bne.n	8004682 <__libc_init_array+0x2e>
 8004676:	bd70      	pop	{r4, r5, r6, pc}
 8004678:	00b3      	lsls	r3, r6, #2
 800467a:	58eb      	ldr	r3, [r5, r3]
 800467c:	4798      	blx	r3
 800467e:	3601      	adds	r6, #1
 8004680:	e7ee      	b.n	8004660 <__libc_init_array+0xc>
 8004682:	00b3      	lsls	r3, r6, #2
 8004684:	58eb      	ldr	r3, [r5, r3]
 8004686:	4798      	blx	r3
 8004688:	3601      	adds	r6, #1
 800468a:	e7f2      	b.n	8004672 <__libc_init_array+0x1e>
 800468c:	0800502c 	.word	0x0800502c
 8004690:	0800502c 	.word	0x0800502c
 8004694:	0800502c 	.word	0x0800502c
 8004698:	08005030 	.word	0x08005030

0800469c <memset>:
 800469c:	0003      	movs	r3, r0
 800469e:	1882      	adds	r2, r0, r2
 80046a0:	4293      	cmp	r3, r2
 80046a2:	d100      	bne.n	80046a6 <memset+0xa>
 80046a4:	4770      	bx	lr
 80046a6:	7019      	strb	r1, [r3, #0]
 80046a8:	3301      	adds	r3, #1
 80046aa:	e7f9      	b.n	80046a0 <memset+0x4>

080046ac <siprintf>:
 80046ac:	b40e      	push	{r1, r2, r3}
 80046ae:	b500      	push	{lr}
 80046b0:	490b      	ldr	r1, [pc, #44]	; (80046e0 <siprintf+0x34>)
 80046b2:	b09c      	sub	sp, #112	; 0x70
 80046b4:	ab1d      	add	r3, sp, #116	; 0x74
 80046b6:	9002      	str	r0, [sp, #8]
 80046b8:	9006      	str	r0, [sp, #24]
 80046ba:	9107      	str	r1, [sp, #28]
 80046bc:	9104      	str	r1, [sp, #16]
 80046be:	4809      	ldr	r0, [pc, #36]	; (80046e4 <siprintf+0x38>)
 80046c0:	4909      	ldr	r1, [pc, #36]	; (80046e8 <siprintf+0x3c>)
 80046c2:	cb04      	ldmia	r3!, {r2}
 80046c4:	9105      	str	r1, [sp, #20]
 80046c6:	6800      	ldr	r0, [r0, #0]
 80046c8:	a902      	add	r1, sp, #8
 80046ca:	9301      	str	r3, [sp, #4]
 80046cc:	f000 f870 	bl	80047b0 <_svfiprintf_r>
 80046d0:	2300      	movs	r3, #0
 80046d2:	9a02      	ldr	r2, [sp, #8]
 80046d4:	7013      	strb	r3, [r2, #0]
 80046d6:	b01c      	add	sp, #112	; 0x70
 80046d8:	bc08      	pop	{r3}
 80046da:	b003      	add	sp, #12
 80046dc:	4718      	bx	r3
 80046de:	46c0      	nop			; (mov r8, r8)
 80046e0:	7fffffff 	.word	0x7fffffff
 80046e4:	20000010 	.word	0x20000010
 80046e8:	ffff0208 	.word	0xffff0208

080046ec <__ssputs_r>:
 80046ec:	b5f0      	push	{r4, r5, r6, r7, lr}
 80046ee:	688e      	ldr	r6, [r1, #8]
 80046f0:	b085      	sub	sp, #20
 80046f2:	0007      	movs	r7, r0
 80046f4:	000c      	movs	r4, r1
 80046f6:	9203      	str	r2, [sp, #12]
 80046f8:	9301      	str	r3, [sp, #4]
 80046fa:	429e      	cmp	r6, r3
 80046fc:	d83c      	bhi.n	8004778 <__ssputs_r+0x8c>
 80046fe:	2390      	movs	r3, #144	; 0x90
 8004700:	898a      	ldrh	r2, [r1, #12]
 8004702:	00db      	lsls	r3, r3, #3
 8004704:	421a      	tst	r2, r3
 8004706:	d034      	beq.n	8004772 <__ssputs_r+0x86>
 8004708:	6909      	ldr	r1, [r1, #16]
 800470a:	6823      	ldr	r3, [r4, #0]
 800470c:	6960      	ldr	r0, [r4, #20]
 800470e:	1a5b      	subs	r3, r3, r1
 8004710:	9302      	str	r3, [sp, #8]
 8004712:	2303      	movs	r3, #3
 8004714:	4343      	muls	r3, r0
 8004716:	0fdd      	lsrs	r5, r3, #31
 8004718:	18ed      	adds	r5, r5, r3
 800471a:	9b01      	ldr	r3, [sp, #4]
 800471c:	9802      	ldr	r0, [sp, #8]
 800471e:	3301      	adds	r3, #1
 8004720:	181b      	adds	r3, r3, r0
 8004722:	106d      	asrs	r5, r5, #1
 8004724:	42ab      	cmp	r3, r5
 8004726:	d900      	bls.n	800472a <__ssputs_r+0x3e>
 8004728:	001d      	movs	r5, r3
 800472a:	0553      	lsls	r3, r2, #21
 800472c:	d532      	bpl.n	8004794 <__ssputs_r+0xa8>
 800472e:	0029      	movs	r1, r5
 8004730:	0038      	movs	r0, r7
 8004732:	f000 fb53 	bl	8004ddc <_malloc_r>
 8004736:	1e06      	subs	r6, r0, #0
 8004738:	d109      	bne.n	800474e <__ssputs_r+0x62>
 800473a:	230c      	movs	r3, #12
 800473c:	603b      	str	r3, [r7, #0]
 800473e:	2340      	movs	r3, #64	; 0x40
 8004740:	2001      	movs	r0, #1
 8004742:	89a2      	ldrh	r2, [r4, #12]
 8004744:	4240      	negs	r0, r0
 8004746:	4313      	orrs	r3, r2
 8004748:	81a3      	strh	r3, [r4, #12]
 800474a:	b005      	add	sp, #20
 800474c:	bdf0      	pop	{r4, r5, r6, r7, pc}
 800474e:	9a02      	ldr	r2, [sp, #8]
 8004750:	6921      	ldr	r1, [r4, #16]
 8004752:	f000 faba 	bl	8004cca <memcpy>
 8004756:	89a3      	ldrh	r3, [r4, #12]
 8004758:	4a14      	ldr	r2, [pc, #80]	; (80047ac <__ssputs_r+0xc0>)
 800475a:	401a      	ands	r2, r3
 800475c:	2380      	movs	r3, #128	; 0x80
 800475e:	4313      	orrs	r3, r2
 8004760:	81a3      	strh	r3, [r4, #12]
 8004762:	9b02      	ldr	r3, [sp, #8]
 8004764:	6126      	str	r6, [r4, #16]
 8004766:	18f6      	adds	r6, r6, r3
 8004768:	6026      	str	r6, [r4, #0]
 800476a:	6165      	str	r5, [r4, #20]
 800476c:	9e01      	ldr	r6, [sp, #4]
 800476e:	1aed      	subs	r5, r5, r3
 8004770:	60a5      	str	r5, [r4, #8]
 8004772:	9b01      	ldr	r3, [sp, #4]
 8004774:	429e      	cmp	r6, r3
 8004776:	d900      	bls.n	800477a <__ssputs_r+0x8e>
 8004778:	9e01      	ldr	r6, [sp, #4]
 800477a:	0032      	movs	r2, r6
 800477c:	9903      	ldr	r1, [sp, #12]
 800477e:	6820      	ldr	r0, [r4, #0]
 8004780:	f000 faac 	bl	8004cdc <memmove>
 8004784:	68a3      	ldr	r3, [r4, #8]
 8004786:	2000      	movs	r0, #0
 8004788:	1b9b      	subs	r3, r3, r6
 800478a:	60a3      	str	r3, [r4, #8]
 800478c:	6823      	ldr	r3, [r4, #0]
 800478e:	199e      	adds	r6, r3, r6
 8004790:	6026      	str	r6, [r4, #0]
 8004792:	e7da      	b.n	800474a <__ssputs_r+0x5e>
 8004794:	002a      	movs	r2, r5
 8004796:	0038      	movs	r0, r7
 8004798:	f000 fb96 	bl	8004ec8 <_realloc_r>
 800479c:	1e06      	subs	r6, r0, #0
 800479e:	d1e0      	bne.n	8004762 <__ssputs_r+0x76>
 80047a0:	0038      	movs	r0, r7
 80047a2:	6921      	ldr	r1, [r4, #16]
 80047a4:	f000 faae 	bl	8004d04 <_free_r>
 80047a8:	e7c7      	b.n	800473a <__ssputs_r+0x4e>
 80047aa:	46c0      	nop			; (mov r8, r8)
 80047ac:	fffffb7f 	.word	0xfffffb7f

080047b0 <_svfiprintf_r>:
 80047b0:	b5f0      	push	{r4, r5, r6, r7, lr}
 80047b2:	b0a1      	sub	sp, #132	; 0x84
 80047b4:	9003      	str	r0, [sp, #12]
 80047b6:	001d      	movs	r5, r3
 80047b8:	898b      	ldrh	r3, [r1, #12]
 80047ba:	000f      	movs	r7, r1
 80047bc:	0016      	movs	r6, r2
 80047be:	061b      	lsls	r3, r3, #24
 80047c0:	d511      	bpl.n	80047e6 <_svfiprintf_r+0x36>
 80047c2:	690b      	ldr	r3, [r1, #16]
 80047c4:	2b00      	cmp	r3, #0
 80047c6:	d10e      	bne.n	80047e6 <_svfiprintf_r+0x36>
 80047c8:	2140      	movs	r1, #64	; 0x40
 80047ca:	f000 fb07 	bl	8004ddc <_malloc_r>
 80047ce:	6038      	str	r0, [r7, #0]
 80047d0:	6138      	str	r0, [r7, #16]
 80047d2:	2800      	cmp	r0, #0
 80047d4:	d105      	bne.n	80047e2 <_svfiprintf_r+0x32>
 80047d6:	230c      	movs	r3, #12
 80047d8:	9a03      	ldr	r2, [sp, #12]
 80047da:	3801      	subs	r0, #1
 80047dc:	6013      	str	r3, [r2, #0]
 80047de:	b021      	add	sp, #132	; 0x84
 80047e0:	bdf0      	pop	{r4, r5, r6, r7, pc}
 80047e2:	2340      	movs	r3, #64	; 0x40
 80047e4:	617b      	str	r3, [r7, #20]
 80047e6:	2300      	movs	r3, #0
 80047e8:	ac08      	add	r4, sp, #32
 80047ea:	6163      	str	r3, [r4, #20]
 80047ec:	3320      	adds	r3, #32
 80047ee:	7663      	strb	r3, [r4, #25]
 80047f0:	3310      	adds	r3, #16
 80047f2:	76a3      	strb	r3, [r4, #26]
 80047f4:	9507      	str	r5, [sp, #28]
 80047f6:	0035      	movs	r5, r6
 80047f8:	782b      	ldrb	r3, [r5, #0]
 80047fa:	2b00      	cmp	r3, #0
 80047fc:	d001      	beq.n	8004802 <_svfiprintf_r+0x52>
 80047fe:	2b25      	cmp	r3, #37	; 0x25
 8004800:	d147      	bne.n	8004892 <_svfiprintf_r+0xe2>
 8004802:	1bab      	subs	r3, r5, r6
 8004804:	9305      	str	r3, [sp, #20]
 8004806:	42b5      	cmp	r5, r6
 8004808:	d00c      	beq.n	8004824 <_svfiprintf_r+0x74>
 800480a:	0032      	movs	r2, r6
 800480c:	0039      	movs	r1, r7
 800480e:	9803      	ldr	r0, [sp, #12]
 8004810:	f7ff ff6c 	bl	80046ec <__ssputs_r>
 8004814:	1c43      	adds	r3, r0, #1
 8004816:	d100      	bne.n	800481a <_svfiprintf_r+0x6a>
 8004818:	e0ae      	b.n	8004978 <_svfiprintf_r+0x1c8>
 800481a:	6962      	ldr	r2, [r4, #20]
 800481c:	9b05      	ldr	r3, [sp, #20]
 800481e:	4694      	mov	ip, r2
 8004820:	4463      	add	r3, ip
 8004822:	6163      	str	r3, [r4, #20]
 8004824:	782b      	ldrb	r3, [r5, #0]
 8004826:	2b00      	cmp	r3, #0
 8004828:	d100      	bne.n	800482c <_svfiprintf_r+0x7c>
 800482a:	e0a5      	b.n	8004978 <_svfiprintf_r+0x1c8>
 800482c:	2201      	movs	r2, #1
 800482e:	2300      	movs	r3, #0
 8004830:	4252      	negs	r2, r2
 8004832:	6062      	str	r2, [r4, #4]
 8004834:	a904      	add	r1, sp, #16
 8004836:	3254      	adds	r2, #84	; 0x54
 8004838:	1852      	adds	r2, r2, r1
 800483a:	1c6e      	adds	r6, r5, #1
 800483c:	6023      	str	r3, [r4, #0]
 800483e:	60e3      	str	r3, [r4, #12]
 8004840:	60a3      	str	r3, [r4, #8]
 8004842:	7013      	strb	r3, [r2, #0]
 8004844:	65a3      	str	r3, [r4, #88]	; 0x58
 8004846:	2205      	movs	r2, #5
 8004848:	7831      	ldrb	r1, [r6, #0]
 800484a:	4854      	ldr	r0, [pc, #336]	; (800499c <_svfiprintf_r+0x1ec>)
 800484c:	f000 fa32 	bl	8004cb4 <memchr>
 8004850:	1c75      	adds	r5, r6, #1
 8004852:	2800      	cmp	r0, #0
 8004854:	d11f      	bne.n	8004896 <_svfiprintf_r+0xe6>
 8004856:	6822      	ldr	r2, [r4, #0]
 8004858:	06d3      	lsls	r3, r2, #27
 800485a:	d504      	bpl.n	8004866 <_svfiprintf_r+0xb6>
 800485c:	2353      	movs	r3, #83	; 0x53
 800485e:	a904      	add	r1, sp, #16
 8004860:	185b      	adds	r3, r3, r1
 8004862:	2120      	movs	r1, #32
 8004864:	7019      	strb	r1, [r3, #0]
 8004866:	0713      	lsls	r3, r2, #28
 8004868:	d504      	bpl.n	8004874 <_svfiprintf_r+0xc4>
 800486a:	2353      	movs	r3, #83	; 0x53
 800486c:	a904      	add	r1, sp, #16
 800486e:	185b      	adds	r3, r3, r1
 8004870:	212b      	movs	r1, #43	; 0x2b
 8004872:	7019      	strb	r1, [r3, #0]
 8004874:	7833      	ldrb	r3, [r6, #0]
 8004876:	2b2a      	cmp	r3, #42	; 0x2a
 8004878:	d016      	beq.n	80048a8 <_svfiprintf_r+0xf8>
 800487a:	0035      	movs	r5, r6
 800487c:	2100      	movs	r1, #0
 800487e:	200a      	movs	r0, #10
 8004880:	68e3      	ldr	r3, [r4, #12]
 8004882:	782a      	ldrb	r2, [r5, #0]
 8004884:	1c6e      	adds	r6, r5, #1
 8004886:	3a30      	subs	r2, #48	; 0x30
 8004888:	2a09      	cmp	r2, #9
 800488a:	d94e      	bls.n	800492a <_svfiprintf_r+0x17a>
 800488c:	2900      	cmp	r1, #0
 800488e:	d111      	bne.n	80048b4 <_svfiprintf_r+0x104>
 8004890:	e017      	b.n	80048c2 <_svfiprintf_r+0x112>
 8004892:	3501      	adds	r5, #1
 8004894:	e7b0      	b.n	80047f8 <_svfiprintf_r+0x48>
 8004896:	4b41      	ldr	r3, [pc, #260]	; (800499c <_svfiprintf_r+0x1ec>)
 8004898:	6822      	ldr	r2, [r4, #0]
 800489a:	1ac0      	subs	r0, r0, r3
 800489c:	2301      	movs	r3, #1
 800489e:	4083      	lsls	r3, r0
 80048a0:	4313      	orrs	r3, r2
 80048a2:	002e      	movs	r6, r5
 80048a4:	6023      	str	r3, [r4, #0]
 80048a6:	e7ce      	b.n	8004846 <_svfiprintf_r+0x96>
 80048a8:	9b07      	ldr	r3, [sp, #28]
 80048aa:	1d19      	adds	r1, r3, #4
 80048ac:	681b      	ldr	r3, [r3, #0]
 80048ae:	9107      	str	r1, [sp, #28]
 80048b0:	2b00      	cmp	r3, #0
 80048b2:	db01      	blt.n	80048b8 <_svfiprintf_r+0x108>
 80048b4:	930b      	str	r3, [sp, #44]	; 0x2c
 80048b6:	e004      	b.n	80048c2 <_svfiprintf_r+0x112>
 80048b8:	425b      	negs	r3, r3
 80048ba:	60e3      	str	r3, [r4, #12]
 80048bc:	2302      	movs	r3, #2
 80048be:	4313      	orrs	r3, r2
 80048c0:	6023      	str	r3, [r4, #0]
 80048c2:	782b      	ldrb	r3, [r5, #0]
 80048c4:	2b2e      	cmp	r3, #46	; 0x2e
 80048c6:	d10a      	bne.n	80048de <_svfiprintf_r+0x12e>
 80048c8:	786b      	ldrb	r3, [r5, #1]
 80048ca:	2b2a      	cmp	r3, #42	; 0x2a
 80048cc:	d135      	bne.n	800493a <_svfiprintf_r+0x18a>
 80048ce:	9b07      	ldr	r3, [sp, #28]
 80048d0:	3502      	adds	r5, #2
 80048d2:	1d1a      	adds	r2, r3, #4
 80048d4:	681b      	ldr	r3, [r3, #0]
 80048d6:	9207      	str	r2, [sp, #28]
 80048d8:	2b00      	cmp	r3, #0
 80048da:	db2b      	blt.n	8004934 <_svfiprintf_r+0x184>
 80048dc:	9309      	str	r3, [sp, #36]	; 0x24
 80048de:	4e30      	ldr	r6, [pc, #192]	; (80049a0 <_svfiprintf_r+0x1f0>)
 80048e0:	2203      	movs	r2, #3
 80048e2:	0030      	movs	r0, r6
 80048e4:	7829      	ldrb	r1, [r5, #0]
 80048e6:	f000 f9e5 	bl	8004cb4 <memchr>
 80048ea:	2800      	cmp	r0, #0
 80048ec:	d006      	beq.n	80048fc <_svfiprintf_r+0x14c>
 80048ee:	2340      	movs	r3, #64	; 0x40
 80048f0:	1b80      	subs	r0, r0, r6
 80048f2:	4083      	lsls	r3, r0
 80048f4:	6822      	ldr	r2, [r4, #0]
 80048f6:	3501      	adds	r5, #1
 80048f8:	4313      	orrs	r3, r2
 80048fa:	6023      	str	r3, [r4, #0]
 80048fc:	7829      	ldrb	r1, [r5, #0]
 80048fe:	2206      	movs	r2, #6
 8004900:	4828      	ldr	r0, [pc, #160]	; (80049a4 <_svfiprintf_r+0x1f4>)
 8004902:	1c6e      	adds	r6, r5, #1
 8004904:	7621      	strb	r1, [r4, #24]
 8004906:	f000 f9d5 	bl	8004cb4 <memchr>
 800490a:	2800      	cmp	r0, #0
 800490c:	d03c      	beq.n	8004988 <_svfiprintf_r+0x1d8>
 800490e:	4b26      	ldr	r3, [pc, #152]	; (80049a8 <_svfiprintf_r+0x1f8>)
 8004910:	2b00      	cmp	r3, #0
 8004912:	d125      	bne.n	8004960 <_svfiprintf_r+0x1b0>
 8004914:	2207      	movs	r2, #7
 8004916:	9b07      	ldr	r3, [sp, #28]
 8004918:	3307      	adds	r3, #7
 800491a:	4393      	bics	r3, r2
 800491c:	3308      	adds	r3, #8
 800491e:	9307      	str	r3, [sp, #28]
 8004920:	6963      	ldr	r3, [r4, #20]
 8004922:	9a04      	ldr	r2, [sp, #16]
 8004924:	189b      	adds	r3, r3, r2
 8004926:	6163      	str	r3, [r4, #20]
 8004928:	e765      	b.n	80047f6 <_svfiprintf_r+0x46>
 800492a:	4343      	muls	r3, r0
 800492c:	0035      	movs	r5, r6
 800492e:	2101      	movs	r1, #1
 8004930:	189b      	adds	r3, r3, r2
 8004932:	e7a6      	b.n	8004882 <_svfiprintf_r+0xd2>
 8004934:	2301      	movs	r3, #1
 8004936:	425b      	negs	r3, r3
 8004938:	e7d0      	b.n	80048dc <_svfiprintf_r+0x12c>
 800493a:	2300      	movs	r3, #0
 800493c:	200a      	movs	r0, #10
 800493e:	001a      	movs	r2, r3
 8004940:	3501      	adds	r5, #1
 8004942:	6063      	str	r3, [r4, #4]
 8004944:	7829      	ldrb	r1, [r5, #0]
 8004946:	1c6e      	adds	r6, r5, #1
 8004948:	3930      	subs	r1, #48	; 0x30
 800494a:	2909      	cmp	r1, #9
 800494c:	d903      	bls.n	8004956 <_svfiprintf_r+0x1a6>
 800494e:	2b00      	cmp	r3, #0
 8004950:	d0c5      	beq.n	80048de <_svfiprintf_r+0x12e>
 8004952:	9209      	str	r2, [sp, #36]	; 0x24
 8004954:	e7c3      	b.n	80048de <_svfiprintf_r+0x12e>
 8004956:	4342      	muls	r2, r0
 8004958:	0035      	movs	r5, r6
 800495a:	2301      	movs	r3, #1
 800495c:	1852      	adds	r2, r2, r1
 800495e:	e7f1      	b.n	8004944 <_svfiprintf_r+0x194>
 8004960:	ab07      	add	r3, sp, #28
 8004962:	9300      	str	r3, [sp, #0]
 8004964:	003a      	movs	r2, r7
 8004966:	0021      	movs	r1, r4
 8004968:	4b10      	ldr	r3, [pc, #64]	; (80049ac <_svfiprintf_r+0x1fc>)
 800496a:	9803      	ldr	r0, [sp, #12]
 800496c:	e000      	b.n	8004970 <_svfiprintf_r+0x1c0>
 800496e:	bf00      	nop
 8004970:	9004      	str	r0, [sp, #16]
 8004972:	9b04      	ldr	r3, [sp, #16]
 8004974:	3301      	adds	r3, #1
 8004976:	d1d3      	bne.n	8004920 <_svfiprintf_r+0x170>
 8004978:	89bb      	ldrh	r3, [r7, #12]
 800497a:	980d      	ldr	r0, [sp, #52]	; 0x34
 800497c:	065b      	lsls	r3, r3, #25
 800497e:	d400      	bmi.n	8004982 <_svfiprintf_r+0x1d2>
 8004980:	e72d      	b.n	80047de <_svfiprintf_r+0x2e>
 8004982:	2001      	movs	r0, #1
 8004984:	4240      	negs	r0, r0
 8004986:	e72a      	b.n	80047de <_svfiprintf_r+0x2e>
 8004988:	ab07      	add	r3, sp, #28
 800498a:	9300      	str	r3, [sp, #0]
 800498c:	003a      	movs	r2, r7
 800498e:	0021      	movs	r1, r4
 8004990:	4b06      	ldr	r3, [pc, #24]	; (80049ac <_svfiprintf_r+0x1fc>)
 8004992:	9803      	ldr	r0, [sp, #12]
 8004994:	f000 f87c 	bl	8004a90 <_printf_i>
 8004998:	e7ea      	b.n	8004970 <_svfiprintf_r+0x1c0>
 800499a:	46c0      	nop			; (mov r8, r8)
 800499c:	08004ff8 	.word	0x08004ff8
 80049a0:	08004ffe 	.word	0x08004ffe
 80049a4:	08005002 	.word	0x08005002
 80049a8:	00000000 	.word	0x00000000
 80049ac:	080046ed 	.word	0x080046ed

080049b0 <_printf_common>:
 80049b0:	b5f7      	push	{r0, r1, r2, r4, r5, r6, r7, lr}
 80049b2:	0015      	movs	r5, r2
 80049b4:	9301      	str	r3, [sp, #4]
 80049b6:	688a      	ldr	r2, [r1, #8]
 80049b8:	690b      	ldr	r3, [r1, #16]
 80049ba:	000c      	movs	r4, r1
 80049bc:	9000      	str	r0, [sp, #0]
 80049be:	4293      	cmp	r3, r2
 80049c0:	da00      	bge.n	80049c4 <_printf_common+0x14>
 80049c2:	0013      	movs	r3, r2
 80049c4:	0022      	movs	r2, r4
 80049c6:	602b      	str	r3, [r5, #0]
 80049c8:	3243      	adds	r2, #67	; 0x43
 80049ca:	7812      	ldrb	r2, [r2, #0]
 80049cc:	2a00      	cmp	r2, #0
 80049ce:	d001      	beq.n	80049d4 <_printf_common+0x24>
 80049d0:	3301      	adds	r3, #1
 80049d2:	602b      	str	r3, [r5, #0]
 80049d4:	6823      	ldr	r3, [r4, #0]
 80049d6:	069b      	lsls	r3, r3, #26
 80049d8:	d502      	bpl.n	80049e0 <_printf_common+0x30>
 80049da:	682b      	ldr	r3, [r5, #0]
 80049dc:	3302      	adds	r3, #2
 80049de:	602b      	str	r3, [r5, #0]
 80049e0:	6822      	ldr	r2, [r4, #0]
 80049e2:	2306      	movs	r3, #6
 80049e4:	0017      	movs	r7, r2
 80049e6:	401f      	ands	r7, r3
 80049e8:	421a      	tst	r2, r3
 80049ea:	d027      	beq.n	8004a3c <_printf_common+0x8c>
 80049ec:	0023      	movs	r3, r4
 80049ee:	3343      	adds	r3, #67	; 0x43
 80049f0:	781b      	ldrb	r3, [r3, #0]
 80049f2:	1e5a      	subs	r2, r3, #1
 80049f4:	4193      	sbcs	r3, r2
 80049f6:	6822      	ldr	r2, [r4, #0]
 80049f8:	0692      	lsls	r2, r2, #26
 80049fa:	d430      	bmi.n	8004a5e <_printf_common+0xae>
 80049fc:	0022      	movs	r2, r4
 80049fe:	9901      	ldr	r1, [sp, #4]
 8004a00:	9800      	ldr	r0, [sp, #0]
 8004a02:	9e08      	ldr	r6, [sp, #32]
 8004a04:	3243      	adds	r2, #67	; 0x43
 8004a06:	47b0      	blx	r6
 8004a08:	1c43      	adds	r3, r0, #1
 8004a0a:	d025      	beq.n	8004a58 <_printf_common+0xa8>
 8004a0c:	2306      	movs	r3, #6
 8004a0e:	6820      	ldr	r0, [r4, #0]
 8004a10:	682a      	ldr	r2, [r5, #0]
 8004a12:	68e1      	ldr	r1, [r4, #12]
 8004a14:	2500      	movs	r5, #0
 8004a16:	4003      	ands	r3, r0
 8004a18:	2b04      	cmp	r3, #4
 8004a1a:	d103      	bne.n	8004a24 <_printf_common+0x74>
 8004a1c:	1a8d      	subs	r5, r1, r2
 8004a1e:	43eb      	mvns	r3, r5
 8004a20:	17db      	asrs	r3, r3, #31
 8004a22:	401d      	ands	r5, r3
 8004a24:	68a3      	ldr	r3, [r4, #8]
 8004a26:	6922      	ldr	r2, [r4, #16]
 8004a28:	4293      	cmp	r3, r2
 8004a2a:	dd01      	ble.n	8004a30 <_printf_common+0x80>
 8004a2c:	1a9b      	subs	r3, r3, r2
 8004a2e:	18ed      	adds	r5, r5, r3
 8004a30:	2700      	movs	r7, #0
 8004a32:	42bd      	cmp	r5, r7
 8004a34:	d120      	bne.n	8004a78 <_printf_common+0xc8>
 8004a36:	2000      	movs	r0, #0
 8004a38:	e010      	b.n	8004a5c <_printf_common+0xac>
 8004a3a:	3701      	adds	r7, #1
 8004a3c:	68e3      	ldr	r3, [r4, #12]
 8004a3e:	682a      	ldr	r2, [r5, #0]
 8004a40:	1a9b      	subs	r3, r3, r2
 8004a42:	42bb      	cmp	r3, r7
 8004a44:	ddd2      	ble.n	80049ec <_printf_common+0x3c>
 8004a46:	0022      	movs	r2, r4
 8004a48:	2301      	movs	r3, #1
 8004a4a:	9901      	ldr	r1, [sp, #4]
 8004a4c:	9800      	ldr	r0, [sp, #0]
 8004a4e:	9e08      	ldr	r6, [sp, #32]
 8004a50:	3219      	adds	r2, #25
 8004a52:	47b0      	blx	r6
 8004a54:	1c43      	adds	r3, r0, #1
 8004a56:	d1f0      	bne.n	8004a3a <_printf_common+0x8a>
 8004a58:	2001      	movs	r0, #1
 8004a5a:	4240      	negs	r0, r0
 8004a5c:	bdfe      	pop	{r1, r2, r3, r4, r5, r6, r7, pc}
 8004a5e:	2030      	movs	r0, #48	; 0x30
 8004a60:	18e1      	adds	r1, r4, r3
 8004a62:	3143      	adds	r1, #67	; 0x43
 8004a64:	7008      	strb	r0, [r1, #0]
 8004a66:	0021      	movs	r1, r4
 8004a68:	1c5a      	adds	r2, r3, #1
 8004a6a:	3145      	adds	r1, #69	; 0x45
 8004a6c:	7809      	ldrb	r1, [r1, #0]
 8004a6e:	18a2      	adds	r2, r4, r2
 8004a70:	3243      	adds	r2, #67	; 0x43
 8004a72:	3302      	adds	r3, #2
 8004a74:	7011      	strb	r1, [r2, #0]
 8004a76:	e7c1      	b.n	80049fc <_printf_common+0x4c>
 8004a78:	0022      	movs	r2, r4
 8004a7a:	2301      	movs	r3, #1
 8004a7c:	9901      	ldr	r1, [sp, #4]
 8004a7e:	9800      	ldr	r0, [sp, #0]
 8004a80:	9e08      	ldr	r6, [sp, #32]
 8004a82:	321a      	adds	r2, #26
 8004a84:	47b0      	blx	r6
 8004a86:	1c43      	adds	r3, r0, #1
 8004a88:	d0e6      	beq.n	8004a58 <_printf_common+0xa8>
 8004a8a:	3701      	adds	r7, #1
 8004a8c:	e7d1      	b.n	8004a32 <_printf_common+0x82>
	...

08004a90 <_printf_i>:
 8004a90:	b5f0      	push	{r4, r5, r6, r7, lr}
 8004a92:	b08b      	sub	sp, #44	; 0x2c
 8004a94:	9206      	str	r2, [sp, #24]
 8004a96:	000a      	movs	r2, r1
 8004a98:	3243      	adds	r2, #67	; 0x43
 8004a9a:	9307      	str	r3, [sp, #28]
 8004a9c:	9005      	str	r0, [sp, #20]
 8004a9e:	9204      	str	r2, [sp, #16]
 8004aa0:	7e0a      	ldrb	r2, [r1, #24]
 8004aa2:	000c      	movs	r4, r1
 8004aa4:	9b10      	ldr	r3, [sp, #64]	; 0x40
 8004aa6:	2a78      	cmp	r2, #120	; 0x78
 8004aa8:	d807      	bhi.n	8004aba <_printf_i+0x2a>
 8004aaa:	2a62      	cmp	r2, #98	; 0x62
 8004aac:	d809      	bhi.n	8004ac2 <_printf_i+0x32>
 8004aae:	2a00      	cmp	r2, #0
 8004ab0:	d100      	bne.n	8004ab4 <_printf_i+0x24>
 8004ab2:	e0c1      	b.n	8004c38 <_printf_i+0x1a8>
 8004ab4:	2a58      	cmp	r2, #88	; 0x58
 8004ab6:	d100      	bne.n	8004aba <_printf_i+0x2a>
 8004ab8:	e08c      	b.n	8004bd4 <_printf_i+0x144>
 8004aba:	0026      	movs	r6, r4
 8004abc:	3642      	adds	r6, #66	; 0x42
 8004abe:	7032      	strb	r2, [r6, #0]
 8004ac0:	e022      	b.n	8004b08 <_printf_i+0x78>
 8004ac2:	0010      	movs	r0, r2
 8004ac4:	3863      	subs	r0, #99	; 0x63
 8004ac6:	2815      	cmp	r0, #21
 8004ac8:	d8f7      	bhi.n	8004aba <_printf_i+0x2a>
 8004aca:	f7fb fb1d 	bl	8000108 <__gnu_thumb1_case_shi>
 8004ace:	0016      	.short	0x0016
 8004ad0:	fff6001f 	.word	0xfff6001f
 8004ad4:	fff6fff6 	.word	0xfff6fff6
 8004ad8:	001ffff6 	.word	0x001ffff6
 8004adc:	fff6fff6 	.word	0xfff6fff6
 8004ae0:	fff6fff6 	.word	0xfff6fff6
 8004ae4:	003600a8 	.word	0x003600a8
 8004ae8:	fff6009a 	.word	0xfff6009a
 8004aec:	00b9fff6 	.word	0x00b9fff6
 8004af0:	0036fff6 	.word	0x0036fff6
 8004af4:	fff6fff6 	.word	0xfff6fff6
 8004af8:	009e      	.short	0x009e
 8004afa:	0026      	movs	r6, r4
 8004afc:	681a      	ldr	r2, [r3, #0]
 8004afe:	3642      	adds	r6, #66	; 0x42
 8004b00:	1d11      	adds	r1, r2, #4
 8004b02:	6019      	str	r1, [r3, #0]
 8004b04:	6813      	ldr	r3, [r2, #0]
 8004b06:	7033      	strb	r3, [r6, #0]
 8004b08:	2301      	movs	r3, #1
 8004b0a:	e0a7      	b.n	8004c5c <_printf_i+0x1cc>
 8004b0c:	6808      	ldr	r0, [r1, #0]
 8004b0e:	6819      	ldr	r1, [r3, #0]
 8004b10:	1d0a      	adds	r2, r1, #4
 8004b12:	0605      	lsls	r5, r0, #24
 8004b14:	d50b      	bpl.n	8004b2e <_printf_i+0x9e>
 8004b16:	680d      	ldr	r5, [r1, #0]
 8004b18:	601a      	str	r2, [r3, #0]
 8004b1a:	2d00      	cmp	r5, #0
 8004b1c:	da03      	bge.n	8004b26 <_printf_i+0x96>
 8004b1e:	232d      	movs	r3, #45	; 0x2d
 8004b20:	9a04      	ldr	r2, [sp, #16]
 8004b22:	426d      	negs	r5, r5
 8004b24:	7013      	strb	r3, [r2, #0]
 8004b26:	4b61      	ldr	r3, [pc, #388]	; (8004cac <_printf_i+0x21c>)
 8004b28:	270a      	movs	r7, #10
 8004b2a:	9303      	str	r3, [sp, #12]
 8004b2c:	e01b      	b.n	8004b66 <_printf_i+0xd6>
 8004b2e:	680d      	ldr	r5, [r1, #0]
 8004b30:	601a      	str	r2, [r3, #0]
 8004b32:	0641      	lsls	r1, r0, #25
 8004b34:	d5f1      	bpl.n	8004b1a <_printf_i+0x8a>
 8004b36:	b22d      	sxth	r5, r5
 8004b38:	e7ef      	b.n	8004b1a <_printf_i+0x8a>
 8004b3a:	680d      	ldr	r5, [r1, #0]
 8004b3c:	6819      	ldr	r1, [r3, #0]
 8004b3e:	1d08      	adds	r0, r1, #4
 8004b40:	6018      	str	r0, [r3, #0]
 8004b42:	062e      	lsls	r6, r5, #24
 8004b44:	d501      	bpl.n	8004b4a <_printf_i+0xba>
 8004b46:	680d      	ldr	r5, [r1, #0]
 8004b48:	e003      	b.n	8004b52 <_printf_i+0xc2>
 8004b4a:	066d      	lsls	r5, r5, #25
 8004b4c:	d5fb      	bpl.n	8004b46 <_printf_i+0xb6>
 8004b4e:	680d      	ldr	r5, [r1, #0]
 8004b50:	b2ad      	uxth	r5, r5
 8004b52:	4b56      	ldr	r3, [pc, #344]	; (8004cac <_printf_i+0x21c>)
 8004b54:	2708      	movs	r7, #8
 8004b56:	9303      	str	r3, [sp, #12]
 8004b58:	2a6f      	cmp	r2, #111	; 0x6f
 8004b5a:	d000      	beq.n	8004b5e <_printf_i+0xce>
 8004b5c:	3702      	adds	r7, #2
 8004b5e:	0023      	movs	r3, r4
 8004b60:	2200      	movs	r2, #0
 8004b62:	3343      	adds	r3, #67	; 0x43
 8004b64:	701a      	strb	r2, [r3, #0]
 8004b66:	6863      	ldr	r3, [r4, #4]
 8004b68:	60a3      	str	r3, [r4, #8]
 8004b6a:	2b00      	cmp	r3, #0
 8004b6c:	db03      	blt.n	8004b76 <_printf_i+0xe6>
 8004b6e:	2204      	movs	r2, #4
 8004b70:	6821      	ldr	r1, [r4, #0]
 8004b72:	4391      	bics	r1, r2
 8004b74:	6021      	str	r1, [r4, #0]
 8004b76:	2d00      	cmp	r5, #0
 8004b78:	d102      	bne.n	8004b80 <_printf_i+0xf0>
 8004b7a:	9e04      	ldr	r6, [sp, #16]
 8004b7c:	2b00      	cmp	r3, #0
 8004b7e:	d00c      	beq.n	8004b9a <_printf_i+0x10a>
 8004b80:	9e04      	ldr	r6, [sp, #16]
 8004b82:	0028      	movs	r0, r5
 8004b84:	0039      	movs	r1, r7
 8004b86:	f7fb fb4f 	bl	8000228 <__aeabi_uidivmod>
 8004b8a:	9b03      	ldr	r3, [sp, #12]
 8004b8c:	3e01      	subs	r6, #1
 8004b8e:	5c5b      	ldrb	r3, [r3, r1]
 8004b90:	7033      	strb	r3, [r6, #0]
 8004b92:	002b      	movs	r3, r5
 8004b94:	0005      	movs	r5, r0
 8004b96:	429f      	cmp	r7, r3
 8004b98:	d9f3      	bls.n	8004b82 <_printf_i+0xf2>
 8004b9a:	2f08      	cmp	r7, #8
 8004b9c:	d109      	bne.n	8004bb2 <_printf_i+0x122>
 8004b9e:	6823      	ldr	r3, [r4, #0]
 8004ba0:	07db      	lsls	r3, r3, #31
 8004ba2:	d506      	bpl.n	8004bb2 <_printf_i+0x122>
 8004ba4:	6863      	ldr	r3, [r4, #4]
 8004ba6:	6922      	ldr	r2, [r4, #16]
 8004ba8:	4293      	cmp	r3, r2
 8004baa:	dc02      	bgt.n	8004bb2 <_printf_i+0x122>
 8004bac:	2330      	movs	r3, #48	; 0x30
 8004bae:	3e01      	subs	r6, #1
 8004bb0:	7033      	strb	r3, [r6, #0]
 8004bb2:	9b04      	ldr	r3, [sp, #16]
 8004bb4:	1b9b      	subs	r3, r3, r6
 8004bb6:	6123      	str	r3, [r4, #16]
 8004bb8:	9b07      	ldr	r3, [sp, #28]
 8004bba:	0021      	movs	r1, r4
 8004bbc:	9300      	str	r3, [sp, #0]
 8004bbe:	9805      	ldr	r0, [sp, #20]
 8004bc0:	9b06      	ldr	r3, [sp, #24]
 8004bc2:	aa09      	add	r2, sp, #36	; 0x24
 8004bc4:	f7ff fef4 	bl	80049b0 <_printf_common>
 8004bc8:	1c43      	adds	r3, r0, #1
 8004bca:	d14c      	bne.n	8004c66 <_printf_i+0x1d6>
 8004bcc:	2001      	movs	r0, #1
 8004bce:	4240      	negs	r0, r0
 8004bd0:	b00b      	add	sp, #44	; 0x2c
 8004bd2:	bdf0      	pop	{r4, r5, r6, r7, pc}
 8004bd4:	3145      	adds	r1, #69	; 0x45
 8004bd6:	700a      	strb	r2, [r1, #0]
 8004bd8:	4a34      	ldr	r2, [pc, #208]	; (8004cac <_printf_i+0x21c>)
 8004bda:	9203      	str	r2, [sp, #12]
 8004bdc:	681a      	ldr	r2, [r3, #0]
 8004bde:	6821      	ldr	r1, [r4, #0]
 8004be0:	ca20      	ldmia	r2!, {r5}
 8004be2:	601a      	str	r2, [r3, #0]
 8004be4:	0608      	lsls	r0, r1, #24
 8004be6:	d516      	bpl.n	8004c16 <_printf_i+0x186>
 8004be8:	07cb      	lsls	r3, r1, #31
 8004bea:	d502      	bpl.n	8004bf2 <_printf_i+0x162>
 8004bec:	2320      	movs	r3, #32
 8004bee:	4319      	orrs	r1, r3
 8004bf0:	6021      	str	r1, [r4, #0]
 8004bf2:	2710      	movs	r7, #16
 8004bf4:	2d00      	cmp	r5, #0
 8004bf6:	d1b2      	bne.n	8004b5e <_printf_i+0xce>
 8004bf8:	2320      	movs	r3, #32
 8004bfa:	6822      	ldr	r2, [r4, #0]
 8004bfc:	439a      	bics	r2, r3
 8004bfe:	6022      	str	r2, [r4, #0]
 8004c00:	e7ad      	b.n	8004b5e <_printf_i+0xce>
 8004c02:	2220      	movs	r2, #32
 8004c04:	6809      	ldr	r1, [r1, #0]
 8004c06:	430a      	orrs	r2, r1
 8004c08:	6022      	str	r2, [r4, #0]
 8004c0a:	0022      	movs	r2, r4
 8004c0c:	2178      	movs	r1, #120	; 0x78
 8004c0e:	3245      	adds	r2, #69	; 0x45
 8004c10:	7011      	strb	r1, [r2, #0]
 8004c12:	4a27      	ldr	r2, [pc, #156]	; (8004cb0 <_printf_i+0x220>)
 8004c14:	e7e1      	b.n	8004bda <_printf_i+0x14a>
 8004c16:	0648      	lsls	r0, r1, #25
 8004c18:	d5e6      	bpl.n	8004be8 <_printf_i+0x158>
 8004c1a:	b2ad      	uxth	r5, r5
 8004c1c:	e7e4      	b.n	8004be8 <_printf_i+0x158>
 8004c1e:	681a      	ldr	r2, [r3, #0]
 8004c20:	680d      	ldr	r5, [r1, #0]
 8004c22:	1d10      	adds	r0, r2, #4
 8004c24:	6949      	ldr	r1, [r1, #20]
 8004c26:	6018      	str	r0, [r3, #0]
 8004c28:	6813      	ldr	r3, [r2, #0]
 8004c2a:	062e      	lsls	r6, r5, #24
 8004c2c:	d501      	bpl.n	8004c32 <_printf_i+0x1a2>
 8004c2e:	6019      	str	r1, [r3, #0]
 8004c30:	e002      	b.n	8004c38 <_printf_i+0x1a8>
 8004c32:	066d      	lsls	r5, r5, #25
 8004c34:	d5fb      	bpl.n	8004c2e <_printf_i+0x19e>
 8004c36:	8019      	strh	r1, [r3, #0]
 8004c38:	2300      	movs	r3, #0
 8004c3a:	9e04      	ldr	r6, [sp, #16]
 8004c3c:	6123      	str	r3, [r4, #16]
 8004c3e:	e7bb      	b.n	8004bb8 <_printf_i+0x128>
 8004c40:	681a      	ldr	r2, [r3, #0]
 8004c42:	1d11      	adds	r1, r2, #4
 8004c44:	6019      	str	r1, [r3, #0]
 8004c46:	6816      	ldr	r6, [r2, #0]
 8004c48:	2100      	movs	r1, #0
 8004c4a:	0030      	movs	r0, r6
 8004c4c:	6862      	ldr	r2, [r4, #4]
 8004c4e:	f000 f831 	bl	8004cb4 <memchr>
 8004c52:	2800      	cmp	r0, #0
 8004c54:	d001      	beq.n	8004c5a <_printf_i+0x1ca>
 8004c56:	1b80      	subs	r0, r0, r6
 8004c58:	6060      	str	r0, [r4, #4]
 8004c5a:	6863      	ldr	r3, [r4, #4]
 8004c5c:	6123      	str	r3, [r4, #16]
 8004c5e:	2300      	movs	r3, #0
 8004c60:	9a04      	ldr	r2, [sp, #16]
 8004c62:	7013      	strb	r3, [r2, #0]
 8004c64:	e7a8      	b.n	8004bb8 <_printf_i+0x128>
 8004c66:	6923      	ldr	r3, [r4, #16]
 8004c68:	0032      	movs	r2, r6
 8004c6a:	9906      	ldr	r1, [sp, #24]
 8004c6c:	9805      	ldr	r0, [sp, #20]
 8004c6e:	9d07      	ldr	r5, [sp, #28]
 8004c70:	47a8      	blx	r5
 8004c72:	1c43      	adds	r3, r0, #1
 8004c74:	d0aa      	beq.n	8004bcc <_printf_i+0x13c>
 8004c76:	6823      	ldr	r3, [r4, #0]
 8004c78:	079b      	lsls	r3, r3, #30
 8004c7a:	d415      	bmi.n	8004ca8 <_printf_i+0x218>
 8004c7c:	9b09      	ldr	r3, [sp, #36]	; 0x24
 8004c7e:	68e0      	ldr	r0, [r4, #12]
 8004c80:	4298      	cmp	r0, r3
 8004c82:	daa5      	bge.n	8004bd0 <_printf_i+0x140>
 8004c84:	0018      	movs	r0, r3
 8004c86:	e7a3      	b.n	8004bd0 <_printf_i+0x140>
 8004c88:	0022      	movs	r2, r4
 8004c8a:	2301      	movs	r3, #1
 8004c8c:	9906      	ldr	r1, [sp, #24]
 8004c8e:	9805      	ldr	r0, [sp, #20]
 8004c90:	9e07      	ldr	r6, [sp, #28]
 8004c92:	3219      	adds	r2, #25
 8004c94:	47b0      	blx	r6
 8004c96:	1c43      	adds	r3, r0, #1
 8004c98:	d098      	beq.n	8004bcc <_printf_i+0x13c>
 8004c9a:	3501      	adds	r5, #1
 8004c9c:	68e3      	ldr	r3, [r4, #12]
 8004c9e:	9a09      	ldr	r2, [sp, #36]	; 0x24
 8004ca0:	1a9b      	subs	r3, r3, r2
 8004ca2:	42ab      	cmp	r3, r5
 8004ca4:	dcf0      	bgt.n	8004c88 <_printf_i+0x1f8>
 8004ca6:	e7e9      	b.n	8004c7c <_printf_i+0x1ec>
 8004ca8:	2500      	movs	r5, #0
 8004caa:	e7f7      	b.n	8004c9c <_printf_i+0x20c>
 8004cac:	08005009 	.word	0x08005009
 8004cb0:	0800501a 	.word	0x0800501a

08004cb4 <memchr>:
 8004cb4:	b2c9      	uxtb	r1, r1
 8004cb6:	1882      	adds	r2, r0, r2
 8004cb8:	4290      	cmp	r0, r2
 8004cba:	d101      	bne.n	8004cc0 <memchr+0xc>
 8004cbc:	2000      	movs	r0, #0
 8004cbe:	4770      	bx	lr
 8004cc0:	7803      	ldrb	r3, [r0, #0]
 8004cc2:	428b      	cmp	r3, r1
 8004cc4:	d0fb      	beq.n	8004cbe <memchr+0xa>
 8004cc6:	3001      	adds	r0, #1
 8004cc8:	e7f6      	b.n	8004cb8 <memchr+0x4>

08004cca <memcpy>:
 8004cca:	2300      	movs	r3, #0
 8004ccc:	b510      	push	{r4, lr}
 8004cce:	429a      	cmp	r2, r3
 8004cd0:	d100      	bne.n	8004cd4 <memcpy+0xa>
 8004cd2:	bd10      	pop	{r4, pc}
 8004cd4:	5ccc      	ldrb	r4, [r1, r3]
 8004cd6:	54c4      	strb	r4, [r0, r3]
 8004cd8:	3301      	adds	r3, #1
 8004cda:	e7f8      	b.n	8004cce <memcpy+0x4>

08004cdc <memmove>:
 8004cdc:	b510      	push	{r4, lr}
 8004cde:	4288      	cmp	r0, r1
 8004ce0:	d902      	bls.n	8004ce8 <memmove+0xc>
 8004ce2:	188b      	adds	r3, r1, r2
 8004ce4:	4298      	cmp	r0, r3
 8004ce6:	d303      	bcc.n	8004cf0 <memmove+0x14>
 8004ce8:	2300      	movs	r3, #0
 8004cea:	e007      	b.n	8004cfc <memmove+0x20>
 8004cec:	5c8b      	ldrb	r3, [r1, r2]
 8004cee:	5483      	strb	r3, [r0, r2]
 8004cf0:	3a01      	subs	r2, #1
 8004cf2:	d2fb      	bcs.n	8004cec <memmove+0x10>
 8004cf4:	bd10      	pop	{r4, pc}
 8004cf6:	5ccc      	ldrb	r4, [r1, r3]
 8004cf8:	54c4      	strb	r4, [r0, r3]
 8004cfa:	3301      	adds	r3, #1
 8004cfc:	429a      	cmp	r2, r3
 8004cfe:	d1fa      	bne.n	8004cf6 <memmove+0x1a>
 8004d00:	e7f8      	b.n	8004cf4 <memmove+0x18>
	...

08004d04 <_free_r>:
 8004d04:	b570      	push	{r4, r5, r6, lr}
 8004d06:	0005      	movs	r5, r0
 8004d08:	2900      	cmp	r1, #0
 8004d0a:	d010      	beq.n	8004d2e <_free_r+0x2a>
 8004d0c:	1f0c      	subs	r4, r1, #4
 8004d0e:	6823      	ldr	r3, [r4, #0]
 8004d10:	2b00      	cmp	r3, #0
 8004d12:	da00      	bge.n	8004d16 <_free_r+0x12>
 8004d14:	18e4      	adds	r4, r4, r3
 8004d16:	0028      	movs	r0, r5
 8004d18:	f000 f918 	bl	8004f4c <__malloc_lock>
 8004d1c:	4a1d      	ldr	r2, [pc, #116]	; (8004d94 <_free_r+0x90>)
 8004d1e:	6813      	ldr	r3, [r2, #0]
 8004d20:	2b00      	cmp	r3, #0
 8004d22:	d105      	bne.n	8004d30 <_free_r+0x2c>
 8004d24:	6063      	str	r3, [r4, #4]
 8004d26:	6014      	str	r4, [r2, #0]
 8004d28:	0028      	movs	r0, r5
 8004d2a:	f000 f917 	bl	8004f5c <__malloc_unlock>
 8004d2e:	bd70      	pop	{r4, r5, r6, pc}
 8004d30:	42a3      	cmp	r3, r4
 8004d32:	d908      	bls.n	8004d46 <_free_r+0x42>
 8004d34:	6821      	ldr	r1, [r4, #0]
 8004d36:	1860      	adds	r0, r4, r1
 8004d38:	4283      	cmp	r3, r0
 8004d3a:	d1f3      	bne.n	8004d24 <_free_r+0x20>
 8004d3c:	6818      	ldr	r0, [r3, #0]
 8004d3e:	685b      	ldr	r3, [r3, #4]
 8004d40:	1841      	adds	r1, r0, r1
 8004d42:	6021      	str	r1, [r4, #0]
 8004d44:	e7ee      	b.n	8004d24 <_free_r+0x20>
 8004d46:	001a      	movs	r2, r3
 8004d48:	685b      	ldr	r3, [r3, #4]
 8004d4a:	2b00      	cmp	r3, #0
 8004d4c:	d001      	beq.n	8004d52 <_free_r+0x4e>
 8004d4e:	42a3      	cmp	r3, r4
 8004d50:	d9f9      	bls.n	8004d46 <_free_r+0x42>
 8004d52:	6811      	ldr	r1, [r2, #0]
 8004d54:	1850      	adds	r0, r2, r1
 8004d56:	42a0      	cmp	r0, r4
 8004d58:	d10b      	bne.n	8004d72 <_free_r+0x6e>
 8004d5a:	6820      	ldr	r0, [r4, #0]
 8004d5c:	1809      	adds	r1, r1, r0
 8004d5e:	1850      	adds	r0, r2, r1
 8004d60:	6011      	str	r1, [r2, #0]
 8004d62:	4283      	cmp	r3, r0
 8004d64:	d1e0      	bne.n	8004d28 <_free_r+0x24>
 8004d66:	6818      	ldr	r0, [r3, #0]
 8004d68:	685b      	ldr	r3, [r3, #4]
 8004d6a:	1841      	adds	r1, r0, r1
 8004d6c:	6011      	str	r1, [r2, #0]
 8004d6e:	6053      	str	r3, [r2, #4]
 8004d70:	e7da      	b.n	8004d28 <_free_r+0x24>
 8004d72:	42a0      	cmp	r0, r4
 8004d74:	d902      	bls.n	8004d7c <_free_r+0x78>
 8004d76:	230c      	movs	r3, #12
 8004d78:	602b      	str	r3, [r5, #0]
 8004d7a:	e7d5      	b.n	8004d28 <_free_r+0x24>
 8004d7c:	6821      	ldr	r1, [r4, #0]
 8004d7e:	1860      	adds	r0, r4, r1
 8004d80:	4283      	cmp	r3, r0
 8004d82:	d103      	bne.n	8004d8c <_free_r+0x88>
 8004d84:	6818      	ldr	r0, [r3, #0]
 8004d86:	685b      	ldr	r3, [r3, #4]
 8004d88:	1841      	adds	r1, r0, r1
 8004d8a:	6021      	str	r1, [r4, #0]
 8004d8c:	6063      	str	r3, [r4, #4]
 8004d8e:	6054      	str	r4, [r2, #4]
 8004d90:	e7ca      	b.n	8004d28 <_free_r+0x24>
 8004d92:	46c0      	nop			; (mov r8, r8)
 8004d94:	2000027c 	.word	0x2000027c

08004d98 <sbrk_aligned>:
 8004d98:	b570      	push	{r4, r5, r6, lr}
 8004d9a:	4e0f      	ldr	r6, [pc, #60]	; (8004dd8 <sbrk_aligned+0x40>)
 8004d9c:	000d      	movs	r5, r1
 8004d9e:	6831      	ldr	r1, [r6, #0]
 8004da0:	0004      	movs	r4, r0
 8004da2:	2900      	cmp	r1, #0
 8004da4:	d102      	bne.n	8004dac <sbrk_aligned+0x14>
 8004da6:	f000 f8bf 	bl	8004f28 <_sbrk_r>
 8004daa:	6030      	str	r0, [r6, #0]
 8004dac:	0029      	movs	r1, r5
 8004dae:	0020      	movs	r0, r4
 8004db0:	f000 f8ba 	bl	8004f28 <_sbrk_r>
 8004db4:	1c43      	adds	r3, r0, #1
 8004db6:	d00a      	beq.n	8004dce <sbrk_aligned+0x36>
 8004db8:	2303      	movs	r3, #3
 8004dba:	1cc5      	adds	r5, r0, #3
 8004dbc:	439d      	bics	r5, r3
 8004dbe:	42a8      	cmp	r0, r5
 8004dc0:	d007      	beq.n	8004dd2 <sbrk_aligned+0x3a>
 8004dc2:	1a29      	subs	r1, r5, r0
 8004dc4:	0020      	movs	r0, r4
 8004dc6:	f000 f8af 	bl	8004f28 <_sbrk_r>
 8004dca:	1c43      	adds	r3, r0, #1
 8004dcc:	d101      	bne.n	8004dd2 <sbrk_aligned+0x3a>
 8004dce:	2501      	movs	r5, #1
 8004dd0:	426d      	negs	r5, r5
 8004dd2:	0028      	movs	r0, r5
 8004dd4:	bd70      	pop	{r4, r5, r6, pc}
 8004dd6:	46c0      	nop			; (mov r8, r8)
 8004dd8:	20000280 	.word	0x20000280

08004ddc <_malloc_r>:
 8004ddc:	b5f7      	push	{r0, r1, r2, r4, r5, r6, r7, lr}
 8004dde:	2203      	movs	r2, #3
 8004de0:	1ccb      	adds	r3, r1, #3
 8004de2:	4393      	bics	r3, r2
 8004de4:	3308      	adds	r3, #8
 8004de6:	0006      	movs	r6, r0
 8004de8:	001f      	movs	r7, r3
 8004dea:	2b0c      	cmp	r3, #12
 8004dec:	d232      	bcs.n	8004e54 <_malloc_r+0x78>
 8004dee:	270c      	movs	r7, #12
 8004df0:	42b9      	cmp	r1, r7
 8004df2:	d831      	bhi.n	8004e58 <_malloc_r+0x7c>
 8004df4:	0030      	movs	r0, r6
 8004df6:	f000 f8a9 	bl	8004f4c <__malloc_lock>
 8004dfa:	4d32      	ldr	r5, [pc, #200]	; (8004ec4 <_malloc_r+0xe8>)
 8004dfc:	682b      	ldr	r3, [r5, #0]
 8004dfe:	001c      	movs	r4, r3
 8004e00:	2c00      	cmp	r4, #0
 8004e02:	d12e      	bne.n	8004e62 <_malloc_r+0x86>
 8004e04:	0039      	movs	r1, r7
 8004e06:	0030      	movs	r0, r6
 8004e08:	f7ff ffc6 	bl	8004d98 <sbrk_aligned>
 8004e0c:	0004      	movs	r4, r0
 8004e0e:	1c43      	adds	r3, r0, #1
 8004e10:	d11e      	bne.n	8004e50 <_malloc_r+0x74>
 8004e12:	682c      	ldr	r4, [r5, #0]
 8004e14:	0025      	movs	r5, r4
 8004e16:	2d00      	cmp	r5, #0
 8004e18:	d14a      	bne.n	8004eb0 <_malloc_r+0xd4>
 8004e1a:	6823      	ldr	r3, [r4, #0]
 8004e1c:	0029      	movs	r1, r5
 8004e1e:	18e3      	adds	r3, r4, r3
 8004e20:	0030      	movs	r0, r6
 8004e22:	9301      	str	r3, [sp, #4]
 8004e24:	f000 f880 	bl	8004f28 <_sbrk_r>
 8004e28:	9b01      	ldr	r3, [sp, #4]
 8004e2a:	4283      	cmp	r3, r0
 8004e2c:	d143      	bne.n	8004eb6 <_malloc_r+0xda>
 8004e2e:	6823      	ldr	r3, [r4, #0]
 8004e30:	3703      	adds	r7, #3
 8004e32:	1aff      	subs	r7, r7, r3
 8004e34:	2303      	movs	r3, #3
 8004e36:	439f      	bics	r7, r3
 8004e38:	3708      	adds	r7, #8
 8004e3a:	2f0c      	cmp	r7, #12
 8004e3c:	d200      	bcs.n	8004e40 <_malloc_r+0x64>
 8004e3e:	270c      	movs	r7, #12
 8004e40:	0039      	movs	r1, r7
 8004e42:	0030      	movs	r0, r6
 8004e44:	f7ff ffa8 	bl	8004d98 <sbrk_aligned>
 8004e48:	1c43      	adds	r3, r0, #1
 8004e4a:	d034      	beq.n	8004eb6 <_malloc_r+0xda>
 8004e4c:	6823      	ldr	r3, [r4, #0]
 8004e4e:	19df      	adds	r7, r3, r7
 8004e50:	6027      	str	r7, [r4, #0]
 8004e52:	e013      	b.n	8004e7c <_malloc_r+0xa0>
 8004e54:	2b00      	cmp	r3, #0
 8004e56:	dacb      	bge.n	8004df0 <_malloc_r+0x14>
 8004e58:	230c      	movs	r3, #12
 8004e5a:	2500      	movs	r5, #0
 8004e5c:	6033      	str	r3, [r6, #0]
 8004e5e:	0028      	movs	r0, r5
 8004e60:	bdfe      	pop	{r1, r2, r3, r4, r5, r6, r7, pc}
 8004e62:	6822      	ldr	r2, [r4, #0]
 8004e64:	1bd1      	subs	r1, r2, r7
 8004e66:	d420      	bmi.n	8004eaa <_malloc_r+0xce>
 8004e68:	290b      	cmp	r1, #11
 8004e6a:	d917      	bls.n	8004e9c <_malloc_r+0xc0>
 8004e6c:	19e2      	adds	r2, r4, r7
 8004e6e:	6027      	str	r7, [r4, #0]
 8004e70:	42a3      	cmp	r3, r4
 8004e72:	d111      	bne.n	8004e98 <_malloc_r+0xbc>
 8004e74:	602a      	str	r2, [r5, #0]
 8004e76:	6863      	ldr	r3, [r4, #4]
 8004e78:	6011      	str	r1, [r2, #0]
 8004e7a:	6053      	str	r3, [r2, #4]
 8004e7c:	0030      	movs	r0, r6
 8004e7e:	0025      	movs	r5, r4
 8004e80:	f000 f86c 	bl	8004f5c <__malloc_unlock>
 8004e84:	2207      	movs	r2, #7
 8004e86:	350b      	adds	r5, #11
 8004e88:	1d23      	adds	r3, r4, #4
 8004e8a:	4395      	bics	r5, r2
 8004e8c:	1aea      	subs	r2, r5, r3
 8004e8e:	429d      	cmp	r5, r3
 8004e90:	d0e5      	beq.n	8004e5e <_malloc_r+0x82>
 8004e92:	1b5b      	subs	r3, r3, r5
 8004e94:	50a3      	str	r3, [r4, r2]
 8004e96:	e7e2      	b.n	8004e5e <_malloc_r+0x82>
 8004e98:	605a      	str	r2, [r3, #4]
 8004e9a:	e7ec      	b.n	8004e76 <_malloc_r+0x9a>
 8004e9c:	6862      	ldr	r2, [r4, #4]
 8004e9e:	42a3      	cmp	r3, r4
 8004ea0:	d101      	bne.n	8004ea6 <_malloc_r+0xca>
 8004ea2:	602a      	str	r2, [r5, #0]
 8004ea4:	e7ea      	b.n	8004e7c <_malloc_r+0xa0>
 8004ea6:	605a      	str	r2, [r3, #4]
 8004ea8:	e7e8      	b.n	8004e7c <_malloc_r+0xa0>
 8004eaa:	0023      	movs	r3, r4
 8004eac:	6864      	ldr	r4, [r4, #4]
 8004eae:	e7a7      	b.n	8004e00 <_malloc_r+0x24>
 8004eb0:	002c      	movs	r4, r5
 8004eb2:	686d      	ldr	r5, [r5, #4]
 8004eb4:	e7af      	b.n	8004e16 <_malloc_r+0x3a>
 8004eb6:	230c      	movs	r3, #12
 8004eb8:	0030      	movs	r0, r6
 8004eba:	6033      	str	r3, [r6, #0]
 8004ebc:	f000 f84e 	bl	8004f5c <__malloc_unlock>
 8004ec0:	e7cd      	b.n	8004e5e <_malloc_r+0x82>
 8004ec2:	46c0      	nop			; (mov r8, r8)
 8004ec4:	2000027c 	.word	0x2000027c

08004ec8 <_realloc_r>:
 8004ec8:	b5f7      	push	{r0, r1, r2, r4, r5, r6, r7, lr}
 8004eca:	0007      	movs	r7, r0
 8004ecc:	000e      	movs	r6, r1
 8004ece:	0014      	movs	r4, r2
 8004ed0:	2900      	cmp	r1, #0
 8004ed2:	d105      	bne.n	8004ee0 <_realloc_r+0x18>
 8004ed4:	0011      	movs	r1, r2
 8004ed6:	f7ff ff81 	bl	8004ddc <_malloc_r>
 8004eda:	0005      	movs	r5, r0
 8004edc:	0028      	movs	r0, r5
 8004ede:	bdfe      	pop	{r1, r2, r3, r4, r5, r6, r7, pc}
 8004ee0:	2a00      	cmp	r2, #0
 8004ee2:	d103      	bne.n	8004eec <_realloc_r+0x24>
 8004ee4:	f7ff ff0e 	bl	8004d04 <_free_r>
 8004ee8:	0025      	movs	r5, r4
 8004eea:	e7f7      	b.n	8004edc <_realloc_r+0x14>
 8004eec:	f000 f83e 	bl	8004f6c <_malloc_usable_size_r>
 8004ef0:	9001      	str	r0, [sp, #4]
 8004ef2:	4284      	cmp	r4, r0
 8004ef4:	d803      	bhi.n	8004efe <_realloc_r+0x36>
 8004ef6:	0035      	movs	r5, r6
 8004ef8:	0843      	lsrs	r3, r0, #1
 8004efa:	42a3      	cmp	r3, r4
 8004efc:	d3ee      	bcc.n	8004edc <_realloc_r+0x14>
 8004efe:	0021      	movs	r1, r4
 8004f00:	0038      	movs	r0, r7
 8004f02:	f7ff ff6b 	bl	8004ddc <_malloc_r>
 8004f06:	1e05      	subs	r5, r0, #0
 8004f08:	d0e8      	beq.n	8004edc <_realloc_r+0x14>
 8004f0a:	9b01      	ldr	r3, [sp, #4]
 8004f0c:	0022      	movs	r2, r4
 8004f0e:	429c      	cmp	r4, r3
 8004f10:	d900      	bls.n	8004f14 <_realloc_r+0x4c>
 8004f12:	001a      	movs	r2, r3
 8004f14:	0031      	movs	r1, r6
 8004f16:	0028      	movs	r0, r5
 8004f18:	f7ff fed7 	bl	8004cca <memcpy>
 8004f1c:	0031      	movs	r1, r6
 8004f1e:	0038      	movs	r0, r7
 8004f20:	f7ff fef0 	bl	8004d04 <_free_r>
 8004f24:	e7da      	b.n	8004edc <_realloc_r+0x14>
	...

08004f28 <_sbrk_r>:
 8004f28:	2300      	movs	r3, #0
 8004f2a:	b570      	push	{r4, r5, r6, lr}
 8004f2c:	4d06      	ldr	r5, [pc, #24]	; (8004f48 <_sbrk_r+0x20>)
 8004f2e:	0004      	movs	r4, r0
 8004f30:	0008      	movs	r0, r1
 8004f32:	602b      	str	r3, [r5, #0]
 8004f34:	f7fb fe36 	bl	8000ba4 <_sbrk>
 8004f38:	1c43      	adds	r3, r0, #1
 8004f3a:	d103      	bne.n	8004f44 <_sbrk_r+0x1c>
 8004f3c:	682b      	ldr	r3, [r5, #0]
 8004f3e:	2b00      	cmp	r3, #0
 8004f40:	d000      	beq.n	8004f44 <_sbrk_r+0x1c>
 8004f42:	6023      	str	r3, [r4, #0]
 8004f44:	bd70      	pop	{r4, r5, r6, pc}
 8004f46:	46c0      	nop			; (mov r8, r8)
 8004f48:	20000284 	.word	0x20000284

08004f4c <__malloc_lock>:
 8004f4c:	b510      	push	{r4, lr}
 8004f4e:	4802      	ldr	r0, [pc, #8]	; (8004f58 <__malloc_lock+0xc>)
 8004f50:	f000 f814 	bl	8004f7c <__retarget_lock_acquire_recursive>
 8004f54:	bd10      	pop	{r4, pc}
 8004f56:	46c0      	nop			; (mov r8, r8)
 8004f58:	20000288 	.word	0x20000288

08004f5c <__malloc_unlock>:
 8004f5c:	b510      	push	{r4, lr}
 8004f5e:	4802      	ldr	r0, [pc, #8]	; (8004f68 <__malloc_unlock+0xc>)
 8004f60:	f000 f80d 	bl	8004f7e <__retarget_lock_release_recursive>
 8004f64:	bd10      	pop	{r4, pc}
 8004f66:	46c0      	nop			; (mov r8, r8)
 8004f68:	20000288 	.word	0x20000288

08004f6c <_malloc_usable_size_r>:
 8004f6c:	1f0b      	subs	r3, r1, #4
 8004f6e:	681b      	ldr	r3, [r3, #0]
 8004f70:	1f18      	subs	r0, r3, #4
 8004f72:	2b00      	cmp	r3, #0
 8004f74:	da01      	bge.n	8004f7a <_malloc_usable_size_r+0xe>
 8004f76:	580b      	ldr	r3, [r1, r0]
 8004f78:	18c0      	adds	r0, r0, r3
 8004f7a:	4770      	bx	lr

08004f7c <__retarget_lock_acquire_recursive>:
 8004f7c:	4770      	bx	lr

08004f7e <__retarget_lock_release_recursive>:
 8004f7e:	4770      	bx	lr

08004f80 <_init>:
 8004f80:	b5f8      	push	{r3, r4, r5, r6, r7, lr}
 8004f82:	46c0      	nop			; (mov r8, r8)
 8004f84:	bcf8      	pop	{r3, r4, r5, r6, r7}
 8004f86:	bc08      	pop	{r3}
 8004f88:	469e      	mov	lr, r3
 8004f8a:	4770      	bx	lr

08004f8c <_fini>:
 8004f8c:	b5f8      	push	{r3, r4, r5, r6, r7, lr}
 8004f8e:	46c0      	nop			; (mov r8, r8)
 8004f90:	bcf8      	pop	{r3, r4, r5, r6, r7}
 8004f92:	bc08      	pop	{r3}
 8004f94:	469e      	mov	lr, r3
 8004f96:	4770      	bx	lr
